SF:/home/spduncan/balatro-rs-ws/fix-issue-184-cicd-pipeline/core/src/action.rs
FN:30,_RINvXNvXs0_NvXNvNtCs6ewEfsi5izM_10balatro_rs6actions2_1__NtBe_6ActionNtNtCsWuCv7H75Ac_5serde2de11Deserialize11deserializeNtB9_9___VisitorNtB17_7Visitor10visit_enumNtB3_9___VisitorB2b_9visit_seqpEBg_
FN:9,_RINvXs0_NvXNvNtCs6ewEfsi5izM_10balatro_rs6actions_1__NtBb_13MoveDirectionNtNtCsWuCv7H75Ac_5serde2de11Deserialize11deserializeNtB6_9___VisitorNtB1b_7Visitor10visit_enumpEBd_
FN:30,_RINvXs3_NvXs0_NvXNvNtCs6ewEfsi5izM_10balatro_rs6actions2_1__NtBh_6ActionNtNtCsWuCv7H75Ac_5serde2de11Deserialize11deserializeNtBc_9___VisitorNtB1a_7Visitor10visit_enumNtB6_s1_9___VisitorB2e_9visit_mappEBj_
FN:30,_RINvXs3_NvXs0_NvXNvNtCs6ewEfsi5izM_10balatro_rs6actions2_1__NtBh_6ActionNtNtCsWuCv7H75Ac_5serde2de11Deserialize11deserializeNtBc_9___VisitorNtB1a_7Visitor10visit_enumNtB6_s1_9___VisitorB2e_9visit_seqpEBj_
FN:30,_RINvXs6_NvXs0_NvXNvNtCs6ewEfsi5izM_10balatro_rs6actions2_1__NtBh_6ActionNtNtCsWuCv7H75Ac_5serde2de11Deserialize11deserializeNtBc_9___VisitorNtB1a_7Visitor10visit_enumNtB6_s2_9___VisitorB2e_9visit_mappEBj_
FN:30,_RINvXs6_NvXs0_NvXNvNtCs6ewEfsi5izM_10balatro_rs6actions2_1__NtBh_6ActionNtNtCsWuCv7H75Ac_5serde2de11Deserialize11deserializeNtBc_9___VisitorNtB1a_7Visitor10visit_enumNtB6_s2_9___VisitorB2e_9visit_seqpEBj_
FN:30,_RINvXs9_NvXs0_NvXNvNtCs6ewEfsi5izM_10balatro_rs6actions2_1__NtBh_6ActionNtNtCsWuCv7H75Ac_5serde2de11Deserialize11deserializeNtBc_9___VisitorNtB1a_7Visitor10visit_enumNtB6_s3_9___VisitorB2e_9visit_mappEBj_
FN:30,_RINvXs9_NvXs0_NvXNvNtCs6ewEfsi5izM_10balatro_rs6actions2_1__NtBh_6ActionNtNtCsWuCv7H75Ac_5serde2de11Deserialize11deserializeNtBc_9___VisitorNtB1a_7Visitor10visit_enumNtB6_s3_9___VisitorB2e_9visit_seqpEBj_
FN:30,_RINvXsc_NvXs0_NvXNvNtCs6ewEfsi5izM_10balatro_rs6actions2_1__NtBh_6ActionNtNtCsWuCv7H75Ac_5serde2de11Deserialize11deserializeNtBc_9___VisitorNtB1a_7Visitor10visit_enumNtB6_s4_9___VisitorB2e_9visit_mappEBj_
FN:30,_RINvXsc_NvXs0_NvXNvNtCs6ewEfsi5izM_10balatro_rs6actions2_1__NtBh_6ActionNtNtCsWuCv7H75Ac_5serde2de11Deserialize11deserializeNtBc_9___VisitorNtB1a_7Visitor10visit_enumNtB6_s4_9___VisitorB2e_9visit_seqpEBj_
FN:30,_RINvXsf_NvXs0_NvXNvNtCs6ewEfsi5izM_10balatro_rs6actions2_1__NtBh_6ActionNtNtCsWuCv7H75Ac_5serde2de11Deserialize11deserializeNtBc_9___VisitorNtB1a_7Visitor10visit_enumNtB6_s5_9___VisitorB2e_9visit_mappEBj_
FN:30,_RINvXsf_NvXs0_NvXNvNtCs6ewEfsi5izM_10balatro_rs6actions2_1__NtBh_6ActionNtNtCsWuCv7H75Ac_5serde2de11Deserialize11deserializeNtBc_9___VisitorNtB1a_7Visitor10visit_enumNtB6_s5_9___VisitorB2e_9visit_seqpEBj_
FN:97,_RNvMs0_NtCs6ewEfsi5izM_10balatro_rs6actionNtB5_6Action8___repr__
FN:18,_RNvXNtCs6ewEfsi5izM_10balatro_rs6actionNtB2_13MoveDirectionNtNtCs1p5UDGgVI4d_4core3fmt7Display3fmt
FN:50,_RNvXs_NtCs6ewEfsi5izM_10balatro_rs6actionNtB4_6ActionNtNtCs1p5UDGgVI4d_4core3fmt7Display3fmt
FN:31,_RNvMs10_NtCs6ewEfsi5izM_10balatro_rs6actionNtB6_14Action_CashOut19___pymethod_get__0__
FN:31,_RNvMs15_NtCs6ewEfsi5izM_10balatro_rs6actionNtB6_15Action_BuyJoker21___pymethod_get_slot__
FN:31,_RNvMs15_NtCs6ewEfsi5izM_10balatro_rs6actionNtB6_15Action_BuyJoker25___pymethod_get_joker_id__
FN:31,_RNvMs1B_NtCs6ewEfsi5izM_10balatro_rs6actionNtB6_17Action_SelectCard11___getitem__
FN:31,_RNvMs1C_NtCs6ewEfsi5izM_10balatro_rs6actionNtB6_15Action_MoveCard11___getitem__
FN:31,_RNvMs1F_NtCs6ewEfsi5izM_10balatro_rs6actionNtB6_14Action_CashOut11___getitem__
FN:31,_RNvMs1M_NtCs6ewEfsi5izM_10balatro_rs6actionNtB6_18Action_SelectBlind11___getitem__
FN:31,_RNvMs1a_NtCs6ewEfsi5izM_10balatro_rs6actionNtB6_14Action_BuyPack26___pymethod_get_pack_type__
FN:31,_RNvMs1f_NtCs6ewEfsi5izM_10balatro_rs6actionNtB6_15Action_OpenPack24___pymethod_get_pack_id__
FN:31,_RNvMs1k_NtCs6ewEfsi5izM_10balatro_rs6actionNtB6_21Action_SelectFromPack24___pymethod_get_pack_id__
FN:31,_RNvMs1k_NtCs6ewEfsi5izM_10balatro_rs6actionNtB6_21Action_SelectFromPack29___pymethod_get_option_index__
FN:31,_RNvMs1p_NtCs6ewEfsi5izM_10balatro_rs6actionNtB6_15Action_SkipPack24___pymethod_get_pack_id__
FN:31,_RNvMs1z_NtCs6ewEfsi5izM_10balatro_rs6actionNtB6_18Action_SelectBlind19___pymethod_get__0__
FN:10,_RNvMs8_NtCs6ewEfsi5izM_10balatro_rs6actionNtB5_13MoveDirection38___pymethod___default___pyo3__int______
FN:10,_RNvMs8_NtCs6ewEfsi5izM_10balatro_rs6actionNtB5_13MoveDirection39___pymethod___default___pyo3__repr______
FN:31,_RNvMsG_NtCs6ewEfsi5izM_10balatro_rs6actionNtB5_17Action_SelectCard19___pymethod_get__0__
FN:31,_RNvMsL_NtCs6ewEfsi5izM_10balatro_rs6actionNtB5_15Action_MoveCard19___pymethod_get__0__
FN:31,_RNvMsL_NtCs6ewEfsi5izM_10balatro_rs6actionNtB5_15Action_MoveCard19___pymethod_get__1__
FN:97,_RNvMs0_NtCsfztrlbScSWy_10balatro_rs6actionNtB5_6Action8___repr__
FN:30,_RINvXNvXs0_NvXNvNtCsfztrlbScSWy_10balatro_rs6actions2_1__NtBe_6ActionNtNtCsWuCv7H75Ac_5serde2de11Deserialize11deserializeNtB9_9___VisitorNtB17_7Visitor10visit_enumNtB3_9___VisitorB2b_9visit_seqINtNtCs9DWYcYz1PvJ_10serde_json2de9SeqAccessNtNtB3a_4read7StrReadEEBg_
FN:9,_RINvXs0_NvXNvNtCsfztrlbScSWy_10balatro_rs6actions_1__NtBb_13MoveDirectionNtNtCsWuCv7H75Ac_5serde2de11Deserialize11deserializeNtB6_9___VisitorNtB1b_7Visitor10visit_enumINtNtCs9DWYcYz1PvJ_10serde_json2de13VariantAccessNtNtB2K_4read7StrReadEEBd_
FN:9,_RINvXs0_NvXNvNtCsfztrlbScSWy_10balatro_rs6actions_1__NtBb_13MoveDirectionNtNtCsWuCv7H75Ac_5serde2de11Deserialize11deserializeNtB6_9___VisitorNtB1b_7Visitor10visit_enumINtNtCs9DWYcYz1PvJ_10serde_json2de17UnitVariantAccessNtNtB2K_4read7StrReadEEBd_
FN:30,_RINvXs3_NvXs0_NvXNvNtCsfztrlbScSWy_10balatro_rs6actions2_1__NtBh_6ActionNtNtCsWuCv7H75Ac_5serde2de11Deserialize11deserializeNtBc_9___VisitorNtB1a_7Visitor10visit_enumNtB6_s1_9___VisitorB2e_9visit_mapINtNtCs9DWYcYz1PvJ_10serde_json2de9MapAccessNtNtB3g_4read7StrReadEEBj_
FN:30,_RINvXs3_NvXs0_NvXNvNtCsfztrlbScSWy_10balatro_rs6actions2_1__NtBh_6ActionNtNtCsWuCv7H75Ac_5serde2de11Deserialize11deserializeNtBc_9___VisitorNtB1a_7Visitor10visit_enumNtB6_s1_9___VisitorB2e_9visit_seqINtNtCs9DWYcYz1PvJ_10serde_json2de9SeqAccessNtNtB3g_4read7StrReadEEBj_
FN:30,_RINvXs6_NvXs0_NvXNvNtCsfztrlbScSWy_10balatro_rs6actions2_1__NtBh_6ActionNtNtCsWuCv7H75Ac_5serde2de11Deserialize11deserializeNtBc_9___VisitorNtB1a_7Visitor10visit_enumNtB6_s2_9___VisitorB2e_9visit_mapINtNtCs9DWYcYz1PvJ_10serde_json2de9MapAccessNtNtB3g_4read7StrReadEEBj_
FN:30,_RINvXs6_NvXs0_NvXNvNtCsfztrlbScSWy_10balatro_rs6actions2_1__NtBh_6ActionNtNtCsWuCv7H75Ac_5serde2de11Deserialize11deserializeNtBc_9___VisitorNtB1a_7Visitor10visit_enumNtB6_s2_9___VisitorB2e_9visit_seqINtNtCs9DWYcYz1PvJ_10serde_json2de9SeqAccessNtNtB3g_4read7StrReadEEBj_
FN:30,_RINvXs9_NvXs0_NvXNvNtCsfztrlbScSWy_10balatro_rs6actions2_1__NtBh_6ActionNtNtCsWuCv7H75Ac_5serde2de11Deserialize11deserializeNtBc_9___VisitorNtB1a_7Visitor10visit_enumNtB6_s3_9___VisitorB2e_9visit_mapINtNtCs9DWYcYz1PvJ_10serde_json2de9MapAccessNtNtB3g_4read7StrReadEEBj_
FN:30,_RINvXs9_NvXs0_NvXNvNtCsfztrlbScSWy_10balatro_rs6actions2_1__NtBh_6ActionNtNtCsWuCv7H75Ac_5serde2de11Deserialize11deserializeNtBc_9___VisitorNtB1a_7Visitor10visit_enumNtB6_s3_9___VisitorB2e_9visit_seqINtNtCs9DWYcYz1PvJ_10serde_json2de9SeqAccessNtNtB3g_4read7StrReadEEBj_
FN:30,_RINvXsc_NvXs0_NvXNvNtCsfztrlbScSWy_10balatro_rs6actions2_1__NtBh_6ActionNtNtCsWuCv7H75Ac_5serde2de11Deserialize11deserializeNtBc_9___VisitorNtB1a_7Visitor10visit_enumNtB6_s4_9___VisitorB2e_9visit_mapINtNtCs9DWYcYz1PvJ_10serde_json2de9MapAccessNtNtB3g_4read7StrReadEEBj_
FN:30,_RINvXsc_NvXs0_NvXNvNtCsfztrlbScSWy_10balatro_rs6actions2_1__NtBh_6ActionNtNtCsWuCv7H75Ac_5serde2de11Deserialize11deserializeNtBc_9___VisitorNtB1a_7Visitor10visit_enumNtB6_s4_9___VisitorB2e_9visit_seqINtNtCs9DWYcYz1PvJ_10serde_json2de9SeqAccessNtNtB3g_4read7StrReadEEBj_
FN:30,_RINvXsf_NvXs0_NvXNvNtCsfztrlbScSWy_10balatro_rs6actions2_1__NtBh_6ActionNtNtCsWuCv7H75Ac_5serde2de11Deserialize11deserializeNtBc_9___VisitorNtB1a_7Visitor10visit_enumNtB6_s5_9___VisitorB2e_9visit_mapINtNtCs9DWYcYz1PvJ_10serde_json2de9MapAccessNtNtB3g_4read7StrReadEEBj_
FN:30,_RINvXsf_NvXs0_NvXNvNtCsfztrlbScSWy_10balatro_rs6actions2_1__NtBh_6ActionNtNtCsWuCv7H75Ac_5serde2de11Deserialize11deserializeNtBc_9___VisitorNtB1a_7Visitor10visit_enumNtB6_s5_9___VisitorB2e_9visit_seqINtNtCs9DWYcYz1PvJ_10serde_json2de9SeqAccessNtNtB3g_4read7StrReadEEBj_
FN:31,_RNvMs10_NtCsfztrlbScSWy_10balatro_rs6actionNtB6_14Action_CashOut19___pymethod_get__0__
FN:31,_RNvMs15_NtCsfztrlbScSWy_10balatro_rs6actionNtB6_15Action_BuyJoker21___pymethod_get_slot__
FN:31,_RNvMs15_NtCsfztrlbScSWy_10balatro_rs6actionNtB6_15Action_BuyJoker25___pymethod_get_joker_id__
FN:31,_RNvMs1B_NtCsfztrlbScSWy_10balatro_rs6actionNtB6_17Action_SelectCard11___getitem__
FN:31,_RNvMs1C_NtCsfztrlbScSWy_10balatro_rs6actionNtB6_15Action_MoveCard11___getitem__
FN:31,_RNvMs1F_NtCsfztrlbScSWy_10balatro_rs6actionNtB6_14Action_CashOut11___getitem__
FN:31,_RNvMs1M_NtCsfztrlbScSWy_10balatro_rs6actionNtB6_18Action_SelectBlind11___getitem__
FN:31,_RNvMs1a_NtCsfztrlbScSWy_10balatro_rs6actionNtB6_14Action_BuyPack26___pymethod_get_pack_type__
FN:31,_RNvMs1f_NtCsfztrlbScSWy_10balatro_rs6actionNtB6_15Action_OpenPack24___pymethod_get_pack_id__
FN:31,_RNvMs1k_NtCsfztrlbScSWy_10balatro_rs6actionNtB6_21Action_SelectFromPack24___pymethod_get_pack_id__
FN:31,_RNvMs1k_NtCsfztrlbScSWy_10balatro_rs6actionNtB6_21Action_SelectFromPack29___pymethod_get_option_index__
FN:31,_RNvMs1p_NtCsfztrlbScSWy_10balatro_rs6actionNtB6_15Action_SkipPack24___pymethod_get_pack_id__
FN:31,_RNvMs1z_NtCsfztrlbScSWy_10balatro_rs6actionNtB6_18Action_SelectBlind19___pymethod_get__0__
FN:10,_RNvMs8_NtCsfztrlbScSWy_10balatro_rs6actionNtB5_13MoveDirection38___pymethod___default___pyo3__int______
FN:10,_RNvMs8_NtCsfztrlbScSWy_10balatro_rs6actionNtB5_13MoveDirection39___pymethod___default___pyo3__repr______
FN:31,_RNvMsG_NtCsfztrlbScSWy_10balatro_rs6actionNtB5_17Action_SelectCard19___pymethod_get__0__
FN:31,_RNvMsL_NtCsfztrlbScSWy_10balatro_rs6actionNtB5_15Action_MoveCard19___pymethod_get__0__
FN:31,_RNvMsL_NtCsfztrlbScSWy_10balatro_rs6actionNtB5_15Action_MoveCard19___pymethod_get__1__
FN:18,_RNvXNtCsfztrlbScSWy_10balatro_rs6actionNtB2_13MoveDirectionNtNtCs1p5UDGgVI4d_4core3fmt7Display3fmt
FN:50,_RNvXs_NtCsfztrlbScSWy_10balatro_rs6actionNtB4_6ActionNtNtCs1p5UDGgVI4d_4core3fmt7Display3fmt
FNDA:0,_RINvXNvXs0_NvXNvNtCs6ewEfsi5izM_10balatro_rs6actions2_1__NtBe_6ActionNtNtCsWuCv7H75Ac_5serde2de11Deserialize11deserializeNtB9_9___VisitorNtB17_7Visitor10visit_enumNtB3_9___VisitorB2b_9visit_seqpEBg_
FNDA:0,_RINvXs0_NvXNvNtCs6ewEfsi5izM_10balatro_rs6actions_1__NtBb_13MoveDirectionNtNtCsWuCv7H75Ac_5serde2de11Deserialize11deserializeNtB6_9___VisitorNtB1b_7Visitor10visit_enumpEBd_
FNDA:0,_RINvXs3_NvXs0_NvXNvNtCs6ewEfsi5izM_10balatro_rs6actions2_1__NtBh_6ActionNtNtCsWuCv7H75Ac_5serde2de11Deserialize11deserializeNtBc_9___VisitorNtB1a_7Visitor10visit_enumNtB6_s1_9___VisitorB2e_9visit_mappEBj_
FNDA:0,_RINvXs3_NvXs0_NvXNvNtCs6ewEfsi5izM_10balatro_rs6actions2_1__NtBh_6ActionNtNtCsWuCv7H75Ac_5serde2de11Deserialize11deserializeNtBc_9___VisitorNtB1a_7Visitor10visit_enumNtB6_s1_9___VisitorB2e_9visit_seqpEBj_
FNDA:0,_RINvXs6_NvXs0_NvXNvNtCs6ewEfsi5izM_10balatro_rs6actions2_1__NtBh_6ActionNtNtCsWuCv7H75Ac_5serde2de11Deserialize11deserializeNtBc_9___VisitorNtB1a_7Visitor10visit_enumNtB6_s2_9___VisitorB2e_9visit_mappEBj_
FNDA:0,_RINvXs6_NvXs0_NvXNvNtCs6ewEfsi5izM_10balatro_rs6actions2_1__NtBh_6ActionNtNtCsWuCv7H75Ac_5serde2de11Deserialize11deserializeNtBc_9___VisitorNtB1a_7Visitor10visit_enumNtB6_s2_9___VisitorB2e_9visit_seqpEBj_
FNDA:0,_RINvXs9_NvXs0_NvXNvNtCs6ewEfsi5izM_10balatro_rs6actions2_1__NtBh_6ActionNtNtCsWuCv7H75Ac_5serde2de11Deserialize11deserializeNtBc_9___VisitorNtB1a_7Visitor10visit_enumNtB6_s3_9___VisitorB2e_9visit_mappEBj_
FNDA:0,_RINvXs9_NvXs0_NvXNvNtCs6ewEfsi5izM_10balatro_rs6actions2_1__NtBh_6ActionNtNtCsWuCv7H75Ac_5serde2de11Deserialize11deserializeNtBc_9___VisitorNtB1a_7Visitor10visit_enumNtB6_s3_9___VisitorB2e_9visit_seqpEBj_
FNDA:0,_RINvXsc_NvXs0_NvXNvNtCs6ewEfsi5izM_10balatro_rs6actions2_1__NtBh_6ActionNtNtCsWuCv7H75Ac_5serde2de11Deserialize11deserializeNtBc_9___VisitorNtB1a_7Visitor10visit_enumNtB6_s4_9___VisitorB2e_9visit_mappEBj_
FNDA:0,_RINvXsc_NvXs0_NvXNvNtCs6ewEfsi5izM_10balatro_rs6actions2_1__NtBh_6ActionNtNtCsWuCv7H75Ac_5serde2de11Deserialize11deserializeNtBc_9___VisitorNtB1a_7Visitor10visit_enumNtB6_s4_9___VisitorB2e_9visit_seqpEBj_
FNDA:0,_RINvXsf_NvXs0_NvXNvNtCs6ewEfsi5izM_10balatro_rs6actions2_1__NtBh_6ActionNtNtCsWuCv7H75Ac_5serde2de11Deserialize11deserializeNtBc_9___VisitorNtB1a_7Visitor10visit_enumNtB6_s5_9___VisitorB2e_9visit_mappEBj_
FNDA:0,_RINvXsf_NvXs0_NvXNvNtCs6ewEfsi5izM_10balatro_rs6actions2_1__NtBh_6ActionNtNtCsWuCv7H75Ac_5serde2de11Deserialize11deserializeNtBc_9___VisitorNtB1a_7Visitor10visit_enumNtB6_s5_9___VisitorB2e_9visit_seqpEBj_
FNDA:0,_RNvMs0_NtCs6ewEfsi5izM_10balatro_rs6actionNtB5_6Action8___repr__
FNDA:0,_RNvXNtCs6ewEfsi5izM_10balatro_rs6actionNtB2_13MoveDirectionNtNtCs1p5UDGgVI4d_4core3fmt7Display3fmt
FNDA:0,_RNvXs_NtCs6ewEfsi5izM_10balatro_rs6actionNtB4_6ActionNtNtCs1p5UDGgVI4d_4core3fmt7Display3fmt
FNDA:0,_RNvMs10_NtCs6ewEfsi5izM_10balatro_rs6actionNtB6_14Action_CashOut19___pymethod_get__0__
FNDA:0,_RNvMs15_NtCs6ewEfsi5izM_10balatro_rs6actionNtB6_15Action_BuyJoker21___pymethod_get_slot__
FNDA:0,_RNvMs15_NtCs6ewEfsi5izM_10balatro_rs6actionNtB6_15Action_BuyJoker25___pymethod_get_joker_id__
FNDA:0,_RNvMs1B_NtCs6ewEfsi5izM_10balatro_rs6actionNtB6_17Action_SelectCard11___getitem__
FNDA:0,_RNvMs1C_NtCs6ewEfsi5izM_10balatro_rs6actionNtB6_15Action_MoveCard11___getitem__
FNDA:0,_RNvMs1F_NtCs6ewEfsi5izM_10balatro_rs6actionNtB6_14Action_CashOut11___getitem__
FNDA:0,_RNvMs1M_NtCs6ewEfsi5izM_10balatro_rs6actionNtB6_18Action_SelectBlind11___getitem__
FNDA:0,_RNvMs1a_NtCs6ewEfsi5izM_10balatro_rs6actionNtB6_14Action_BuyPack26___pymethod_get_pack_type__
FNDA:0,_RNvMs1f_NtCs6ewEfsi5izM_10balatro_rs6actionNtB6_15Action_OpenPack24___pymethod_get_pack_id__
FNDA:0,_RNvMs1k_NtCs6ewEfsi5izM_10balatro_rs6actionNtB6_21Action_SelectFromPack24___pymethod_get_pack_id__
FNDA:0,_RNvMs1k_NtCs6ewEfsi5izM_10balatro_rs6actionNtB6_21Action_SelectFromPack29___pymethod_get_option_index__
FNDA:0,_RNvMs1p_NtCs6ewEfsi5izM_10balatro_rs6actionNtB6_15Action_SkipPack24___pymethod_get_pack_id__
FNDA:0,_RNvMs1z_NtCs6ewEfsi5izM_10balatro_rs6actionNtB6_18Action_SelectBlind19___pymethod_get__0__
FNDA:0,_RNvMs8_NtCs6ewEfsi5izM_10balatro_rs6actionNtB5_13MoveDirection38___pymethod___default___pyo3__int______
FNDA:0,_RNvMs8_NtCs6ewEfsi5izM_10balatro_rs6actionNtB5_13MoveDirection39___pymethod___default___pyo3__repr______
FNDA:0,_RNvMsG_NtCs6ewEfsi5izM_10balatro_rs6actionNtB5_17Action_SelectCard19___pymethod_get__0__
FNDA:0,_RNvMsL_NtCs6ewEfsi5izM_10balatro_rs6actionNtB5_15Action_MoveCard19___pymethod_get__0__
FNDA:0,_RNvMsL_NtCs6ewEfsi5izM_10balatro_rs6actionNtB5_15Action_MoveCard19___pymethod_get__1__
FNDA:0,_RNvMs0_NtCsfztrlbScSWy_10balatro_rs6actionNtB5_6Action8___repr__
FNDA:0,_RINvXNvXs0_NvXNvNtCsfztrlbScSWy_10balatro_rs6actions2_1__NtBe_6ActionNtNtCsWuCv7H75Ac_5serde2de11Deserialize11deserializeNtB9_9___VisitorNtB17_7Visitor10visit_enumNtB3_9___VisitorB2b_9visit_seqINtNtCs9DWYcYz1PvJ_10serde_json2de9SeqAccessNtNtB3a_4read7StrReadEEBg_
FNDA:0,_RINvXs0_NvXNvNtCsfztrlbScSWy_10balatro_rs6actions_1__NtBb_13MoveDirectionNtNtCsWuCv7H75Ac_5serde2de11Deserialize11deserializeNtB6_9___VisitorNtB1b_7Visitor10visit_enumINtNtCs9DWYcYz1PvJ_10serde_json2de13VariantAccessNtNtB2K_4read7StrReadEEBd_
FNDA:0,_RINvXs0_NvXNvNtCsfztrlbScSWy_10balatro_rs6actions_1__NtBb_13MoveDirectionNtNtCsWuCv7H75Ac_5serde2de11Deserialize11deserializeNtB6_9___VisitorNtB1b_7Visitor10visit_enumINtNtCs9DWYcYz1PvJ_10serde_json2de17UnitVariantAccessNtNtB2K_4read7StrReadEEBd_
FNDA:0,_RINvXs3_NvXs0_NvXNvNtCsfztrlbScSWy_10balatro_rs6actions2_1__NtBh_6ActionNtNtCsWuCv7H75Ac_5serde2de11Deserialize11deserializeNtBc_9___VisitorNtB1a_7Visitor10visit_enumNtB6_s1_9___VisitorB2e_9visit_mapINtNtCs9DWYcYz1PvJ_10serde_json2de9MapAccessNtNtB3g_4read7StrReadEEBj_
FNDA:0,_RINvXs3_NvXs0_NvXNvNtCsfztrlbScSWy_10balatro_rs6actions2_1__NtBh_6ActionNtNtCsWuCv7H75Ac_5serde2de11Deserialize11deserializeNtBc_9___VisitorNtB1a_7Visitor10visit_enumNtB6_s1_9___VisitorB2e_9visit_seqINtNtCs9DWYcYz1PvJ_10serde_json2de9SeqAccessNtNtB3g_4read7StrReadEEBj_
FNDA:0,_RINvXs6_NvXs0_NvXNvNtCsfztrlbScSWy_10balatro_rs6actions2_1__NtBh_6ActionNtNtCsWuCv7H75Ac_5serde2de11Deserialize11deserializeNtBc_9___VisitorNtB1a_7Visitor10visit_enumNtB6_s2_9___VisitorB2e_9visit_mapINtNtCs9DWYcYz1PvJ_10serde_json2de9MapAccessNtNtB3g_4read7StrReadEEBj_
FNDA:0,_RINvXs6_NvXs0_NvXNvNtCsfztrlbScSWy_10balatro_rs6actions2_1__NtBh_6ActionNtNtCsWuCv7H75Ac_5serde2de11Deserialize11deserializeNtBc_9___VisitorNtB1a_7Visitor10visit_enumNtB6_s2_9___VisitorB2e_9visit_seqINtNtCs9DWYcYz1PvJ_10serde_json2de9SeqAccessNtNtB3g_4read7StrReadEEBj_
FNDA:0,_RINvXs9_NvXs0_NvXNvNtCsfztrlbScSWy_10balatro_rs6actions2_1__NtBh_6ActionNtNtCsWuCv7H75Ac_5serde2de11Deserialize11deserializeNtBc_9___VisitorNtB1a_7Visitor10visit_enumNtB6_s3_9___VisitorB2e_9visit_mapINtNtCs9DWYcYz1PvJ_10serde_json2de9MapAccessNtNtB3g_4read7StrReadEEBj_
FNDA:0,_RINvXs9_NvXs0_NvXNvNtCsfztrlbScSWy_10balatro_rs6actions2_1__NtBh_6ActionNtNtCsWuCv7H75Ac_5serde2de11Deserialize11deserializeNtBc_9___VisitorNtB1a_7Visitor10visit_enumNtB6_s3_9___VisitorB2e_9visit_seqINtNtCs9DWYcYz1PvJ_10serde_json2de9SeqAccessNtNtB3g_4read7StrReadEEBj_
FNDA:0,_RINvXsc_NvXs0_NvXNvNtCsfztrlbScSWy_10balatro_rs6actions2_1__NtBh_6ActionNtNtCsWuCv7H75Ac_5serde2de11Deserialize11deserializeNtBc_9___VisitorNtB1a_7Visitor10visit_enumNtB6_s4_9___VisitorB2e_9visit_mapINtNtCs9DWYcYz1PvJ_10serde_json2de9MapAccessNtNtB3g_4read7StrReadEEBj_
FNDA:0,_RINvXsc_NvXs0_NvXNvNtCsfztrlbScSWy_10balatro_rs6actions2_1__NtBh_6ActionNtNtCsWuCv7H75Ac_5serde2de11Deserialize11deserializeNtBc_9___VisitorNtB1a_7Visitor10visit_enumNtB6_s4_9___VisitorB2e_9visit_seqINtNtCs9DWYcYz1PvJ_10serde_json2de9SeqAccessNtNtB3g_4read7StrReadEEBj_
FNDA:0,_RINvXsf_NvXs0_NvXNvNtCsfztrlbScSWy_10balatro_rs6actions2_1__NtBh_6ActionNtNtCsWuCv7H75Ac_5serde2de11Deserialize11deserializeNtBc_9___VisitorNtB1a_7Visitor10visit_enumNtB6_s5_9___VisitorB2e_9visit_mapINtNtCs9DWYcYz1PvJ_10serde_json2de9MapAccessNtNtB3g_4read7StrReadEEBj_
FNDA:0,_RINvXsf_NvXs0_NvXNvNtCsfztrlbScSWy_10balatro_rs6actions2_1__NtBh_6ActionNtNtCsWuCv7H75Ac_5serde2de11Deserialize11deserializeNtBc_9___VisitorNtB1a_7Visitor10visit_enumNtB6_s5_9___VisitorB2e_9visit_seqINtNtCs9DWYcYz1PvJ_10serde_json2de9SeqAccessNtNtB3g_4read7StrReadEEBj_
FNDA:0,_RNvMs10_NtCsfztrlbScSWy_10balatro_rs6actionNtB6_14Action_CashOut19___pymethod_get__0__
FNDA:0,_RNvMs15_NtCsfztrlbScSWy_10balatro_rs6actionNtB6_15Action_BuyJoker21___pymethod_get_slot__
FNDA:0,_RNvMs15_NtCsfztrlbScSWy_10balatro_rs6actionNtB6_15Action_BuyJoker25___pymethod_get_joker_id__
FNDA:0,_RNvMs1B_NtCsfztrlbScSWy_10balatro_rs6actionNtB6_17Action_SelectCard11___getitem__
FNDA:0,_RNvMs1C_NtCsfztrlbScSWy_10balatro_rs6actionNtB6_15Action_MoveCard11___getitem__
FNDA:0,_RNvMs1F_NtCsfztrlbScSWy_10balatro_rs6actionNtB6_14Action_CashOut11___getitem__
FNDA:0,_RNvMs1M_NtCsfztrlbScSWy_10balatro_rs6actionNtB6_18Action_SelectBlind11___getitem__
FNDA:0,_RNvMs1a_NtCsfztrlbScSWy_10balatro_rs6actionNtB6_14Action_BuyPack26___pymethod_get_pack_type__
FNDA:0,_RNvMs1f_NtCsfztrlbScSWy_10balatro_rs6actionNtB6_15Action_OpenPack24___pymethod_get_pack_id__
FNDA:0,_RNvMs1k_NtCsfztrlbScSWy_10balatro_rs6actionNtB6_21Action_SelectFromPack24___pymethod_get_pack_id__
FNDA:0,_RNvMs1k_NtCsfztrlbScSWy_10balatro_rs6actionNtB6_21Action_SelectFromPack29___pymethod_get_option_index__
FNDA:0,_RNvMs1p_NtCsfztrlbScSWy_10balatro_rs6actionNtB6_15Action_SkipPack24___pymethod_get_pack_id__
FNDA:0,_RNvMs1z_NtCsfztrlbScSWy_10balatro_rs6actionNtB6_18Action_SelectBlind19___pymethod_get__0__
FNDA:0,_RNvMs8_NtCsfztrlbScSWy_10balatro_rs6actionNtB5_13MoveDirection38___pymethod___default___pyo3__int______
FNDA:0,_RNvMs8_NtCsfztrlbScSWy_10balatro_rs6actionNtB5_13MoveDirection39___pymethod___default___pyo3__repr______
FNDA:0,_RNvMsG_NtCsfztrlbScSWy_10balatro_rs6actionNtB5_17Action_SelectCard19___pymethod_get__0__
FNDA:0,_RNvMsL_NtCsfztrlbScSWy_10balatro_rs6actionNtB5_15Action_MoveCard19___pymethod_get__0__
FNDA:0,_RNvMsL_NtCsfztrlbScSWy_10balatro_rs6actionNtB5_15Action_MoveCard19___pymethod_get__1__
FNDA:0,_RNvXNtCsfztrlbScSWy_10balatro_rs6actionNtB2_13MoveDirectionNtNtCs1p5UDGgVI4d_4core3fmt7Display3fmt
FNDA:0,_RNvXs_NtCsfztrlbScSWy_10balatro_rs6actionNtB4_6ActionNtNtCs1p5UDGgVI4d_4core3fmt7Display3fmt
FNF:7
FNH:0
DA:9,0
DA:10,0
DA:18,0
DA:19,0
DA:21,0
DA:24,0
DA:27,0
DA:30,0
DA:31,0
DA:50,0
DA:51,0
DA:52,0
DA:53,0
DA:56,0
DA:59,0
DA:61,0
DA:62,0
DA:64,0
DA:65,0
DA:67,0
DA:68,0
DA:70,0
DA:71,0
DA:73,0
DA:74,0
DA:77,0
DA:78,0
DA:80,0
DA:82,0
DA:83,0
DA:86,0
DA:88,0
DA:89,0
DA:92,0
DA:97,0
DA:98,0
DA:99,0
BRF:0
BRH:0
LF:37
LH:0
end_of_record
SF:/home/spduncan/balatro-rs-ws/fix-issue-184-cicd-pipeline/core/src/ante.rs
FN:5,_RINvXs0_NvXNvNtCs6ewEfsi5izM_10balatro_rs4antes_1__NtBb_4AnteNtNtCsWuCv7H75Ac_5serde2de11Deserialize11deserializeNtB6_9___VisitorNtBZ_7Visitor10visit_enumpEBd_
FN:22,_RNvMNtCs6ewEfsi5izM_10balatro_rs4anteNtB2_4Ante4base
FN:35,_RNvMNtCs6ewEfsi5izM_10balatro_rs4anteNtB2_4Ante4next
FN:56,_RNvXs_NtCs6ewEfsi5izM_10balatro_rs4anteNtB4_4AnteINtNtCs1p5UDGgVI4d_4core7convert7TryFromjE8try_from
FN:5,_RINvXs0_NvXNvNtCsfztrlbScSWy_10balatro_rs4antes_1__NtBb_4AnteNtNtCsWuCv7H75Ac_5serde2de11Deserialize11deserializeNtB6_9___VisitorNtBZ_7Visitor10visit_enumINtNtCs9DWYcYz1PvJ_10serde_json2de13VariantAccessNtNtB2x_4read7StrReadEEBd_
FN:5,_RINvXs0_NvXNvNtCsfztrlbScSWy_10balatro_rs4antes_1__NtBb_4AnteNtNtCsWuCv7H75Ac_5serde2de11Deserialize11deserializeNtB6_9___VisitorNtBZ_7Visitor10visit_enumINtNtCs9DWYcYz1PvJ_10serde_json2de17UnitVariantAccessNtNtB2x_4read7StrReadEEBd_
FN:22,_RNvMNtCsfztrlbScSWy_10balatro_rs4anteNtB2_4Ante4base
FN:35,_RNvMNtCsfztrlbScSWy_10balatro_rs4anteNtB2_4Ante4next
FN:56,_RNvXs_NtCsfztrlbScSWy_10balatro_rs4anteNtB4_4AnteINtNtCs1p5UDGgVI4d_4core7convert7TryFromjE8try_from
FNDA:0,_RINvXs0_NvXNvNtCs6ewEfsi5izM_10balatro_rs4antes_1__NtBb_4AnteNtNtCsWuCv7H75Ac_5serde2de11Deserialize11deserializeNtB6_9___VisitorNtBZ_7Visitor10visit_enumpEBd_
FNDA:14,_RNvMNtCs6ewEfsi5izM_10balatro_rs4anteNtB2_4Ante4base
FNDA:0,_RNvMNtCs6ewEfsi5izM_10balatro_rs4anteNtB2_4Ante4next
FNDA:118,_RNvXs_NtCs6ewEfsi5izM_10balatro_rs4anteNtB4_4AnteINtNtCs1p5UDGgVI4d_4core7convert7TryFromjE8try_from
FNDA:0,_RINvXs0_NvXNvNtCsfztrlbScSWy_10balatro_rs4antes_1__NtBb_4AnteNtNtCsWuCv7H75Ac_5serde2de11Deserialize11deserializeNtB6_9___VisitorNtBZ_7Visitor10visit_enumINtNtCs9DWYcYz1PvJ_10serde_json2de13VariantAccessNtNtB2x_4read7StrReadEEBd_
FNDA:0,_RINvXs0_NvXNvNtCsfztrlbScSWy_10balatro_rs4antes_1__NtBb_4AnteNtNtCsWuCv7H75Ac_5serde2de11Deserialize11deserializeNtB6_9___VisitorNtBZ_7Visitor10visit_enumINtNtCs9DWYcYz1PvJ_10serde_json2de17UnitVariantAccessNtNtB2x_4read7StrReadEEBd_
FNDA:8,_RNvMNtCsfztrlbScSWy_10balatro_rs4anteNtB2_4Ante4base
FNDA:0,_RNvMNtCsfztrlbScSWy_10balatro_rs4anteNtB2_4Ante4next
FNDA:108,_RNvXs_NtCsfztrlbScSWy_10balatro_rs4anteNtB4_4AnteINtNtCs1p5UDGgVI4d_4core7convert7TryFromjE8try_from
FNF:4
FNH:2
DA:5,0
DA:22,22
DA:23,22
DA:24,0
DA:25,22
DA:26,0
DA:27,0
DA:28,0
DA:29,0
DA:30,0
DA:31,0
DA:32,0
DA:34,22
DA:35,0
DA:36,0
DA:37,0
DA:38,0
DA:39,0
DA:40,0
DA:41,0
DA:42,0
DA:43,0
DA:44,0
DA:45,0
DA:46,0
DA:47,0
DA:48,0
DA:50,0
DA:56,226
DA:57,226
DA:58,113
DA:59,0
DA:60,0
DA:61,0
DA:62,0
DA:63,0
DA:64,0
DA:65,113
DA:66,0
DA:68,226
BRF:0
BRH:0
LF:40
LH:9
end_of_record
SF:/home/spduncan/balatro-rs-ws/fix-issue-184-cicd-pipeline/core/src/available.rs
FN:8,_RINvXs0_NvXNvNtCs6ewEfsi5izM_10balatro_rs9availables_1__NtBb_9AvailableNtNtCsWuCv7H75Ac_5serde2de11Deserialize11deserializeNtB6_9___VisitorNtB19_7Visitor9visit_mappEBd_
FN:8,_RINvXs0_NvXNvNtCs6ewEfsi5izM_10balatro_rs9availables_1__NtBb_9AvailableNtNtCsWuCv7H75Ac_5serde2de11Deserialize11deserializeNtB6_9___VisitorNtB19_7Visitor9visit_seqpEBd_
FN:17,_RNCNvMNtCs6ewEfsi5izM_10balatro_rs9availableNtB4_9Available11select_card0B6_
FN:36,_RNCNvMNtCs6ewEfsi5izM_10balatro_rs9availableNtB4_9Available12not_selected0B6_
FN:50,_RNCNvMNtCs6ewEfsi5izM_10balatro_rs9availableNtB4_9Available15remove_selected0B6_
FN:59,_RNCNvMNtCs6ewEfsi5izM_10balatro_rs9availableNtB4_9Available9move_card0B6_
FN:16,_RNvMNtCs6ewEfsi5izM_10balatro_rs9availableNtB2_9Available11select_card
FN:33,_RNvMNtCs6ewEfsi5izM_10balatro_rs9availableNtB2_9Available12not_selected
FN:41,_RNvMNtCs6ewEfsi5izM_10balatro_rs9availableNtB2_9Available15card_from_index
FN:48,_RNvMNtCs6ewEfsi5izM_10balatro_rs9availableNtB2_9Available15remove_selected
FN:95,_RNvMNtCs6ewEfsi5izM_10balatro_rs9availableNtB2_9Available18cards_and_selected
FN:91,_RNvMNtCs6ewEfsi5izM_10balatro_rs9availableNtB2_9Available5cards
FN:81,_RNvMNtCs6ewEfsi5izM_10balatro_rs9availableNtB2_9Available5empty
FN:85,_RNvMNtCs6ewEfsi5izM_10balatro_rs9availableNtB2_9Available6extend
FN:25,_RNvMNtCs6ewEfsi5izM_10balatro_rs9availableNtB2_9Available8selected
FN:54,_RNvMNtCs6ewEfsi5izM_10balatro_rs9availableNtB2_9Available9move_card
FN:135,_RNvNtNtCs6ewEfsi5izM_10balatro_rs9available5testss_14test_move_card
FN:106,_RNvNtNtCs6ewEfsi5izM_10balatro_rs9available5testss_16test_select_card
FN:123,_RNvNtNtCs6ewEfsi5izM_10balatro_rs9available5testss_20test_card_from_index
FN:8,_RINvXs0_NvXNvNtCsfztrlbScSWy_10balatro_rs9availables_1__NtBb_9AvailableNtNtCsWuCv7H75Ac_5serde2de11Deserialize11deserializeNtB6_9___VisitorNtB19_7Visitor9visit_mapINtNtCs9DWYcYz1PvJ_10serde_json2de9MapAccessNtNtB2G_4read7StrReadEEBd_
FN:8,_RINvXs0_NvXNvNtCsfztrlbScSWy_10balatro_rs9availables_1__NtBb_9AvailableNtNtCsWuCv7H75Ac_5serde2de11Deserialize11deserializeNtB6_9___VisitorNtB19_7Visitor9visit_seqINtNtCs9DWYcYz1PvJ_10serde_json2de9SeqAccessNtNtB2G_4read7StrReadEEBd_
FN:17,_RNCNvMNtCsfztrlbScSWy_10balatro_rs9availableNtB4_9Available11select_card0B6_
FN:36,_RNCNvMNtCsfztrlbScSWy_10balatro_rs9availableNtB4_9Available12not_selected0B6_
FN:50,_RNCNvMNtCsfztrlbScSWy_10balatro_rs9availableNtB4_9Available15remove_selected0B6_
FN:59,_RNCNvMNtCsfztrlbScSWy_10balatro_rs9availableNtB4_9Available9move_card0B6_
FN:16,_RNvMNtCsfztrlbScSWy_10balatro_rs9availableNtB2_9Available11select_card
FN:33,_RNvMNtCsfztrlbScSWy_10balatro_rs9availableNtB2_9Available12not_selected
FN:41,_RNvMNtCsfztrlbScSWy_10balatro_rs9availableNtB2_9Available15card_from_index
FN:48,_RNvMNtCsfztrlbScSWy_10balatro_rs9availableNtB2_9Available15remove_selected
FN:95,_RNvMNtCsfztrlbScSWy_10balatro_rs9availableNtB2_9Available18cards_and_selected
FN:91,_RNvMNtCsfztrlbScSWy_10balatro_rs9availableNtB2_9Available5cards
FN:81,_RNvMNtCsfztrlbScSWy_10balatro_rs9availableNtB2_9Available5empty
FN:85,_RNvMNtCsfztrlbScSWy_10balatro_rs9availableNtB2_9Available6extend
FN:25,_RNvMNtCsfztrlbScSWy_10balatro_rs9availableNtB2_9Available8selected
FN:54,_RNvMNtCsfztrlbScSWy_10balatro_rs9availableNtB2_9Available9move_card
FNDA:0,_RINvXs0_NvXNvNtCs6ewEfsi5izM_10balatro_rs9availables_1__NtBb_9AvailableNtNtCsWuCv7H75Ac_5serde2de11Deserialize11deserializeNtB6_9___VisitorNtB19_7Visitor9visit_mappEBd_
FNDA:0,_RINvXs0_NvXNvNtCs6ewEfsi5izM_10balatro_rs9availables_1__NtBb_9AvailableNtNtCsWuCv7H75Ac_5serde2de11Deserialize11deserializeNtB6_9___VisitorNtB19_7Visitor9visit_seqpEBd_
FNDA:291,_RNCNvMNtCs6ewEfsi5izM_10balatro_rs9availableNtB4_9Available11select_card0B6_
FNDA:682,_RNCNvMNtCs6ewEfsi5izM_10balatro_rs9availableNtB4_9Available12not_selected0B6_
FNDA:152,_RNCNvMNtCs6ewEfsi5izM_10balatro_rs9availableNtB4_9Available15remove_selected0B6_
FNDA:1106,_RNCNvMNtCs6ewEfsi5izM_10balatro_rs9availableNtB4_9Available9move_card0B6_
FNDA:82,_RNvMNtCs6ewEfsi5izM_10balatro_rs9availableNtB2_9Available11select_card
FNDA:86,_RNvMNtCs6ewEfsi5izM_10balatro_rs9availableNtB2_9Available12not_selected
FNDA:102,_RNvMNtCs6ewEfsi5izM_10balatro_rs9availableNtB2_9Available15card_from_index
FNDA:19,_RNvMNtCs6ewEfsi5izM_10balatro_rs9availableNtB2_9Available15remove_selected
FNDA:97,_RNvMNtCs6ewEfsi5izM_10balatro_rs9availableNtB2_9Available18cards_and_selected
FNDA:650,_RNvMNtCs6ewEfsi5izM_10balatro_rs9availableNtB2_9Available5cards
FNDA:25,_RNvMNtCs6ewEfsi5izM_10balatro_rs9availableNtB2_9Available5empty
FNDA:52,_RNvMNtCs6ewEfsi5izM_10balatro_rs9availableNtB2_9Available6extend
FNDA:818,_RNvMNtCs6ewEfsi5izM_10balatro_rs9availableNtB2_9Available8selected
FNDA:237,_RNvMNtCs6ewEfsi5izM_10balatro_rs9availableNtB2_9Available9move_card
FNDA:1,_RNvNtNtCs6ewEfsi5izM_10balatro_rs9available5testss_14test_move_card
FNDA:1,_RNvNtNtCs6ewEfsi5izM_10balatro_rs9available5testss_16test_select_card
FNDA:1,_RNvNtNtCs6ewEfsi5izM_10balatro_rs9available5testss_20test_card_from_index
FNDA:0,_RINvXs0_NvXNvNtCsfztrlbScSWy_10balatro_rs9availables_1__NtBb_9AvailableNtNtCsWuCv7H75Ac_5serde2de11Deserialize11deserializeNtB6_9___VisitorNtB19_7Visitor9visit_mapINtNtCs9DWYcYz1PvJ_10serde_json2de9MapAccessNtNtB2G_4read7StrReadEEBd_
FNDA:0,_RINvXs0_NvXNvNtCsfztrlbScSWy_10balatro_rs9availables_1__NtBb_9AvailableNtNtCsWuCv7H75Ac_5serde2de11Deserialize11deserializeNtB6_9___VisitorNtB19_7Visitor9visit_seqINtNtCs9DWYcYz1PvJ_10serde_json2de9SeqAccessNtNtB2G_4read7StrReadEEBd_
FNDA:153,_RNCNvMNtCsfztrlbScSWy_10balatro_rs9availableNtB4_9Available11select_card0B6_
FNDA:448,_RNCNvMNtCsfztrlbScSWy_10balatro_rs9availableNtB4_9Available12not_selected0B6_
FNDA:104,_RNCNvMNtCsfztrlbScSWy_10balatro_rs9availableNtB4_9Available15remove_selected0B6_
FNDA:382,_RNCNvMNtCsfztrlbScSWy_10balatro_rs9availableNtB4_9Available9move_card0B6_
FNDA:31,_RNvMNtCsfztrlbScSWy_10balatro_rs9availableNtB2_9Available11select_card
FNDA:56,_RNvMNtCsfztrlbScSWy_10balatro_rs9availableNtB2_9Available12not_selected
FNDA:60,_RNvMNtCsfztrlbScSWy_10balatro_rs9availableNtB2_9Available15card_from_index
FNDA:13,_RNvMNtCsfztrlbScSWy_10balatro_rs9availableNtB2_9Available15remove_selected
FNDA:53,_RNvMNtCsfztrlbScSWy_10balatro_rs9availableNtB2_9Available18cards_and_selected
FNDA:280,_RNvMNtCsfztrlbScSWy_10balatro_rs9availableNtB2_9Available5cards
FNDA:27,_RNvMNtCsfztrlbScSWy_10balatro_rs9availableNtB2_9Available5empty
FNDA:40,_RNvMNtCsfztrlbScSWy_10balatro_rs9availableNtB2_9Available6extend
FNDA:375,_RNvMNtCsfztrlbScSWy_10balatro_rs9availableNtB2_9Available8selected
FNDA:82,_RNvMNtCsfztrlbScSWy_10balatro_rs9availableNtB2_9Available9move_card
FNF:18
FNH:17
DA:8,0
DA:16,113
DA:17,444
DA:18,113
DA:19,113
DA:21,0
DA:23,113
DA:25,1193
DA:26,1193
DA:27,1193
DA:28,1193
DA:29,1193
DA:30,1193
DA:31,1193
DA:33,142
DA:34,142
DA:35,142
DA:36,1130
DA:37,142
DA:38,142
DA:39,142
DA:41,162
DA:42,162
DA:43,1
DA:44,161
DA:45,161
DA:46,162
DA:48,32
DA:49,32
DA:50,256
DA:51,32
DA:52,32
DA:54,319
DA:55,319
DA:56,319
DA:57,319
DA:58,319
DA:59,1488
DA:60,319
DA:62,157
DA:63,0
DA:64,157
DA:65,157
DA:66,157
DA:69,162
DA:70,1
DA:71,161
DA:72,161
DA:73,161
DA:77,0
DA:79,319
DA:81,52
DA:82,52
DA:83,52
DA:85,92
DA:86,613
DA:87,521
DA:88,521
DA:89,92
DA:91,930
DA:92,930
DA:93,930
DA:95,150
DA:96,150
DA:97,150
DA:106,1
DA:107,1
DA:108,1
DA:109,1
DA:110,1
DA:111,1
DA:113,1
DA:114,1
DA:116,1
DA:117,1
DA:118,1
DA:119,1
DA:120,1
DA:123,1
DA:124,1
DA:125,1
DA:126,1
DA:127,1
DA:129,1
DA:130,1
DA:131,1
DA:132,1
DA:135,1
DA:136,1
DA:137,1
DA:138,1
DA:139,1
DA:140,1
DA:141,1
DA:143,1
DA:144,1
DA:145,1
DA:147,1
DA:148,1
DA:149,1
BRF:0
BRH:0
LF:104
LH:100
end_of_record
SF:/home/spduncan/balatro-rs-ws/fix-issue-184-cicd-pipeline/core/src/basic_chips_jokers.rs
FN:69,_RNvMs2_NtCs6ewEfsi5izM_10balatro_rs18basic_chips_jokersNtB5_9BullJoker3new
FN:116,_RNvMs5_NtCs6ewEfsi5izM_10balatro_rs18basic_chips_jokersNtB5_10StoneJoker3new
FN:161,_RNvMs8_NtCs6ewEfsi5izM_10balatro_rs18basic_chips_jokersNtB5_14ScaryFaceJoker3new
FN:18,_RNvMs_NtCs6ewEfsi5izM_10balatro_rs18basic_chips_jokersNtB4_11BannerJoker3new
FN:210,_RNvMsb_NtCs6ewEfsi5izM_10balatro_rs18basic_chips_jokersNtB5_9BlueJoker3new
FN:12,_RNvXNtCs6ewEfsi5izM_10balatro_rs18basic_chips_jokersNtB2_11BannerJokerNtNtCs1p5UDGgVI4d_4core7default7Default7default
FN:34,_RNvXs0_NtCs6ewEfsi5izM_10balatro_rs18basic_chips_jokersNtB5_11BannerJokerNtNtB7_5joker5Joker11description
FN:46,_RNvXs0_NtCs6ewEfsi5izM_10balatro_rs18basic_chips_jokersNtB5_11BannerJokerNtNtB7_5joker5Joker14on_hand_played
FN:26,_RNvXs0_NtCs6ewEfsi5izM_10balatro_rs18basic_chips_jokersNtB5_11BannerJokerNtNtB7_5joker5Joker2id
FN:42,_RNvXs0_NtCs6ewEfsi5izM_10balatro_rs18basic_chips_jokersNtB5_11BannerJokerNtNtB7_5joker5Joker4cost
FN:30,_RNvXs0_NtCs6ewEfsi5izM_10balatro_rs18basic_chips_jokersNtB5_11BannerJokerNtNtB7_5joker5Joker4name
FN:38,_RNvXs0_NtCs6ewEfsi5izM_10balatro_rs18basic_chips_jokersNtB5_11BannerJokerNtNtB7_5joker5Joker6rarity
FN:63,_RNvXs1_NtCs6ewEfsi5izM_10balatro_rs18basic_chips_jokersNtB5_9BullJokerNtNtCs1p5UDGgVI4d_4core7default7Default7default
FN:85,_RNvXs3_NtCs6ewEfsi5izM_10balatro_rs18basic_chips_jokersNtB5_9BullJokerNtNtB7_5joker5Joker11description
FN:97,_RNvXs3_NtCs6ewEfsi5izM_10balatro_rs18basic_chips_jokersNtB5_9BullJokerNtNtB7_5joker5Joker14on_hand_played
FN:77,_RNvXs3_NtCs6ewEfsi5izM_10balatro_rs18basic_chips_jokersNtB5_9BullJokerNtNtB7_5joker5Joker2id
FN:93,_RNvXs3_NtCs6ewEfsi5izM_10balatro_rs18basic_chips_jokersNtB5_9BullJokerNtNtB7_5joker5Joker4cost
FN:81,_RNvXs3_NtCs6ewEfsi5izM_10balatro_rs18basic_chips_jokersNtB5_9BullJokerNtNtB7_5joker5Joker4name
FN:89,_RNvXs3_NtCs6ewEfsi5izM_10balatro_rs18basic_chips_jokersNtB5_9BullJokerNtNtB7_5joker5Joker6rarity
FN:110,_RNvXs4_NtCs6ewEfsi5izM_10balatro_rs18basic_chips_jokersNtB5_10StoneJokerNtNtCs1p5UDGgVI4d_4core7default7Default7default
FN:130,_RNvXs6_NtCs6ewEfsi5izM_10balatro_rs18basic_chips_jokersNtB5_10StoneJokerNtNtB7_5joker5Joker11description
FN:142,_RNvXs6_NtCs6ewEfsi5izM_10balatro_rs18basic_chips_jokersNtB5_10StoneJokerNtNtB7_5joker5Joker14on_hand_played
FN:122,_RNvXs6_NtCs6ewEfsi5izM_10balatro_rs18basic_chips_jokersNtB5_10StoneJokerNtNtB7_5joker5Joker2id
FN:138,_RNvXs6_NtCs6ewEfsi5izM_10balatro_rs18basic_chips_jokersNtB5_10StoneJokerNtNtB7_5joker5Joker4cost
FN:126,_RNvXs6_NtCs6ewEfsi5izM_10balatro_rs18basic_chips_jokersNtB5_10StoneJokerNtNtB7_5joker5Joker4name
FN:134,_RNvXs6_NtCs6ewEfsi5izM_10balatro_rs18basic_chips_jokersNtB5_10StoneJokerNtNtB7_5joker5Joker6rarity
FN:155,_RNvXs7_NtCs6ewEfsi5izM_10balatro_rs18basic_chips_jokersNtB5_14ScaryFaceJokerNtNtCs1p5UDGgVI4d_4core7default7Default7default
FN:177,_RNvXs9_NtCs6ewEfsi5izM_10balatro_rs18basic_chips_jokersNtB5_14ScaryFaceJokerNtNtB7_5joker5Joker11description
FN:189,_RNvXs9_NtCs6ewEfsi5izM_10balatro_rs18basic_chips_jokersNtB5_14ScaryFaceJokerNtNtB7_5joker5Joker14on_card_scored
FN:169,_RNvXs9_NtCs6ewEfsi5izM_10balatro_rs18basic_chips_jokersNtB5_14ScaryFaceJokerNtNtB7_5joker5Joker2id
FN:185,_RNvXs9_NtCs6ewEfsi5izM_10balatro_rs18basic_chips_jokersNtB5_14ScaryFaceJokerNtNtB7_5joker5Joker4cost
FN:173,_RNvXs9_NtCs6ewEfsi5izM_10balatro_rs18basic_chips_jokersNtB5_14ScaryFaceJokerNtNtB7_5joker5Joker4name
FN:181,_RNvXs9_NtCs6ewEfsi5izM_10balatro_rs18basic_chips_jokersNtB5_14ScaryFaceJokerNtNtB7_5joker5Joker6rarity
FN:204,_RNvXsa_NtCs6ewEfsi5izM_10balatro_rs18basic_chips_jokersNtB5_9BlueJokerNtNtCs1p5UDGgVI4d_4core7default7Default7default
FN:226,_RNvXsc_NtCs6ewEfsi5izM_10balatro_rs18basic_chips_jokersNtB5_9BlueJokerNtNtB7_5joker5Joker11description
FN:238,_RNvXsc_NtCs6ewEfsi5izM_10balatro_rs18basic_chips_jokersNtB5_9BlueJokerNtNtB7_5joker5Joker14on_hand_played
FN:218,_RNvXsc_NtCs6ewEfsi5izM_10balatro_rs18basic_chips_jokersNtB5_9BlueJokerNtNtB7_5joker5Joker2id
FN:234,_RNvXsc_NtCs6ewEfsi5izM_10balatro_rs18basic_chips_jokersNtB5_9BlueJokerNtNtB7_5joker5Joker4cost
FN:222,_RNvXsc_NtCs6ewEfsi5izM_10balatro_rs18basic_chips_jokersNtB5_9BlueJokerNtNtB7_5joker5Joker4name
FN:230,_RNvXsc_NtCs6ewEfsi5izM_10balatro_rs18basic_chips_jokersNtB5_9BlueJokerNtNtB7_5joker5Joker6rarity
FN:69,_RNvMs2_NtCsfztrlbScSWy_10balatro_rs18basic_chips_jokersNtB5_9BullJoker3new
FN:116,_RNvMs5_NtCsfztrlbScSWy_10balatro_rs18basic_chips_jokersNtB5_10StoneJoker3new
FN:161,_RNvMs8_NtCsfztrlbScSWy_10balatro_rs18basic_chips_jokersNtB5_14ScaryFaceJoker3new
FN:18,_RNvMs_NtCsfztrlbScSWy_10balatro_rs18basic_chips_jokersNtB4_11BannerJoker3new
FN:210,_RNvMsb_NtCsfztrlbScSWy_10balatro_rs18basic_chips_jokersNtB5_9BlueJoker3new
FN:12,_RNvXNtCsfztrlbScSWy_10balatro_rs18basic_chips_jokersNtB2_11BannerJokerNtNtCs1p5UDGgVI4d_4core7default7Default7default
FN:34,_RNvXs0_NtCsfztrlbScSWy_10balatro_rs18basic_chips_jokersNtB5_11BannerJokerNtNtB7_5joker5Joker11description
FN:46,_RNvXs0_NtCsfztrlbScSWy_10balatro_rs18basic_chips_jokersNtB5_11BannerJokerNtNtB7_5joker5Joker14on_hand_played
FN:26,_RNvXs0_NtCsfztrlbScSWy_10balatro_rs18basic_chips_jokersNtB5_11BannerJokerNtNtB7_5joker5Joker2id
FN:42,_RNvXs0_NtCsfztrlbScSWy_10balatro_rs18basic_chips_jokersNtB5_11BannerJokerNtNtB7_5joker5Joker4cost
FN:30,_RNvXs0_NtCsfztrlbScSWy_10balatro_rs18basic_chips_jokersNtB5_11BannerJokerNtNtB7_5joker5Joker4name
FN:38,_RNvXs0_NtCsfztrlbScSWy_10balatro_rs18basic_chips_jokersNtB5_11BannerJokerNtNtB7_5joker5Joker6rarity
FN:63,_RNvXs1_NtCsfztrlbScSWy_10balatro_rs18basic_chips_jokersNtB5_9BullJokerNtNtCs1p5UDGgVI4d_4core7default7Default7default
FN:85,_RNvXs3_NtCsfztrlbScSWy_10balatro_rs18basic_chips_jokersNtB5_9BullJokerNtNtB7_5joker5Joker11description
FN:97,_RNvXs3_NtCsfztrlbScSWy_10balatro_rs18basic_chips_jokersNtB5_9BullJokerNtNtB7_5joker5Joker14on_hand_played
FN:77,_RNvXs3_NtCsfztrlbScSWy_10balatro_rs18basic_chips_jokersNtB5_9BullJokerNtNtB7_5joker5Joker2id
FN:93,_RNvXs3_NtCsfztrlbScSWy_10balatro_rs18basic_chips_jokersNtB5_9BullJokerNtNtB7_5joker5Joker4cost
FN:81,_RNvXs3_NtCsfztrlbScSWy_10balatro_rs18basic_chips_jokersNtB5_9BullJokerNtNtB7_5joker5Joker4name
FN:89,_RNvXs3_NtCsfztrlbScSWy_10balatro_rs18basic_chips_jokersNtB5_9BullJokerNtNtB7_5joker5Joker6rarity
FN:110,_RNvXs4_NtCsfztrlbScSWy_10balatro_rs18basic_chips_jokersNtB5_10StoneJokerNtNtCs1p5UDGgVI4d_4core7default7Default7default
FN:130,_RNvXs6_NtCsfztrlbScSWy_10balatro_rs18basic_chips_jokersNtB5_10StoneJokerNtNtB7_5joker5Joker11description
FN:142,_RNvXs6_NtCsfztrlbScSWy_10balatro_rs18basic_chips_jokersNtB5_10StoneJokerNtNtB7_5joker5Joker14on_hand_played
FN:122,_RNvXs6_NtCsfztrlbScSWy_10balatro_rs18basic_chips_jokersNtB5_10StoneJokerNtNtB7_5joker5Joker2id
FN:138,_RNvXs6_NtCsfztrlbScSWy_10balatro_rs18basic_chips_jokersNtB5_10StoneJokerNtNtB7_5joker5Joker4cost
FN:126,_RNvXs6_NtCsfztrlbScSWy_10balatro_rs18basic_chips_jokersNtB5_10StoneJokerNtNtB7_5joker5Joker4name
FN:134,_RNvXs6_NtCsfztrlbScSWy_10balatro_rs18basic_chips_jokersNtB5_10StoneJokerNtNtB7_5joker5Joker6rarity
FN:155,_RNvXs7_NtCsfztrlbScSWy_10balatro_rs18basic_chips_jokersNtB5_14ScaryFaceJokerNtNtCs1p5UDGgVI4d_4core7default7Default7default
FN:177,_RNvXs9_NtCsfztrlbScSWy_10balatro_rs18basic_chips_jokersNtB5_14ScaryFaceJokerNtNtB7_5joker5Joker11description
FN:189,_RNvXs9_NtCsfztrlbScSWy_10balatro_rs18basic_chips_jokersNtB5_14ScaryFaceJokerNtNtB7_5joker5Joker14on_card_scored
FN:169,_RNvXs9_NtCsfztrlbScSWy_10balatro_rs18basic_chips_jokersNtB5_14ScaryFaceJokerNtNtB7_5joker5Joker2id
FN:185,_RNvXs9_NtCsfztrlbScSWy_10balatro_rs18basic_chips_jokersNtB5_14ScaryFaceJokerNtNtB7_5joker5Joker4cost
FN:173,_RNvXs9_NtCsfztrlbScSWy_10balatro_rs18basic_chips_jokersNtB5_14ScaryFaceJokerNtNtB7_5joker5Joker4name
FN:181,_RNvXs9_NtCsfztrlbScSWy_10balatro_rs18basic_chips_jokersNtB5_14ScaryFaceJokerNtNtB7_5joker5Joker6rarity
FN:204,_RNvXsa_NtCsfztrlbScSWy_10balatro_rs18basic_chips_jokersNtB5_9BlueJokerNtNtCs1p5UDGgVI4d_4core7default7Default7default
FN:226,_RNvXsc_NtCsfztrlbScSWy_10balatro_rs18basic_chips_jokersNtB5_9BlueJokerNtNtB7_5joker5Joker11description
FN:238,_RNvXsc_NtCsfztrlbScSWy_10balatro_rs18basic_chips_jokersNtB5_9BlueJokerNtNtB7_5joker5Joker14on_hand_played
FN:218,_RNvXsc_NtCsfztrlbScSWy_10balatro_rs18basic_chips_jokersNtB5_9BlueJokerNtNtB7_5joker5Joker2id
FN:234,_RNvXsc_NtCsfztrlbScSWy_10balatro_rs18basic_chips_jokersNtB5_9BlueJokerNtNtB7_5joker5Joker4cost
FN:222,_RNvXsc_NtCsfztrlbScSWy_10balatro_rs18basic_chips_jokersNtB5_9BlueJokerNtNtB7_5joker5Joker4name
FN:230,_RNvXsc_NtCsfztrlbScSWy_10balatro_rs18basic_chips_jokersNtB5_9BlueJokerNtNtB7_5joker5Joker6rarity
FNDA:0,_RNvMs2_NtCs6ewEfsi5izM_10balatro_rs18basic_chips_jokersNtB5_9BullJoker3new
FNDA:0,_RNvMs5_NtCs6ewEfsi5izM_10balatro_rs18basic_chips_jokersNtB5_10StoneJoker3new
FNDA:0,_RNvMs8_NtCs6ewEfsi5izM_10balatro_rs18basic_chips_jokersNtB5_14ScaryFaceJoker3new
FNDA:0,_RNvMs_NtCs6ewEfsi5izM_10balatro_rs18basic_chips_jokersNtB4_11BannerJoker3new
FNDA:0,_RNvMsb_NtCs6ewEfsi5izM_10balatro_rs18basic_chips_jokersNtB5_9BlueJoker3new
FNDA:0,_RNvXNtCs6ewEfsi5izM_10balatro_rs18basic_chips_jokersNtB2_11BannerJokerNtNtCs1p5UDGgVI4d_4core7default7Default7default
FNDA:0,_RNvXs0_NtCs6ewEfsi5izM_10balatro_rs18basic_chips_jokersNtB5_11BannerJokerNtNtB7_5joker5Joker11description
FNDA:0,_RNvXs0_NtCs6ewEfsi5izM_10balatro_rs18basic_chips_jokersNtB5_11BannerJokerNtNtB7_5joker5Joker14on_hand_played
FNDA:0,_RNvXs0_NtCs6ewEfsi5izM_10balatro_rs18basic_chips_jokersNtB5_11BannerJokerNtNtB7_5joker5Joker2id
FNDA:0,_RNvXs0_NtCs6ewEfsi5izM_10balatro_rs18basic_chips_jokersNtB5_11BannerJokerNtNtB7_5joker5Joker4cost
FNDA:0,_RNvXs0_NtCs6ewEfsi5izM_10balatro_rs18basic_chips_jokersNtB5_11BannerJokerNtNtB7_5joker5Joker4name
FNDA:0,_RNvXs0_NtCs6ewEfsi5izM_10balatro_rs18basic_chips_jokersNtB5_11BannerJokerNtNtB7_5joker5Joker6rarity
FNDA:0,_RNvXs1_NtCs6ewEfsi5izM_10balatro_rs18basic_chips_jokersNtB5_9BullJokerNtNtCs1p5UDGgVI4d_4core7default7Default7default
FNDA:0,_RNvXs3_NtCs6ewEfsi5izM_10balatro_rs18basic_chips_jokersNtB5_9BullJokerNtNtB7_5joker5Joker11description
FNDA:0,_RNvXs3_NtCs6ewEfsi5izM_10balatro_rs18basic_chips_jokersNtB5_9BullJokerNtNtB7_5joker5Joker14on_hand_played
FNDA:0,_RNvXs3_NtCs6ewEfsi5izM_10balatro_rs18basic_chips_jokersNtB5_9BullJokerNtNtB7_5joker5Joker2id
FNDA:0,_RNvXs3_NtCs6ewEfsi5izM_10balatro_rs18basic_chips_jokersNtB5_9BullJokerNtNtB7_5joker5Joker4cost
FNDA:0,_RNvXs3_NtCs6ewEfsi5izM_10balatro_rs18basic_chips_jokersNtB5_9BullJokerNtNtB7_5joker5Joker4name
FNDA:0,_RNvXs3_NtCs6ewEfsi5izM_10balatro_rs18basic_chips_jokersNtB5_9BullJokerNtNtB7_5joker5Joker6rarity
FNDA:0,_RNvXs4_NtCs6ewEfsi5izM_10balatro_rs18basic_chips_jokersNtB5_10StoneJokerNtNtCs1p5UDGgVI4d_4core7default7Default7default
FNDA:0,_RNvXs6_NtCs6ewEfsi5izM_10balatro_rs18basic_chips_jokersNtB5_10StoneJokerNtNtB7_5joker5Joker11description
FNDA:0,_RNvXs6_NtCs6ewEfsi5izM_10balatro_rs18basic_chips_jokersNtB5_10StoneJokerNtNtB7_5joker5Joker14on_hand_played
FNDA:0,_RNvXs6_NtCs6ewEfsi5izM_10balatro_rs18basic_chips_jokersNtB5_10StoneJokerNtNtB7_5joker5Joker2id
FNDA:0,_RNvXs6_NtCs6ewEfsi5izM_10balatro_rs18basic_chips_jokersNtB5_10StoneJokerNtNtB7_5joker5Joker4cost
FNDA:0,_RNvXs6_NtCs6ewEfsi5izM_10balatro_rs18basic_chips_jokersNtB5_10StoneJokerNtNtB7_5joker5Joker4name
FNDA:0,_RNvXs6_NtCs6ewEfsi5izM_10balatro_rs18basic_chips_jokersNtB5_10StoneJokerNtNtB7_5joker5Joker6rarity
FNDA:0,_RNvXs7_NtCs6ewEfsi5izM_10balatro_rs18basic_chips_jokersNtB5_14ScaryFaceJokerNtNtCs1p5UDGgVI4d_4core7default7Default7default
FNDA:0,_RNvXs9_NtCs6ewEfsi5izM_10balatro_rs18basic_chips_jokersNtB5_14ScaryFaceJokerNtNtB7_5joker5Joker11description
FNDA:0,_RNvXs9_NtCs6ewEfsi5izM_10balatro_rs18basic_chips_jokersNtB5_14ScaryFaceJokerNtNtB7_5joker5Joker14on_card_scored
FNDA:0,_RNvXs9_NtCs6ewEfsi5izM_10balatro_rs18basic_chips_jokersNtB5_14ScaryFaceJokerNtNtB7_5joker5Joker2id
FNDA:0,_RNvXs9_NtCs6ewEfsi5izM_10balatro_rs18basic_chips_jokersNtB5_14ScaryFaceJokerNtNtB7_5joker5Joker4cost
FNDA:0,_RNvXs9_NtCs6ewEfsi5izM_10balatro_rs18basic_chips_jokersNtB5_14ScaryFaceJokerNtNtB7_5joker5Joker4name
FNDA:0,_RNvXs9_NtCs6ewEfsi5izM_10balatro_rs18basic_chips_jokersNtB5_14ScaryFaceJokerNtNtB7_5joker5Joker6rarity
FNDA:0,_RNvXsa_NtCs6ewEfsi5izM_10balatro_rs18basic_chips_jokersNtB5_9BlueJokerNtNtCs1p5UDGgVI4d_4core7default7Default7default
FNDA:0,_RNvXsc_NtCs6ewEfsi5izM_10balatro_rs18basic_chips_jokersNtB5_9BlueJokerNtNtB7_5joker5Joker11description
FNDA:0,_RNvXsc_NtCs6ewEfsi5izM_10balatro_rs18basic_chips_jokersNtB5_9BlueJokerNtNtB7_5joker5Joker14on_hand_played
FNDA:0,_RNvXsc_NtCs6ewEfsi5izM_10balatro_rs18basic_chips_jokersNtB5_9BlueJokerNtNtB7_5joker5Joker2id
FNDA:0,_RNvXsc_NtCs6ewEfsi5izM_10balatro_rs18basic_chips_jokersNtB5_9BlueJokerNtNtB7_5joker5Joker4cost
FNDA:0,_RNvXsc_NtCs6ewEfsi5izM_10balatro_rs18basic_chips_jokersNtB5_9BlueJokerNtNtB7_5joker5Joker4name
FNDA:0,_RNvXsc_NtCs6ewEfsi5izM_10balatro_rs18basic_chips_jokersNtB5_9BlueJokerNtNtB7_5joker5Joker6rarity
FNDA:3,_RNvMs2_NtCsfztrlbScSWy_10balatro_rs18basic_chips_jokersNtB5_9BullJoker3new
FNDA:2,_RNvMs5_NtCsfztrlbScSWy_10balatro_rs18basic_chips_jokersNtB5_10StoneJoker3new
FNDA:4,_RNvMs8_NtCsfztrlbScSWy_10balatro_rs18basic_chips_jokersNtB5_14ScaryFaceJoker3new
FNDA:3,_RNvMs_NtCsfztrlbScSWy_10balatro_rs18basic_chips_jokersNtB4_11BannerJoker3new
FNDA:3,_RNvMsb_NtCsfztrlbScSWy_10balatro_rs18basic_chips_jokersNtB5_9BlueJoker3new
FNDA:0,_RNvXNtCsfztrlbScSWy_10balatro_rs18basic_chips_jokersNtB2_11BannerJokerNtNtCs1p5UDGgVI4d_4core7default7Default7default
FNDA:0,_RNvXs0_NtCsfztrlbScSWy_10balatro_rs18basic_chips_jokersNtB5_11BannerJokerNtNtB7_5joker5Joker11description
FNDA:3,_RNvXs0_NtCsfztrlbScSWy_10balatro_rs18basic_chips_jokersNtB5_11BannerJokerNtNtB7_5joker5Joker14on_hand_played
FNDA:0,_RNvXs0_NtCsfztrlbScSWy_10balatro_rs18basic_chips_jokersNtB5_11BannerJokerNtNtB7_5joker5Joker2id
FNDA:0,_RNvXs0_NtCsfztrlbScSWy_10balatro_rs18basic_chips_jokersNtB5_11BannerJokerNtNtB7_5joker5Joker4cost
FNDA:0,_RNvXs0_NtCsfztrlbScSWy_10balatro_rs18basic_chips_jokersNtB5_11BannerJokerNtNtB7_5joker5Joker4name
FNDA:0,_RNvXs0_NtCsfztrlbScSWy_10balatro_rs18basic_chips_jokersNtB5_11BannerJokerNtNtB7_5joker5Joker6rarity
FNDA:0,_RNvXs1_NtCsfztrlbScSWy_10balatro_rs18basic_chips_jokersNtB5_9BullJokerNtNtCs1p5UDGgVI4d_4core7default7Default7default
FNDA:0,_RNvXs3_NtCsfztrlbScSWy_10balatro_rs18basic_chips_jokersNtB5_9BullJokerNtNtB7_5joker5Joker11description
FNDA:3,_RNvXs3_NtCsfztrlbScSWy_10balatro_rs18basic_chips_jokersNtB5_9BullJokerNtNtB7_5joker5Joker14on_hand_played
FNDA:0,_RNvXs3_NtCsfztrlbScSWy_10balatro_rs18basic_chips_jokersNtB5_9BullJokerNtNtB7_5joker5Joker2id
FNDA:0,_RNvXs3_NtCsfztrlbScSWy_10balatro_rs18basic_chips_jokersNtB5_9BullJokerNtNtB7_5joker5Joker4cost
FNDA:0,_RNvXs3_NtCsfztrlbScSWy_10balatro_rs18basic_chips_jokersNtB5_9BullJokerNtNtB7_5joker5Joker4name
FNDA:0,_RNvXs3_NtCsfztrlbScSWy_10balatro_rs18basic_chips_jokersNtB5_9BullJokerNtNtB7_5joker5Joker6rarity
FNDA:0,_RNvXs4_NtCsfztrlbScSWy_10balatro_rs18basic_chips_jokersNtB5_10StoneJokerNtNtCs1p5UDGgVI4d_4core7default7Default7default
FNDA:0,_RNvXs6_NtCsfztrlbScSWy_10balatro_rs18basic_chips_jokersNtB5_10StoneJokerNtNtB7_5joker5Joker11description
FNDA:2,_RNvXs6_NtCsfztrlbScSWy_10balatro_rs18basic_chips_jokersNtB5_10StoneJokerNtNtB7_5joker5Joker14on_hand_played
FNDA:0,_RNvXs6_NtCsfztrlbScSWy_10balatro_rs18basic_chips_jokersNtB5_10StoneJokerNtNtB7_5joker5Joker2id
FNDA:0,_RNvXs6_NtCsfztrlbScSWy_10balatro_rs18basic_chips_jokersNtB5_10StoneJokerNtNtB7_5joker5Joker4cost
FNDA:0,_RNvXs6_NtCsfztrlbScSWy_10balatro_rs18basic_chips_jokersNtB5_10StoneJokerNtNtB7_5joker5Joker4name
FNDA:0,_RNvXs6_NtCsfztrlbScSWy_10balatro_rs18basic_chips_jokersNtB5_10StoneJokerNtNtB7_5joker5Joker6rarity
FNDA:0,_RNvXs7_NtCsfztrlbScSWy_10balatro_rs18basic_chips_jokersNtB5_14ScaryFaceJokerNtNtCs1p5UDGgVI4d_4core7default7Default7default
FNDA:0,_RNvXs9_NtCsfztrlbScSWy_10balatro_rs18basic_chips_jokersNtB5_14ScaryFaceJokerNtNtB7_5joker5Joker11description
FNDA:4,_RNvXs9_NtCsfztrlbScSWy_10balatro_rs18basic_chips_jokersNtB5_14ScaryFaceJokerNtNtB7_5joker5Joker14on_card_scored
FNDA:0,_RNvXs9_NtCsfztrlbScSWy_10balatro_rs18basic_chips_jokersNtB5_14ScaryFaceJokerNtNtB7_5joker5Joker2id
FNDA:0,_RNvXs9_NtCsfztrlbScSWy_10balatro_rs18basic_chips_jokersNtB5_14ScaryFaceJokerNtNtB7_5joker5Joker4cost
FNDA:0,_RNvXs9_NtCsfztrlbScSWy_10balatro_rs18basic_chips_jokersNtB5_14ScaryFaceJokerNtNtB7_5joker5Joker4name
FNDA:0,_RNvXs9_NtCsfztrlbScSWy_10balatro_rs18basic_chips_jokersNtB5_14ScaryFaceJokerNtNtB7_5joker5Joker6rarity
FNDA:0,_RNvXsa_NtCsfztrlbScSWy_10balatro_rs18basic_chips_jokersNtB5_9BlueJokerNtNtCs1p5UDGgVI4d_4core7default7Default7default
FNDA:0,_RNvXsc_NtCsfztrlbScSWy_10balatro_rs18basic_chips_jokersNtB5_9BlueJokerNtNtB7_5joker5Joker11description
FNDA:3,_RNvXsc_NtCsfztrlbScSWy_10balatro_rs18basic_chips_jokersNtB5_9BlueJokerNtNtB7_5joker5Joker14on_hand_played
FNDA:0,_RNvXsc_NtCsfztrlbScSWy_10balatro_rs18basic_chips_jokersNtB5_9BlueJokerNtNtB7_5joker5Joker2id
FNDA:0,_RNvXsc_NtCsfztrlbScSWy_10balatro_rs18basic_chips_jokersNtB5_9BlueJokerNtNtB7_5joker5Joker4cost
FNDA:0,_RNvXsc_NtCsfztrlbScSWy_10balatro_rs18basic_chips_jokersNtB5_9BlueJokerNtNtB7_5joker5Joker4name
FNDA:0,_RNvXsc_NtCsfztrlbScSWy_10balatro_rs18basic_chips_jokersNtB5_9BlueJokerNtNtB7_5joker5Joker6rarity
FNF:40
FNH:10
DA:12,0
DA:13,0
DA:14,0
DA:18,3
DA:19,3
DA:20,3
DA:21,3
DA:22,3
DA:26,0
DA:27,0
DA:28,0
DA:30,0
DA:31,0
DA:32,0
DA:34,0
DA:35,0
DA:36,0
DA:38,0
DA:39,0
DA:40,0
DA:42,0
DA:43,0
DA:44,0
DA:46,3
DA:49,3
DA:50,3
DA:52,3
DA:53,3
DA:63,0
DA:64,0
DA:65,0
DA:69,3
DA:70,3
DA:71,3
DA:72,3
DA:73,3
DA:77,0
DA:78,0
DA:79,0
DA:81,0
DA:82,0
DA:83,0
DA:85,0
DA:86,0
DA:87,0
DA:89,0
DA:90,0
DA:91,0
DA:93,0
DA:94,0
DA:95,0
DA:97,3
DA:98,3
DA:99,3
DA:100,3
DA:110,0
DA:111,0
DA:112,0
DA:116,2
DA:117,2
DA:118,2
DA:122,0
DA:123,0
DA:124,0
DA:126,0
DA:127,0
DA:128,0
DA:130,0
DA:131,0
DA:132,0
DA:134,0
DA:135,0
DA:136,0
DA:138,0
DA:139,0
DA:140,0
DA:142,2
DA:143,2
DA:144,2
DA:145,2
DA:155,0
DA:156,0
DA:157,0
DA:161,4
DA:162,4
DA:163,4
DA:164,4
DA:165,4
DA:169,0
DA:170,0
DA:171,0
DA:173,0
DA:174,0
DA:175,0
DA:177,0
DA:178,0
DA:179,0
DA:181,0
DA:182,0
DA:183,0
DA:185,0
DA:186,0
DA:187,0
DA:189,4
DA:190,4
DA:191,3
DA:192,1
DA:194,4
DA:204,0
DA:205,0
DA:206,0
DA:210,3
DA:211,3
DA:212,3
DA:213,3
DA:214,3
DA:218,0
DA:219,0
DA:220,0
DA:222,0
DA:223,0
DA:224,0
DA:226,0
DA:227,0
DA:228,0
DA:230,0
DA:231,0
DA:232,0
DA:234,0
DA:235,0
DA:236,0
DA:238,3
DA:239,3
DA:240,3
DA:241,3
BRF:0
BRH:0
LF:135
LH:45
end_of_record
SF:/home/spduncan/balatro-rs-ws/fix-issue-184-cicd-pipeline/core/src/boss_blinds/mod.rs
FN:140,_RINvXs0_NvXNvNtCs6ewEfsi5izM_10balatro_rs11boss_blindss1_1__NtBb_11BossBlindIdNtNtCsWuCv7H75Ac_5serde2de11Deserialize11deserializeNtB6_9___VisitorNtB1g_7Visitor10visit_enumpEBd_
FN:178,_RINvXs0_NvXNvNtCs6ewEfsi5izM_10balatro_rs11boss_blindss3_1__NtBb_14BossBlindStateNtNtCsWuCv7H75Ac_5serde2de11Deserialize11deserializeNtB6_9___VisitorNtB1j_7Visitor9visit_mappEBd_
FN:178,_RINvXs0_NvXNvNtCs6ewEfsi5izM_10balatro_rs11boss_blindss3_1__NtBb_14BossBlindStateNtNtCsWuCv7H75Ac_5serde2de11Deserialize11deserializeNtB6_9___VisitorNtB1j_7Visitor9visit_seqpEBd_
FN:24,_RINvXs0_NvXNvNtCs6ewEfsi5izM_10balatro_rs11boss_blindss_1__NtBb_13BossBlindDataNtNtCsWuCv7H75Ac_5serde2de11Deserialize11deserializeNtB6_9___VisitorNtB1h_7Visitor10visit_enumpEBd_
FN:130,_RNvMNtCs6ewEfsi5izM_10balatro_rs11boss_blindsNtB2_16HandModification13force_discard
FN:114,_RNvMNtCs6ewEfsi5izM_10balatro_rs11boss_blindsNtB2_16HandModification14multiply_score
FN:104,_RNvMNtCs6ewEfsi5izM_10balatro_rs11boss_blindsNtB2_16HandModification3new
FN:122,_RNvMNtCs6ewEfsi5izM_10balatro_rs11boss_blindsNtB2_16HandModification9add_score
FN:169,_RNvMs0_NtCs6ewEfsi5izM_10balatro_rs11boss_blindsNtB5_11BossBlindId17reward_multiplier
FN:162,_RNvMs0_NtCs6ewEfsi5izM_10balatro_rs11boss_blindsNtB5_11BossBlindId22base_score_requirement
FN:157,_RNvMs0_NtCs6ewEfsi5izM_10balatro_rs11boss_blindsNtB5_11BossBlindId3all
FN:202,_RNvMs1_NtCs6ewEfsi5izM_10balatro_rs11boss_blindsNtB5_14BossBlindState10deactivate
FN:214,_RNvMs1_NtCs6ewEfsi5izM_10balatro_rs11boss_blindsNtB5_14BossBlindState11active_boss
FN:224,_RNvMs1_NtCs6ewEfsi5izM_10balatro_rs11boss_blindsNtB5_14BossBlindState16get_custom_state
FN:219,_RNvMs1_NtCs6ewEfsi5izM_10balatro_rs11boss_blindsNtB5_14BossBlindState16set_custom_state
FN:195,_RNvMs1_NtCs6ewEfsi5izM_10balatro_rs11boss_blindsNtB5_14BossBlindState8activate
FN:209,_RNvMs1_NtCs6ewEfsi5izM_10balatro_rs11boss_blindsNtB5_14BossBlindState9is_active
FN:148,_RNvXs_NtCs6ewEfsi5izM_10balatro_rs11boss_blindsNtB4_11BossBlindIdNtNtCs1p5UDGgVI4d_4core3fmt7Display3fmt
FN:78,_RNvYpNtNtCs6ewEfsi5izM_10balatro_rs11boss_blinds16BossBlindScoring12affects_cardB7_
FN:190,_RNvMs1_NtCs6ewEfsi5izM_10balatro_rs11boss_blindsNtB5_14BossBlindState3new
FN:140,_RINvXs0_NvXNvNtCsfztrlbScSWy_10balatro_rs11boss_blindss1_1__NtBb_11BossBlindIdNtNtCsWuCv7H75Ac_5serde2de11Deserialize11deserializeNtB6_9___VisitorNtB1g_7Visitor10visit_enumINtNtCs9DWYcYz1PvJ_10serde_json2de13VariantAccessNtNtB2P_4read7StrReadEEBd_
FN:140,_RINvXs0_NvXNvNtCsfztrlbScSWy_10balatro_rs11boss_blindss1_1__NtBb_11BossBlindIdNtNtCsWuCv7H75Ac_5serde2de11Deserialize11deserializeNtB6_9___VisitorNtB1g_7Visitor10visit_enumINtNtCs9DWYcYz1PvJ_10serde_json2de17UnitVariantAccessNtNtB2P_4read7StrReadEEBd_
FN:178,_RINvXs0_NvXNvNtCsfztrlbScSWy_10balatro_rs11boss_blindss3_1__NtBb_14BossBlindStateNtNtCsWuCv7H75Ac_5serde2de11Deserialize11deserializeNtB6_9___VisitorNtB1j_7Visitor9visit_mapINtNtCs9DWYcYz1PvJ_10serde_json2de9MapAccessNtNtB2Q_4read7StrReadEEBd_
FN:178,_RINvXs0_NvXNvNtCsfztrlbScSWy_10balatro_rs11boss_blindss3_1__NtBb_14BossBlindStateNtNtCsWuCv7H75Ac_5serde2de11Deserialize11deserializeNtB6_9___VisitorNtB1j_7Visitor9visit_seqINtNtCs9DWYcYz1PvJ_10serde_json2de9SeqAccessNtNtB2Q_4read7StrReadEEBd_
FN:24,_RINvXs0_NvXNvNtCsfztrlbScSWy_10balatro_rs11boss_blindss_1__NtBb_13BossBlindDataNtNtCsWuCv7H75Ac_5serde2de11Deserialize11deserializeNtB6_9___VisitorNtB1h_7Visitor10visit_enumINtNtCs9DWYcYz1PvJ_10serde_json2de13VariantAccessNtNtB2Q_4read7StrReadEEBd_
FN:24,_RINvXs0_NvXNvNtCsfztrlbScSWy_10balatro_rs11boss_blindss_1__NtBb_13BossBlindDataNtNtCsWuCv7H75Ac_5serde2de11Deserialize11deserializeNtB6_9___VisitorNtB1h_7Visitor10visit_enumINtNtCs9DWYcYz1PvJ_10serde_json2de17UnitVariantAccessNtNtB2Q_4read7StrReadEEBd_
FN:130,_RNvMNtCsfztrlbScSWy_10balatro_rs11boss_blindsNtB2_16HandModification13force_discard
FN:114,_RNvMNtCsfztrlbScSWy_10balatro_rs11boss_blindsNtB2_16HandModification14multiply_score
FN:104,_RNvMNtCsfztrlbScSWy_10balatro_rs11boss_blindsNtB2_16HandModification3new
FN:122,_RNvMNtCsfztrlbScSWy_10balatro_rs11boss_blindsNtB2_16HandModification9add_score
FN:169,_RNvMs0_NtCsfztrlbScSWy_10balatro_rs11boss_blindsNtB5_11BossBlindId17reward_multiplier
FN:162,_RNvMs0_NtCsfztrlbScSWy_10balatro_rs11boss_blindsNtB5_11BossBlindId22base_score_requirement
FN:157,_RNvMs0_NtCsfztrlbScSWy_10balatro_rs11boss_blindsNtB5_11BossBlindId3all
FN:202,_RNvMs1_NtCsfztrlbScSWy_10balatro_rs11boss_blindsNtB5_14BossBlindState10deactivate
FN:214,_RNvMs1_NtCsfztrlbScSWy_10balatro_rs11boss_blindsNtB5_14BossBlindState11active_boss
FN:224,_RNvMs1_NtCsfztrlbScSWy_10balatro_rs11boss_blindsNtB5_14BossBlindState16get_custom_state
FN:219,_RNvMs1_NtCsfztrlbScSWy_10balatro_rs11boss_blindsNtB5_14BossBlindState16set_custom_state
FN:190,_RNvMs1_NtCsfztrlbScSWy_10balatro_rs11boss_blindsNtB5_14BossBlindState3new
FN:195,_RNvMs1_NtCsfztrlbScSWy_10balatro_rs11boss_blindsNtB5_14BossBlindState8activate
FN:209,_RNvMs1_NtCsfztrlbScSWy_10balatro_rs11boss_blindsNtB5_14BossBlindState9is_active
FN:148,_RNvXs_NtCsfztrlbScSWy_10balatro_rs11boss_blindsNtB4_11BossBlindIdNtNtCs1p5UDGgVI4d_4core3fmt7Display3fmt
FN:78,_RNvYpNtNtCsfztrlbScSWy_10balatro_rs11boss_blinds16BossBlindScoring12affects_cardB7_
FNDA:0,_RINvXs0_NvXNvNtCs6ewEfsi5izM_10balatro_rs11boss_blindss1_1__NtBb_11BossBlindIdNtNtCsWuCv7H75Ac_5serde2de11Deserialize11deserializeNtB6_9___VisitorNtB1g_7Visitor10visit_enumpEBd_
FNDA:0,_RINvXs0_NvXNvNtCs6ewEfsi5izM_10balatro_rs11boss_blindss3_1__NtBb_14BossBlindStateNtNtCsWuCv7H75Ac_5serde2de11Deserialize11deserializeNtB6_9___VisitorNtB1j_7Visitor9visit_mappEBd_
FNDA:0,_RINvXs0_NvXNvNtCs6ewEfsi5izM_10balatro_rs11boss_blindss3_1__NtBb_14BossBlindStateNtNtCsWuCv7H75Ac_5serde2de11Deserialize11deserializeNtB6_9___VisitorNtB1j_7Visitor9visit_seqpEBd_
FNDA:0,_RINvXs0_NvXNvNtCs6ewEfsi5izM_10balatro_rs11boss_blindss_1__NtBb_13BossBlindDataNtNtCsWuCv7H75Ac_5serde2de11Deserialize11deserializeNtB6_9___VisitorNtB1h_7Visitor10visit_enumpEBd_
FNDA:0,_RNvMNtCs6ewEfsi5izM_10balatro_rs11boss_blindsNtB2_16HandModification13force_discard
FNDA:0,_RNvMNtCs6ewEfsi5izM_10balatro_rs11boss_blindsNtB2_16HandModification14multiply_score
FNDA:0,_RNvMNtCs6ewEfsi5izM_10balatro_rs11boss_blindsNtB2_16HandModification3new
FNDA:0,_RNvMNtCs6ewEfsi5izM_10balatro_rs11boss_blindsNtB2_16HandModification9add_score
FNDA:0,_RNvMs0_NtCs6ewEfsi5izM_10balatro_rs11boss_blindsNtB5_11BossBlindId17reward_multiplier
FNDA:0,_RNvMs0_NtCs6ewEfsi5izM_10balatro_rs11boss_blindsNtB5_11BossBlindId22base_score_requirement
FNDA:0,_RNvMs0_NtCs6ewEfsi5izM_10balatro_rs11boss_blindsNtB5_11BossBlindId3all
FNDA:0,_RNvMs1_NtCs6ewEfsi5izM_10balatro_rs11boss_blindsNtB5_14BossBlindState10deactivate
FNDA:0,_RNvMs1_NtCs6ewEfsi5izM_10balatro_rs11boss_blindsNtB5_14BossBlindState11active_boss
FNDA:0,_RNvMs1_NtCs6ewEfsi5izM_10balatro_rs11boss_blindsNtB5_14BossBlindState16get_custom_state
FNDA:0,_RNvMs1_NtCs6ewEfsi5izM_10balatro_rs11boss_blindsNtB5_14BossBlindState16set_custom_state
FNDA:0,_RNvMs1_NtCs6ewEfsi5izM_10balatro_rs11boss_blindsNtB5_14BossBlindState8activate
FNDA:0,_RNvMs1_NtCs6ewEfsi5izM_10balatro_rs11boss_blindsNtB5_14BossBlindState9is_active
FNDA:0,_RNvXs_NtCs6ewEfsi5izM_10balatro_rs11boss_blindsNtB4_11BossBlindIdNtNtCs1p5UDGgVI4d_4core3fmt7Display3fmt
FNDA:0,_RNvYpNtNtCs6ewEfsi5izM_10balatro_rs11boss_blinds16BossBlindScoring12affects_cardB7_
FNDA:59,_RNvMs1_NtCs6ewEfsi5izM_10balatro_rs11boss_blindsNtB5_14BossBlindState3new
FNDA:0,_RINvXs0_NvXNvNtCsfztrlbScSWy_10balatro_rs11boss_blindss1_1__NtBb_11BossBlindIdNtNtCsWuCv7H75Ac_5serde2de11Deserialize11deserializeNtB6_9___VisitorNtB1g_7Visitor10visit_enumINtNtCs9DWYcYz1PvJ_10serde_json2de13VariantAccessNtNtB2P_4read7StrReadEEBd_
FNDA:0,_RINvXs0_NvXNvNtCsfztrlbScSWy_10balatro_rs11boss_blindss1_1__NtBb_11BossBlindIdNtNtCsWuCv7H75Ac_5serde2de11Deserialize11deserializeNtB6_9___VisitorNtB1g_7Visitor10visit_enumINtNtCs9DWYcYz1PvJ_10serde_json2de17UnitVariantAccessNtNtB2P_4read7StrReadEEBd_
FNDA:0,_RINvXs0_NvXNvNtCsfztrlbScSWy_10balatro_rs11boss_blindss3_1__NtBb_14BossBlindStateNtNtCsWuCv7H75Ac_5serde2de11Deserialize11deserializeNtB6_9___VisitorNtB1j_7Visitor9visit_mapINtNtCs9DWYcYz1PvJ_10serde_json2de9MapAccessNtNtB2Q_4read7StrReadEEBd_
FNDA:0,_RINvXs0_NvXNvNtCsfztrlbScSWy_10balatro_rs11boss_blindss3_1__NtBb_14BossBlindStateNtNtCsWuCv7H75Ac_5serde2de11Deserialize11deserializeNtB6_9___VisitorNtB1j_7Visitor9visit_seqINtNtCs9DWYcYz1PvJ_10serde_json2de9SeqAccessNtNtB2Q_4read7StrReadEEBd_
FNDA:0,_RINvXs0_NvXNvNtCsfztrlbScSWy_10balatro_rs11boss_blindss_1__NtBb_13BossBlindDataNtNtCsWuCv7H75Ac_5serde2de11Deserialize11deserializeNtB6_9___VisitorNtB1h_7Visitor10visit_enumINtNtCs9DWYcYz1PvJ_10serde_json2de13VariantAccessNtNtB2Q_4read7StrReadEEBd_
FNDA:0,_RINvXs0_NvXNvNtCsfztrlbScSWy_10balatro_rs11boss_blindss_1__NtBb_13BossBlindDataNtNtCsWuCv7H75Ac_5serde2de11Deserialize11deserializeNtB6_9___VisitorNtB1h_7Visitor10visit_enumINtNtCs9DWYcYz1PvJ_10serde_json2de17UnitVariantAccessNtNtB2Q_4read7StrReadEEBd_
FNDA:0,_RNvMNtCsfztrlbScSWy_10balatro_rs11boss_blindsNtB2_16HandModification13force_discard
FNDA:0,_RNvMNtCsfztrlbScSWy_10balatro_rs11boss_blindsNtB2_16HandModification14multiply_score
FNDA:1,_RNvMNtCsfztrlbScSWy_10balatro_rs11boss_blindsNtB2_16HandModification3new
FNDA:0,_RNvMNtCsfztrlbScSWy_10balatro_rs11boss_blindsNtB2_16HandModification9add_score
FNDA:0,_RNvMs0_NtCsfztrlbScSWy_10balatro_rs11boss_blindsNtB5_11BossBlindId17reward_multiplier
FNDA:0,_RNvMs0_NtCsfztrlbScSWy_10balatro_rs11boss_blindsNtB5_11BossBlindId22base_score_requirement
FNDA:0,_RNvMs0_NtCsfztrlbScSWy_10balatro_rs11boss_blindsNtB5_11BossBlindId3all
FNDA:0,_RNvMs1_NtCsfztrlbScSWy_10balatro_rs11boss_blindsNtB5_14BossBlindState10deactivate
FNDA:1,_RNvMs1_NtCsfztrlbScSWy_10balatro_rs11boss_blindsNtB5_14BossBlindState11active_boss
FNDA:0,_RNvMs1_NtCsfztrlbScSWy_10balatro_rs11boss_blindsNtB5_14BossBlindState16get_custom_state
FNDA:0,_RNvMs1_NtCsfztrlbScSWy_10balatro_rs11boss_blindsNtB5_14BossBlindState16set_custom_state
FNDA:55,_RNvMs1_NtCsfztrlbScSWy_10balatro_rs11boss_blindsNtB5_14BossBlindState3new
FNDA:0,_RNvMs1_NtCsfztrlbScSWy_10balatro_rs11boss_blindsNtB5_14BossBlindState8activate
FNDA:1,_RNvMs1_NtCsfztrlbScSWy_10balatro_rs11boss_blindsNtB5_14BossBlindState9is_active
FNDA:0,_RNvXs_NtCsfztrlbScSWy_10balatro_rs11boss_blindsNtB4_11BossBlindIdNtNtCs1p5UDGgVI4d_4core3fmt7Display3fmt
FNDA:0,_RNvYpNtNtCsfztrlbScSWy_10balatro_rs11boss_blinds16BossBlindScoring12affects_cardB7_
FNF:19
FNH:4
DA:24,0
DA:78,0
DA:80,0
DA:81,0
DA:82,0
DA:104,1
DA:105,1
DA:106,1
DA:107,1
DA:108,1
DA:109,1
DA:110,1
DA:111,1
DA:114,0
DA:115,0
DA:116,0
DA:117,0
DA:118,0
DA:119,0
DA:122,0
DA:123,0
DA:124,0
DA:125,0
DA:126,0
DA:127,0
DA:130,0
DA:131,0
DA:132,0
DA:133,0
DA:134,0
DA:135,0
DA:140,0
DA:148,0
DA:149,0
DA:150,0
DA:152,0
DA:157,0
DA:158,0
DA:159,0
DA:162,0
DA:163,0
DA:164,0
DA:166,0
DA:169,0
DA:170,0
DA:171,0
DA:173,0
DA:178,0
DA:190,114
DA:191,114
DA:192,114
DA:195,0
DA:196,0
DA:197,0
DA:198,0
DA:199,0
DA:202,0
DA:203,0
DA:204,0
DA:205,0
DA:206,0
DA:209,1
DA:210,1
DA:211,1
DA:214,1
DA:215,1
DA:216,1
DA:219,0
DA:220,0
DA:221,0
DA:224,0
DA:225,0
DA:226,0
BRF:0
BRH:0
LF:73
LH:17
end_of_record
SF:/home/spduncan/balatro-rs-ws/fix-issue-184-cicd-pipeline/core/src/card.rs
FN:77,_RINvXs0_NvXNvNtCs6ewEfsi5izM_10balatro_rs4cards2_1__NtBb_4SuitNtNtCsWuCv7H75Ac_5serde2de11Deserialize11deserializeNtB6_9___VisitorNtB10_7Visitor10visit_enumpEBd_
FN:116,_RINvXs0_NvXNvNtCs6ewEfsi5izM_10balatro_rs4cards5_1__NtBb_11EnhancementNtNtCsWuCv7H75Ac_5serde2de11Deserialize11deserializeNtB6_9___VisitorNtB18_7Visitor10visit_enumpEBd_
FN:131,_RINvXs0_NvXNvNtCs6ewEfsi5izM_10balatro_rs4cards8_1__NtBb_7EditionNtNtCsWuCv7H75Ac_5serde2de11Deserialize11deserializeNtB6_9___VisitorNtB13_7Visitor10visit_enumpEBd_
FN:13,_RINvXs0_NvXNvNtCs6ewEfsi5izM_10balatro_rs4cards_1__NtBb_5ValueNtNtCsWuCv7H75Ac_5serde2de11Deserialize11deserializeNtB6_9___VisitorNtB10_7Visitor10visit_enumpEBd_
FN:143,_RINvXs0_NvXNvNtCs6ewEfsi5izM_10balatro_rs4cardsb_1__NtBb_4SealNtNtCsWuCv7H75Ac_5serde2de11Deserialize11deserializeNtB6_9___VisitorNtB10_7Visitor10visit_enumpEBd_
FN:158,_RINvXs0_NvXNvNtCs6ewEfsi5izM_10balatro_rs4cardse_1__NtBb_4CardNtNtCsWuCv7H75Ac_5serde2de11Deserialize11deserializeNtB6_9___VisitorNtB10_7Visitor9visit_mappEBd_
FN:158,_RINvXs0_NvXNvNtCs6ewEfsi5izM_10balatro_rs4cardse_1__NtBb_4CardNtNtCsWuCv7H75Ac_5serde2de11Deserialize11deserializeNtB6_9___VisitorNtB10_7Visitor9visit_seqpEBd_
FN:105,_RNvXs1_NtCs6ewEfsi5izM_10balatro_rs4cardcINtNtCs1p5UDGgVI4d_4core7convert4FromNtB5_4SuitE4from
FN:51,_RNvMNtCs6ewEfsi5izM_10balatro_rs4cardNtB2_5Value6values
FN:91,_RNvMs0_NtCs6ewEfsi5izM_10balatro_rs4cardNtB5_4Suit5suits
FN:94,_RNvMs0_NtCs6ewEfsi5izM_10balatro_rs4cardNtB5_4Suit7unicode
FN:132,_RNvMs17_NtCs6ewEfsi5izM_10balatro_rs4cardNtB6_7Edition38___pymethod___default___pyo3__int______
FN:132,_RNvMs17_NtCs6ewEfsi5izM_10balatro_rs4cardNtB6_7Edition39___pymethod___default___pyo3__repr______
FN:144,_RNvMs1q_NtCs6ewEfsi5izM_10balatro_rs4cardNtB6_4Seal38___pymethod___default___pyo3__int______
FN:144,_RNvMs1q_NtCs6ewEfsi5izM_10balatro_rs4cardNtB6_4Seal39___pymethod___default___pyo3__repr______
FN:171,_RNvMs2_NtCs6ewEfsi5izM_10balatro_rs4cardNtB5_4Card3new
FN:195,_RNvMs2_NtCs6ewEfsi5izM_10balatro_rs4cardNtB5_4Card5chips
FN:191,_RNvMs2_NtCs6ewEfsi5izM_10balatro_rs4cardNtB5_4Card6is_odd
FN:187,_RNvMs2_NtCs6ewEfsi5izM_10balatro_rs4cardNtB5_4Card7is_even
FN:183,_RNvMs2_NtCs6ewEfsi5izM_10balatro_rs4cardNtB5_4Card7is_face
FN:117,_RNvMsO_NtCs6ewEfsi5izM_10balatro_rs4cardNtB5_11Enhancement38___pymethod___default___pyo3__int______
FN:117,_RNvMsO_NtCs6ewEfsi5izM_10balatro_rs4cardNtB5_11Enhancement39___pymethod___default___pyo3__repr______
FN:14,_RNvMsc_NtCs6ewEfsi5izM_10balatro_rs4cardNtB5_5Value38___pymethod___default___pyo3__int______
FN:14,_RNvMsc_NtCs6ewEfsi5izM_10balatro_rs4cardNtB5_5Value39___pymethod___default___pyo3__repr______
FN:78,_RNvMsv_NtCs6ewEfsi5izM_10balatro_rs4cardNtB5_4Suit38___pymethod___default___pyo3__int______
FN:78,_RNvMsv_NtCs6ewEfsi5izM_10balatro_rs4cardNtB5_4Suit39___pymethod___default___pyo3__repr______
FN:215,_RNvXs3_NtCs6ewEfsi5izM_10balatro_rs4cardNtB5_4CardNtNtCs1p5UDGgVI4d_4core3fmt5Debug3fmt
FN:230,_RNvXs4_NtCs6ewEfsi5izM_10balatro_rs4cardNtB5_4CardNtNtCs1p5UDGgVI4d_4core3fmt7Display3fmt
FN:57,_RNvXs_NtCs6ewEfsi5izM_10balatro_rs4cardcINtNtCs1p5UDGgVI4d_4core7convert4FromNtB4_5ValueE4from
FN:264,_RNvNtNtCs6ewEfsi5izM_10balatro_rs4card5testss_13test_even_odd
FN:249,_RNvNtNtCs6ewEfsi5izM_10balatro_rs4card5testss_16test_constructor
FN:256,_RNvNtNtCs6ewEfsi5izM_10balatro_rs4card5testss_9test_face
FN:51,_RNvMNtCsfztrlbScSWy_10balatro_rs4cardNtB2_5Value6values
FN:91,_RNvMs0_NtCsfztrlbScSWy_10balatro_rs4cardNtB5_4Suit5suits
FN:94,_RNvMs0_NtCsfztrlbScSWy_10balatro_rs4cardNtB5_4Suit7unicode
FN:132,_RNvMs17_NtCsfztrlbScSWy_10balatro_rs4cardNtB6_7Edition38___pymethod___default___pyo3__int______
FN:132,_RNvMs17_NtCsfztrlbScSWy_10balatro_rs4cardNtB6_7Edition39___pymethod___default___pyo3__repr______
FN:144,_RNvMs1q_NtCsfztrlbScSWy_10balatro_rs4cardNtB6_4Seal38___pymethod___default___pyo3__int______
FN:144,_RNvMs1q_NtCsfztrlbScSWy_10balatro_rs4cardNtB6_4Seal39___pymethod___default___pyo3__repr______
FN:171,_RNvMs2_NtCsfztrlbScSWy_10balatro_rs4cardNtB5_4Card3new
FN:195,_RNvMs2_NtCsfztrlbScSWy_10balatro_rs4cardNtB5_4Card5chips
FN:191,_RNvMs2_NtCsfztrlbScSWy_10balatro_rs4cardNtB5_4Card6is_odd
FN:187,_RNvMs2_NtCsfztrlbScSWy_10balatro_rs4cardNtB5_4Card7is_even
FN:183,_RNvMs2_NtCsfztrlbScSWy_10balatro_rs4cardNtB5_4Card7is_face
FN:117,_RNvMsO_NtCsfztrlbScSWy_10balatro_rs4cardNtB5_11Enhancement38___pymethod___default___pyo3__int______
FN:117,_RNvMsO_NtCsfztrlbScSWy_10balatro_rs4cardNtB5_11Enhancement39___pymethod___default___pyo3__repr______
FN:14,_RNvMsc_NtCsfztrlbScSWy_10balatro_rs4cardNtB5_5Value38___pymethod___default___pyo3__int______
FN:14,_RNvMsc_NtCsfztrlbScSWy_10balatro_rs4cardNtB5_5Value39___pymethod___default___pyo3__repr______
FN:78,_RNvMsv_NtCsfztrlbScSWy_10balatro_rs4cardNtB5_4Suit38___pymethod___default___pyo3__int______
FN:78,_RNvMsv_NtCsfztrlbScSWy_10balatro_rs4cardNtB5_4Suit39___pymethod___default___pyo3__repr______
FN:105,_RNvXs1_NtCsfztrlbScSWy_10balatro_rs4cardcINtNtCs1p5UDGgVI4d_4core7convert4FromNtB5_4SuitE4from
FN:215,_RNvXs3_NtCsfztrlbScSWy_10balatro_rs4cardNtB5_4CardNtNtCs1p5UDGgVI4d_4core3fmt5Debug3fmt
FN:230,_RNvXs4_NtCsfztrlbScSWy_10balatro_rs4cardNtB5_4CardNtNtCs1p5UDGgVI4d_4core3fmt7Display3fmt
FN:57,_RNvXs_NtCsfztrlbScSWy_10balatro_rs4cardcINtNtCs1p5UDGgVI4d_4core7convert4FromNtB4_5ValueE4from
FN:77,_RINvXs0_NvXNvNtCsfztrlbScSWy_10balatro_rs4cards2_1__NtBb_4SuitNtNtCsWuCv7H75Ac_5serde2de11Deserialize11deserializeNtB6_9___VisitorNtB10_7Visitor10visit_enumINtNtCs9DWYcYz1PvJ_10serde_json2de13VariantAccessNtNtB2z_4read7StrReadEEBd_
FN:77,_RINvXs0_NvXNvNtCsfztrlbScSWy_10balatro_rs4cards2_1__NtBb_4SuitNtNtCsWuCv7H75Ac_5serde2de11Deserialize11deserializeNtB6_9___VisitorNtB10_7Visitor10visit_enumINtNtCs9DWYcYz1PvJ_10serde_json2de17UnitVariantAccessNtNtB2z_4read7StrReadEEBd_
FN:116,_RINvXs0_NvXNvNtCsfztrlbScSWy_10balatro_rs4cards5_1__NtBb_11EnhancementNtNtCsWuCv7H75Ac_5serde2de11Deserialize11deserializeNtB6_9___VisitorNtB18_7Visitor10visit_enumINtNtCs9DWYcYz1PvJ_10serde_json2de13VariantAccessNtNtB2H_4read7StrReadEEBd_
FN:116,_RINvXs0_NvXNvNtCsfztrlbScSWy_10balatro_rs4cards5_1__NtBb_11EnhancementNtNtCsWuCv7H75Ac_5serde2de11Deserialize11deserializeNtB6_9___VisitorNtB18_7Visitor10visit_enumINtNtCs9DWYcYz1PvJ_10serde_json2de17UnitVariantAccessNtNtB2H_4read7StrReadEEBd_
FN:131,_RINvXs0_NvXNvNtCsfztrlbScSWy_10balatro_rs4cards8_1__NtBb_7EditionNtNtCsWuCv7H75Ac_5serde2de11Deserialize11deserializeNtB6_9___VisitorNtB13_7Visitor10visit_enumINtNtCs9DWYcYz1PvJ_10serde_json2de13VariantAccessNtNtB2C_4read7StrReadEEBd_
FN:131,_RINvXs0_NvXNvNtCsfztrlbScSWy_10balatro_rs4cards8_1__NtBb_7EditionNtNtCsWuCv7H75Ac_5serde2de11Deserialize11deserializeNtB6_9___VisitorNtB13_7Visitor10visit_enumINtNtCs9DWYcYz1PvJ_10serde_json2de17UnitVariantAccessNtNtB2C_4read7StrReadEEBd_
FN:13,_RINvXs0_NvXNvNtCsfztrlbScSWy_10balatro_rs4cards_1__NtBb_5ValueNtNtCsWuCv7H75Ac_5serde2de11Deserialize11deserializeNtB6_9___VisitorNtB10_7Visitor10visit_enumINtNtCs9DWYcYz1PvJ_10serde_json2de13VariantAccessNtNtB2z_4read7StrReadEEBd_
FN:13,_RINvXs0_NvXNvNtCsfztrlbScSWy_10balatro_rs4cards_1__NtBb_5ValueNtNtCsWuCv7H75Ac_5serde2de11Deserialize11deserializeNtB6_9___VisitorNtB10_7Visitor10visit_enumINtNtCs9DWYcYz1PvJ_10serde_json2de17UnitVariantAccessNtNtB2z_4read7StrReadEEBd_
FN:143,_RINvXs0_NvXNvNtCsfztrlbScSWy_10balatro_rs4cardsb_1__NtBb_4SealNtNtCsWuCv7H75Ac_5serde2de11Deserialize11deserializeNtB6_9___VisitorNtB10_7Visitor10visit_enumINtNtCs9DWYcYz1PvJ_10serde_json2de13VariantAccessNtNtB2z_4read7StrReadEEBd_
FN:143,_RINvXs0_NvXNvNtCsfztrlbScSWy_10balatro_rs4cardsb_1__NtBb_4SealNtNtCsWuCv7H75Ac_5serde2de11Deserialize11deserializeNtB6_9___VisitorNtB10_7Visitor10visit_enumINtNtCs9DWYcYz1PvJ_10serde_json2de17UnitVariantAccessNtNtB2z_4read7StrReadEEBd_
FN:158,_RINvXs0_NvXNvNtCsfztrlbScSWy_10balatro_rs4cardse_1__NtBb_4CardNtNtCsWuCv7H75Ac_5serde2de11Deserialize11deserializeNtB6_9___VisitorNtB10_7Visitor9visit_mapINtNtCs9DWYcYz1PvJ_10serde_json2de9MapAccessNtNtB2x_4read7StrReadEEBd_
FN:158,_RINvXs0_NvXNvNtCsfztrlbScSWy_10balatro_rs4cardse_1__NtBb_4CardNtNtCsWuCv7H75Ac_5serde2de11Deserialize11deserializeNtB6_9___VisitorNtB10_7Visitor9visit_seqINtNtCs9DWYcYz1PvJ_10serde_json2de9SeqAccessNtNtB2x_4read7StrReadEEBd_
FNDA:0,_RINvXs0_NvXNvNtCs6ewEfsi5izM_10balatro_rs4cards2_1__NtBb_4SuitNtNtCsWuCv7H75Ac_5serde2de11Deserialize11deserializeNtB6_9___VisitorNtB10_7Visitor10visit_enumpEBd_
FNDA:0,_RINvXs0_NvXNvNtCs6ewEfsi5izM_10balatro_rs4cards5_1__NtBb_11EnhancementNtNtCsWuCv7H75Ac_5serde2de11Deserialize11deserializeNtB6_9___VisitorNtB18_7Visitor10visit_enumpEBd_
FNDA:0,_RINvXs0_NvXNvNtCs6ewEfsi5izM_10balatro_rs4cards8_1__NtBb_7EditionNtNtCsWuCv7H75Ac_5serde2de11Deserialize11deserializeNtB6_9___VisitorNtB13_7Visitor10visit_enumpEBd_
FNDA:0,_RINvXs0_NvXNvNtCs6ewEfsi5izM_10balatro_rs4cards_1__NtBb_5ValueNtNtCsWuCv7H75Ac_5serde2de11Deserialize11deserializeNtB6_9___VisitorNtB10_7Visitor10visit_enumpEBd_
FNDA:0,_RINvXs0_NvXNvNtCs6ewEfsi5izM_10balatro_rs4cardsb_1__NtBb_4SealNtNtCsWuCv7H75Ac_5serde2de11Deserialize11deserializeNtB6_9___VisitorNtB10_7Visitor10visit_enumpEBd_
FNDA:0,_RINvXs0_NvXNvNtCs6ewEfsi5izM_10balatro_rs4cardse_1__NtBb_4CardNtNtCsWuCv7H75Ac_5serde2de11Deserialize11deserializeNtB6_9___VisitorNtB10_7Visitor9visit_mappEBd_
FNDA:0,_RINvXs0_NvXNvNtCs6ewEfsi5izM_10balatro_rs4cardse_1__NtBb_4CardNtNtCsWuCv7H75Ac_5serde2de11Deserialize11deserializeNtB6_9___VisitorNtB10_7Visitor9visit_seqpEBd_
FNDA:0,_RNvXs1_NtCs6ewEfsi5izM_10balatro_rs4cardcINtNtCs1p5UDGgVI4d_4core7convert4FromNtB5_4SuitE4from
FNDA:59,_RNvMNtCs6ewEfsi5izM_10balatro_rs4cardNtB2_5Value6values
FNDA:767,_RNvMs0_NtCs6ewEfsi5izM_10balatro_rs4cardNtB5_4Suit5suits
FNDA:39885,_RNvMs0_NtCs6ewEfsi5izM_10balatro_rs4cardNtB5_4Suit7unicode
FNDA:0,_RNvMs17_NtCs6ewEfsi5izM_10balatro_rs4cardNtB6_7Edition38___pymethod___default___pyo3__int______
FNDA:0,_RNvMs17_NtCs6ewEfsi5izM_10balatro_rs4cardNtB6_7Edition39___pymethod___default___pyo3__repr______
FNDA:0,_RNvMs1q_NtCs6ewEfsi5izM_10balatro_rs4cardNtB6_4Seal38___pymethod___default___pyo3__int______
FNDA:0,_RNvMs1q_NtCs6ewEfsi5izM_10balatro_rs4cardNtB6_4Seal39___pymethod___default___pyo3__repr______
FNDA:3547,_RNvMs2_NtCs6ewEfsi5izM_10balatro_rs4cardNtB5_4Card3new
FNDA:180,_RNvMs2_NtCs6ewEfsi5izM_10balatro_rs4cardNtB5_4Card5chips
FNDA:5,_RNvMs2_NtCs6ewEfsi5izM_10balatro_rs4cardNtB5_4Card6is_odd
FNDA:5,_RNvMs2_NtCs6ewEfsi5izM_10balatro_rs4cardNtB5_4Card7is_even
FNDA:10,_RNvMs2_NtCs6ewEfsi5izM_10balatro_rs4cardNtB5_4Card7is_face
FNDA:0,_RNvMsO_NtCs6ewEfsi5izM_10balatro_rs4cardNtB5_11Enhancement38___pymethod___default___pyo3__int______
FNDA:0,_RNvMsO_NtCs6ewEfsi5izM_10balatro_rs4cardNtB5_11Enhancement39___pymethod___default___pyo3__repr______
FNDA:0,_RNvMsc_NtCs6ewEfsi5izM_10balatro_rs4cardNtB5_5Value38___pymethod___default___pyo3__int______
FNDA:0,_RNvMsc_NtCs6ewEfsi5izM_10balatro_rs4cardNtB5_5Value39___pymethod___default___pyo3__repr______
FNDA:0,_RNvMsv_NtCs6ewEfsi5izM_10balatro_rs4cardNtB5_4Suit38___pymethod___default___pyo3__int______
FNDA:0,_RNvMsv_NtCs6ewEfsi5izM_10balatro_rs4cardNtB5_4Suit39___pymethod___default___pyo3__repr______
FNDA:39885,_RNvXs3_NtCs6ewEfsi5izM_10balatro_rs4cardNtB5_4CardNtNtCs1p5UDGgVI4d_4core3fmt5Debug3fmt
FNDA:0,_RNvXs4_NtCs6ewEfsi5izM_10balatro_rs4cardNtB5_4CardNtNtCs1p5UDGgVI4d_4core3fmt7Display3fmt
FNDA:39885,_RNvXs_NtCs6ewEfsi5izM_10balatro_rs4cardcINtNtCs1p5UDGgVI4d_4core7convert4FromNtB4_5ValueE4from
FNDA:1,_RNvNtNtCs6ewEfsi5izM_10balatro_rs4card5testss_13test_even_odd
FNDA:1,_RNvNtNtCs6ewEfsi5izM_10balatro_rs4card5testss_16test_constructor
FNDA:1,_RNvNtNtCs6ewEfsi5izM_10balatro_rs4card5testss_9test_face
FNDA:56,_RNvMNtCsfztrlbScSWy_10balatro_rs4cardNtB2_5Value6values
FNDA:728,_RNvMs0_NtCsfztrlbScSWy_10balatro_rs4cardNtB5_4Suit5suits
FNDA:0,_RNvMs0_NtCsfztrlbScSWy_10balatro_rs4cardNtB5_4Suit7unicode
FNDA:0,_RNvMs17_NtCsfztrlbScSWy_10balatro_rs4cardNtB6_7Edition38___pymethod___default___pyo3__int______
FNDA:0,_RNvMs17_NtCsfztrlbScSWy_10balatro_rs4cardNtB6_7Edition39___pymethod___default___pyo3__repr______
FNDA:0,_RNvMs1q_NtCsfztrlbScSWy_10balatro_rs4cardNtB6_4Seal38___pymethod___default___pyo3__int______
FNDA:0,_RNvMs1q_NtCsfztrlbScSWy_10balatro_rs4cardNtB6_4Seal39___pymethod___default___pyo3__repr______
FNDA:2989,_RNvMs2_NtCsfztrlbScSWy_10balatro_rs4cardNtB5_4Card3new
FNDA:38,_RNvMs2_NtCsfztrlbScSWy_10balatro_rs4cardNtB5_4Card5chips
FNDA:0,_RNvMs2_NtCsfztrlbScSWy_10balatro_rs4cardNtB5_4Card6is_odd
FNDA:0,_RNvMs2_NtCsfztrlbScSWy_10balatro_rs4cardNtB5_4Card7is_even
FNDA:257,_RNvMs2_NtCsfztrlbScSWy_10balatro_rs4cardNtB5_4Card7is_face
FNDA:0,_RNvMsO_NtCsfztrlbScSWy_10balatro_rs4cardNtB5_11Enhancement38___pymethod___default___pyo3__int______
FNDA:0,_RNvMsO_NtCsfztrlbScSWy_10balatro_rs4cardNtB5_11Enhancement39___pymethod___default___pyo3__repr______
FNDA:0,_RNvMsc_NtCsfztrlbScSWy_10balatro_rs4cardNtB5_5Value38___pymethod___default___pyo3__int______
FNDA:0,_RNvMsc_NtCsfztrlbScSWy_10balatro_rs4cardNtB5_5Value39___pymethod___default___pyo3__repr______
FNDA:0,_RNvMsv_NtCsfztrlbScSWy_10balatro_rs4cardNtB5_4Suit38___pymethod___default___pyo3__int______
FNDA:0,_RNvMsv_NtCsfztrlbScSWy_10balatro_rs4cardNtB5_4Suit39___pymethod___default___pyo3__repr______
FNDA:0,_RNvXs1_NtCsfztrlbScSWy_10balatro_rs4cardcINtNtCs1p5UDGgVI4d_4core7convert4FromNtB5_4SuitE4from
FNDA:0,_RNvXs3_NtCsfztrlbScSWy_10balatro_rs4cardNtB5_4CardNtNtCs1p5UDGgVI4d_4core3fmt5Debug3fmt
FNDA:0,_RNvXs4_NtCsfztrlbScSWy_10balatro_rs4cardNtB5_4CardNtNtCs1p5UDGgVI4d_4core3fmt7Display3fmt
FNDA:0,_RNvXs_NtCsfztrlbScSWy_10balatro_rs4cardcINtNtCs1p5UDGgVI4d_4core7convert4FromNtB4_5ValueE4from
FNDA:0,_RINvXs0_NvXNvNtCsfztrlbScSWy_10balatro_rs4cards2_1__NtBb_4SuitNtNtCsWuCv7H75Ac_5serde2de11Deserialize11deserializeNtB6_9___VisitorNtB10_7Visitor10visit_enumINtNtCs9DWYcYz1PvJ_10serde_json2de13VariantAccessNtNtB2z_4read7StrReadEEBd_
FNDA:0,_RINvXs0_NvXNvNtCsfztrlbScSWy_10balatro_rs4cards2_1__NtBb_4SuitNtNtCsWuCv7H75Ac_5serde2de11Deserialize11deserializeNtB6_9___VisitorNtB10_7Visitor10visit_enumINtNtCs9DWYcYz1PvJ_10serde_json2de17UnitVariantAccessNtNtB2z_4read7StrReadEEBd_
FNDA:0,_RINvXs0_NvXNvNtCsfztrlbScSWy_10balatro_rs4cards5_1__NtBb_11EnhancementNtNtCsWuCv7H75Ac_5serde2de11Deserialize11deserializeNtB6_9___VisitorNtB18_7Visitor10visit_enumINtNtCs9DWYcYz1PvJ_10serde_json2de13VariantAccessNtNtB2H_4read7StrReadEEBd_
FNDA:0,_RINvXs0_NvXNvNtCsfztrlbScSWy_10balatro_rs4cards5_1__NtBb_11EnhancementNtNtCsWuCv7H75Ac_5serde2de11Deserialize11deserializeNtB6_9___VisitorNtB18_7Visitor10visit_enumINtNtCs9DWYcYz1PvJ_10serde_json2de17UnitVariantAccessNtNtB2H_4read7StrReadEEBd_
FNDA:0,_RINvXs0_NvXNvNtCsfztrlbScSWy_10balatro_rs4cards8_1__NtBb_7EditionNtNtCsWuCv7H75Ac_5serde2de11Deserialize11deserializeNtB6_9___VisitorNtB13_7Visitor10visit_enumINtNtCs9DWYcYz1PvJ_10serde_json2de13VariantAccessNtNtB2C_4read7StrReadEEBd_
FNDA:0,_RINvXs0_NvXNvNtCsfztrlbScSWy_10balatro_rs4cards8_1__NtBb_7EditionNtNtCsWuCv7H75Ac_5serde2de11Deserialize11deserializeNtB6_9___VisitorNtB13_7Visitor10visit_enumINtNtCs9DWYcYz1PvJ_10serde_json2de17UnitVariantAccessNtNtB2C_4read7StrReadEEBd_
FNDA:0,_RINvXs0_NvXNvNtCsfztrlbScSWy_10balatro_rs4cards_1__NtBb_5ValueNtNtCsWuCv7H75Ac_5serde2de11Deserialize11deserializeNtB6_9___VisitorNtB10_7Visitor10visit_enumINtNtCs9DWYcYz1PvJ_10serde_json2de13VariantAccessNtNtB2z_4read7StrReadEEBd_
FNDA:0,_RINvXs0_NvXNvNtCsfztrlbScSWy_10balatro_rs4cards_1__NtBb_5ValueNtNtCsWuCv7H75Ac_5serde2de11Deserialize11deserializeNtB6_9___VisitorNtB10_7Visitor10visit_enumINtNtCs9DWYcYz1PvJ_10serde_json2de17UnitVariantAccessNtNtB2z_4read7StrReadEEBd_
FNDA:0,_RINvXs0_NvXNvNtCsfztrlbScSWy_10balatro_rs4cardsb_1__NtBb_4SealNtNtCsWuCv7H75Ac_5serde2de11Deserialize11deserializeNtB6_9___VisitorNtB10_7Visitor10visit_enumINtNtCs9DWYcYz1PvJ_10serde_json2de13VariantAccessNtNtB2z_4read7StrReadEEBd_
FNDA:0,_RINvXs0_NvXNvNtCsfztrlbScSWy_10balatro_rs4cardsb_1__NtBb_4SealNtNtCsWuCv7H75Ac_5serde2de11Deserialize11deserializeNtB6_9___VisitorNtB10_7Visitor10visit_enumINtNtCs9DWYcYz1PvJ_10serde_json2de17UnitVariantAccessNtNtB2z_4read7StrReadEEBd_
FNDA:0,_RINvXs0_NvXNvNtCsfztrlbScSWy_10balatro_rs4cardse_1__NtBb_4CardNtNtCsWuCv7H75Ac_5serde2de11Deserialize11deserializeNtB6_9___VisitorNtB10_7Visitor9visit_mapINtNtCs9DWYcYz1PvJ_10serde_json2de9MapAccessNtNtB2x_4read7StrReadEEBd_
FNDA:0,_RINvXs0_NvXNvNtCsfztrlbScSWy_10balatro_rs4cardse_1__NtBb_4CardNtNtCsWuCv7H75Ac_5serde2de11Deserialize11deserializeNtB6_9___VisitorNtB10_7Visitor9visit_seqINtNtCs9DWYcYz1PvJ_10serde_json2de9SeqAccessNtNtB2x_4read7StrReadEEBd_
FNF:26
FNH:13
DA:13,0
DA:14,0
DA:51,115
DA:52,115
DA:53,115
DA:57,39885
DA:58,39885
DA:59,1218
DA:60,3358
DA:61,3300
DA:62,3112
DA:63,5676
DA:64,2787
DA:65,2535
DA:66,3354
DA:67,2698
DA:68,3865
DA:69,3938
DA:70,2471
DA:71,1573
DA:73,39885
DA:77,0
DA:78,0
DA:91,1495
DA:92,1495
DA:93,1495
DA:94,39885
DA:95,39885
DA:96,8710
DA:97,8609
DA:98,8817
DA:99,13749
DA:101,39885
DA:105,0
DA:106,0
DA:107,0
DA:108,0
DA:109,0
DA:110,0
DA:112,0
DA:116,0
DA:117,0
DA:131,0
DA:132,0
DA:143,0
DA:144,0
DA:158,0
DA:171,6536
DA:172,6536
DA:173,6536
DA:174,6536
DA:175,6536
DA:176,6536
DA:177,6536
DA:178,6536
DA:179,6536
DA:180,6536
DA:181,6536
DA:183,267
DA:184,267
DA:185,267
DA:187,5
DA:188,5
DA:189,5
DA:191,5
DA:192,5
DA:193,5
DA:195,218
DA:196,218
DA:197,10
DA:198,11
DA:199,10
DA:200,8
DA:201,9
DA:202,2
DA:203,3
DA:204,1
DA:205,11
DA:206,13
DA:207,4
DA:208,24
DA:209,112
DA:211,218
DA:215,39885
DA:217,39885
DA:218,8710
DA:219,8609
DA:220,8817
DA:221,13749
DA:225,39885
DA:226,39885
DA:230,0
DA:232,0
DA:233,0
DA:234,0
DA:235,0
DA:236,0
DA:240,0
DA:241,0
DA:249,1
DA:250,1
DA:251,1
DA:252,1
DA:253,1
DA:256,1
DA:257,1
DA:258,1
DA:259,1
DA:260,1
DA:261,1
DA:264,1
DA:266,1
DA:267,1
DA:268,1
DA:271,1
DA:272,1
DA:273,1
DA:276,1
DA:277,1
DA:278,1
DA:281,1
DA:282,1
DA:283,1
DA:286,1
DA:287,1
DA:288,1
DA:289,1
BRF:0
BRH:0
LF:127
LH:101
end_of_record
SF:/home/spduncan/balatro-rs-ws/fix-issue-184-cicd-pipeline/core/src/config.rs
FN:27,_RINvXs0_NvXNvNtCs6ewEfsi5izM_10balatro_rs6configs_1__NtBb_6ConfigNtNtCsWuCv7H75Ac_5serde2de11Deserialize11deserializeNtB6_9___VisitorNtB13_7Visitor9visit_mappEBd_
FN:27,_RINvXs0_NvXNvNtCs6ewEfsi5izM_10balatro_rs6configs_1__NtBb_6ConfigNtNtCsWuCv7H75Ac_5serde2de11Deserialize11deserializeNtB6_9___VisitorNtB13_7Visitor9visit_seqpEBd_
FN:56,_RNvMNtCs6ewEfsi5izM_10balatro_rs6configNtB2_6Config3new
FN:99,_RNvMsd_NtCs6ewEfsi5izM_10balatro_rs6configNtB5_6Config12get_ante_end
FN:139,_RNvMsd_NtCs6ewEfsi5izM_10balatro_rs6configNtB5_6Config12get_deck_max
FN:119,_RNvMsd_NtCs6ewEfsi5izM_10balatro_rs6configNtB5_6Config12get_discards
FN:104,_RNvMsd_NtCs6ewEfsi5izM_10balatro_rs6configNtB5_6Config12set_ante_end
FN:144,_RNvMsd_NtCs6ewEfsi5izM_10balatro_rs6configNtB5_6Config12set_deck_max
FN:124,_RNvMsd_NtCs6ewEfsi5izM_10balatro_rs6configNtB5_6Config12set_discards
FN:189,_RNvMsd_NtCs6ewEfsi5izM_10balatro_rs6configNtB5_6Config13get_money_max
FN:198,_RNvMsd_NtCs6ewEfsi5izM_10balatro_rs6configNtB5_6Config13get_stage_max
FN:194,_RNvMsd_NtCs6ewEfsi5izM_10balatro_rs6configNtB5_6Config13set_money_max
FN:169,_RNvMsd_NtCs6ewEfsi5izM_10balatro_rs6configNtB5_6Config15get_joker_slots
FN:174,_RNvMsd_NtCs6ewEfsi5izM_10balatro_rs6configNtB5_6Config15set_joker_slots
FN:129,_RNvMsd_NtCs6ewEfsi5izM_10balatro_rs6configNtB5_6Config16get_selected_max
FN:134,_RNvMsd_NtCs6ewEfsi5izM_10balatro_rs6configNtB5_6Config16set_selected_max
FN:159,_RNvMsd_NtCs6ewEfsi5izM_10balatro_rs6configNtB5_6Config17get_available_max
FN:149,_RNvMsd_NtCs6ewEfsi5izM_10balatro_rs6configNtB5_6Config17get_discarded_max
FN:164,_RNvMsd_NtCs6ewEfsi5izM_10balatro_rs6configNtB5_6Config17set_available_max
FN:154,_RNvMsd_NtCs6ewEfsi5izM_10balatro_rs6configNtB5_6Config17set_discarded_max
FN:179,_RNvMsd_NtCs6ewEfsi5izM_10balatro_rs6configNtB5_6Config19get_joker_slots_max
FN:184,_RNvMsd_NtCs6ewEfsi5izM_10balatro_rs6configNtB5_6Config19set_joker_slots_max
FN:94,_RNvMsd_NtCs6ewEfsi5izM_10balatro_rs6configNtB5_6Config6py_new
FN:109,_RNvMsd_NtCs6ewEfsi5izM_10balatro_rs6configNtB5_6Config9get_plays
FN:114,_RNvMsd_NtCs6ewEfsi5izM_10balatro_rs6configNtB5_6Config9set_plays
FN:91,_RNvMsf_NtCs6ewEfsi5izM_10balatro_rs6configNtB5_6Config26___pymethod_get_get_plays__
FN:91,_RNvMsf_NtCs6ewEfsi5izM_10balatro_rs6configNtB5_6Config29___pymethod_get_get_ante_end__
FN:91,_RNvMsf_NtCs6ewEfsi5izM_10balatro_rs6configNtB5_6Config29___pymethod_get_get_deck_max__
FN:91,_RNvMsf_NtCs6ewEfsi5izM_10balatro_rs6configNtB5_6Config29___pymethod_get_get_discards__
FN:91,_RNvMsf_NtCs6ewEfsi5izM_10balatro_rs6configNtB5_6Config30___pymethod_get_get_money_max__
FN:91,_RNvMsf_NtCs6ewEfsi5izM_10balatro_rs6configNtB5_6Config30___pymethod_get_get_stage_max__
FN:91,_RNvMsf_NtCs6ewEfsi5izM_10balatro_rs6configNtB5_6Config32___pymethod_get_get_joker_slots__
FN:91,_RNvMsf_NtCs6ewEfsi5izM_10balatro_rs6configNtB5_6Config33___pymethod_get_get_selected_max__
FN:91,_RNvMsf_NtCs6ewEfsi5izM_10balatro_rs6configNtB5_6Config34___pymethod_get_get_available_max__
FN:91,_RNvMsf_NtCs6ewEfsi5izM_10balatro_rs6configNtB5_6Config34___pymethod_get_get_discarded_max__
FN:91,_RNvMsf_NtCs6ewEfsi5izM_10balatro_rs6configNtB5_6Config36___pymethod_get_get_joker_slots_max__
FN:85,_RNvXs_NtCs6ewEfsi5izM_10balatro_rs6configNtB4_6ConfigNtNtCs1p5UDGgVI4d_4core7default7Default7default
FN:56,_RNvMNtCsfztrlbScSWy_10balatro_rs6configNtB2_6Config3new
FN:99,_RNvMsd_NtCsfztrlbScSWy_10balatro_rs6configNtB5_6Config12get_ante_end
FN:139,_RNvMsd_NtCsfztrlbScSWy_10balatro_rs6configNtB5_6Config12get_deck_max
FN:119,_RNvMsd_NtCsfztrlbScSWy_10balatro_rs6configNtB5_6Config12get_discards
FN:104,_RNvMsd_NtCsfztrlbScSWy_10balatro_rs6configNtB5_6Config12set_ante_end
FN:144,_RNvMsd_NtCsfztrlbScSWy_10balatro_rs6configNtB5_6Config12set_deck_max
FN:124,_RNvMsd_NtCsfztrlbScSWy_10balatro_rs6configNtB5_6Config12set_discards
FN:189,_RNvMsd_NtCsfztrlbScSWy_10balatro_rs6configNtB5_6Config13get_money_max
FN:198,_RNvMsd_NtCsfztrlbScSWy_10balatro_rs6configNtB5_6Config13get_stage_max
FN:194,_RNvMsd_NtCsfztrlbScSWy_10balatro_rs6configNtB5_6Config13set_money_max
FN:169,_RNvMsd_NtCsfztrlbScSWy_10balatro_rs6configNtB5_6Config15get_joker_slots
FN:174,_RNvMsd_NtCsfztrlbScSWy_10balatro_rs6configNtB5_6Config15set_joker_slots
FN:129,_RNvMsd_NtCsfztrlbScSWy_10balatro_rs6configNtB5_6Config16get_selected_max
FN:134,_RNvMsd_NtCsfztrlbScSWy_10balatro_rs6configNtB5_6Config16set_selected_max
FN:159,_RNvMsd_NtCsfztrlbScSWy_10balatro_rs6configNtB5_6Config17get_available_max
FN:149,_RNvMsd_NtCsfztrlbScSWy_10balatro_rs6configNtB5_6Config17get_discarded_max
FN:164,_RNvMsd_NtCsfztrlbScSWy_10balatro_rs6configNtB5_6Config17set_available_max
FN:154,_RNvMsd_NtCsfztrlbScSWy_10balatro_rs6configNtB5_6Config17set_discarded_max
FN:179,_RNvMsd_NtCsfztrlbScSWy_10balatro_rs6configNtB5_6Config19get_joker_slots_max
FN:184,_RNvMsd_NtCsfztrlbScSWy_10balatro_rs6configNtB5_6Config19set_joker_slots_max
FN:94,_RNvMsd_NtCsfztrlbScSWy_10balatro_rs6configNtB5_6Config6py_new
FN:109,_RNvMsd_NtCsfztrlbScSWy_10balatro_rs6configNtB5_6Config9get_plays
FN:114,_RNvMsd_NtCsfztrlbScSWy_10balatro_rs6configNtB5_6Config9set_plays
FN:91,_RNvMsf_NtCsfztrlbScSWy_10balatro_rs6configNtB5_6Config26___pymethod_get_get_plays__
FN:91,_RNvMsf_NtCsfztrlbScSWy_10balatro_rs6configNtB5_6Config29___pymethod_get_get_ante_end__
FN:91,_RNvMsf_NtCsfztrlbScSWy_10balatro_rs6configNtB5_6Config29___pymethod_get_get_deck_max__
FN:91,_RNvMsf_NtCsfztrlbScSWy_10balatro_rs6configNtB5_6Config29___pymethod_get_get_discards__
FN:91,_RNvMsf_NtCsfztrlbScSWy_10balatro_rs6configNtB5_6Config30___pymethod_get_get_money_max__
FN:91,_RNvMsf_NtCsfztrlbScSWy_10balatro_rs6configNtB5_6Config30___pymethod_get_get_stage_max__
FN:91,_RNvMsf_NtCsfztrlbScSWy_10balatro_rs6configNtB5_6Config32___pymethod_get_get_joker_slots__
FN:91,_RNvMsf_NtCsfztrlbScSWy_10balatro_rs6configNtB5_6Config33___pymethod_get_get_selected_max__
FN:91,_RNvMsf_NtCsfztrlbScSWy_10balatro_rs6configNtB5_6Config34___pymethod_get_get_available_max__
FN:91,_RNvMsf_NtCsfztrlbScSWy_10balatro_rs6configNtB5_6Config34___pymethod_get_get_discarded_max__
FN:91,_RNvMsf_NtCsfztrlbScSWy_10balatro_rs6configNtB5_6Config36___pymethod_get_get_joker_slots_max__
FN:85,_RNvXs_NtCsfztrlbScSWy_10balatro_rs6configNtB4_6ConfigNtNtCs1p5UDGgVI4d_4core7default7Default7default
FN:27,_RINvXs0_NvXNvNtCsfztrlbScSWy_10balatro_rs6configs_1__NtBb_6ConfigNtNtCsWuCv7H75Ac_5serde2de11Deserialize11deserializeNtB6_9___VisitorNtB13_7Visitor9visit_mapINtNtCs9DWYcYz1PvJ_10serde_json2de9MapAccessNtNtB2A_4read7StrReadEEBd_
FN:27,_RINvXs0_NvXNvNtCsfztrlbScSWy_10balatro_rs6configs_1__NtBb_6ConfigNtNtCsWuCv7H75Ac_5serde2de11Deserialize11deserializeNtB6_9___VisitorNtB13_7Visitor9visit_seqINtNtCs9DWYcYz1PvJ_10serde_json2de9SeqAccessNtNtB2A_4read7StrReadEEBd_
FNDA:0,_RINvXs0_NvXNvNtCs6ewEfsi5izM_10balatro_rs6configs_1__NtBb_6ConfigNtNtCsWuCv7H75Ac_5serde2de11Deserialize11deserializeNtB6_9___VisitorNtB13_7Visitor9visit_mappEBd_
FNDA:0,_RINvXs0_NvXNvNtCs6ewEfsi5izM_10balatro_rs6configs_1__NtBb_6ConfigNtNtCsWuCv7H75Ac_5serde2de11Deserialize11deserializeNtB6_9___VisitorNtB13_7Visitor9visit_seqpEBd_
FNDA:61,_RNvMNtCs6ewEfsi5izM_10balatro_rs6configNtB2_6Config3new
FNDA:0,_RNvMsd_NtCs6ewEfsi5izM_10balatro_rs6configNtB5_6Config12get_ante_end
FNDA:0,_RNvMsd_NtCs6ewEfsi5izM_10balatro_rs6configNtB5_6Config12get_deck_max
FNDA:0,_RNvMsd_NtCs6ewEfsi5izM_10balatro_rs6configNtB5_6Config12get_discards
FNDA:0,_RNvMsd_NtCs6ewEfsi5izM_10balatro_rs6configNtB5_6Config12set_ante_end
FNDA:0,_RNvMsd_NtCs6ewEfsi5izM_10balatro_rs6configNtB5_6Config12set_deck_max
FNDA:0,_RNvMsd_NtCs6ewEfsi5izM_10balatro_rs6configNtB5_6Config12set_discards
FNDA:0,_RNvMsd_NtCs6ewEfsi5izM_10balatro_rs6configNtB5_6Config13get_money_max
FNDA:0,_RNvMsd_NtCs6ewEfsi5izM_10balatro_rs6configNtB5_6Config13get_stage_max
FNDA:0,_RNvMsd_NtCs6ewEfsi5izM_10balatro_rs6configNtB5_6Config13set_money_max
FNDA:0,_RNvMsd_NtCs6ewEfsi5izM_10balatro_rs6configNtB5_6Config15get_joker_slots
FNDA:0,_RNvMsd_NtCs6ewEfsi5izM_10balatro_rs6configNtB5_6Config15set_joker_slots
FNDA:0,_RNvMsd_NtCs6ewEfsi5izM_10balatro_rs6configNtB5_6Config16get_selected_max
FNDA:0,_RNvMsd_NtCs6ewEfsi5izM_10balatro_rs6configNtB5_6Config16set_selected_max
FNDA:0,_RNvMsd_NtCs6ewEfsi5izM_10balatro_rs6configNtB5_6Config17get_available_max
FNDA:0,_RNvMsd_NtCs6ewEfsi5izM_10balatro_rs6configNtB5_6Config17get_discarded_max
FNDA:0,_RNvMsd_NtCs6ewEfsi5izM_10balatro_rs6configNtB5_6Config17set_available_max
FNDA:0,_RNvMsd_NtCs6ewEfsi5izM_10balatro_rs6configNtB5_6Config17set_discarded_max
FNDA:0,_RNvMsd_NtCs6ewEfsi5izM_10balatro_rs6configNtB5_6Config19get_joker_slots_max
FNDA:0,_RNvMsd_NtCs6ewEfsi5izM_10balatro_rs6configNtB5_6Config19set_joker_slots_max
FNDA:0,_RNvMsd_NtCs6ewEfsi5izM_10balatro_rs6configNtB5_6Config6py_new
FNDA:0,_RNvMsd_NtCs6ewEfsi5izM_10balatro_rs6configNtB5_6Config9get_plays
FNDA:0,_RNvMsd_NtCs6ewEfsi5izM_10balatro_rs6configNtB5_6Config9set_plays
FNDA:0,_RNvMsf_NtCs6ewEfsi5izM_10balatro_rs6configNtB5_6Config26___pymethod_get_get_plays__
FNDA:0,_RNvMsf_NtCs6ewEfsi5izM_10balatro_rs6configNtB5_6Config29___pymethod_get_get_ante_end__
FNDA:0,_RNvMsf_NtCs6ewEfsi5izM_10balatro_rs6configNtB5_6Config29___pymethod_get_get_deck_max__
FNDA:0,_RNvMsf_NtCs6ewEfsi5izM_10balatro_rs6configNtB5_6Config29___pymethod_get_get_discards__
FNDA:0,_RNvMsf_NtCs6ewEfsi5izM_10balatro_rs6configNtB5_6Config30___pymethod_get_get_money_max__
FNDA:0,_RNvMsf_NtCs6ewEfsi5izM_10balatro_rs6configNtB5_6Config30___pymethod_get_get_stage_max__
FNDA:0,_RNvMsf_NtCs6ewEfsi5izM_10balatro_rs6configNtB5_6Config32___pymethod_get_get_joker_slots__
FNDA:0,_RNvMsf_NtCs6ewEfsi5izM_10balatro_rs6configNtB5_6Config33___pymethod_get_get_selected_max__
FNDA:0,_RNvMsf_NtCs6ewEfsi5izM_10balatro_rs6configNtB5_6Config34___pymethod_get_get_available_max__
FNDA:0,_RNvMsf_NtCs6ewEfsi5izM_10balatro_rs6configNtB5_6Config34___pymethod_get_get_discarded_max__
FNDA:0,_RNvMsf_NtCs6ewEfsi5izM_10balatro_rs6configNtB5_6Config36___pymethod_get_get_joker_slots_max__
FNDA:61,_RNvXs_NtCs6ewEfsi5izM_10balatro_rs6configNtB4_6ConfigNtNtCs1p5UDGgVI4d_4core7default7Default7default
FNDA:55,_RNvMNtCsfztrlbScSWy_10balatro_rs6configNtB2_6Config3new
FNDA:0,_RNvMsd_NtCsfztrlbScSWy_10balatro_rs6configNtB5_6Config12get_ante_end
FNDA:0,_RNvMsd_NtCsfztrlbScSWy_10balatro_rs6configNtB5_6Config12get_deck_max
FNDA:0,_RNvMsd_NtCsfztrlbScSWy_10balatro_rs6configNtB5_6Config12get_discards
FNDA:0,_RNvMsd_NtCsfztrlbScSWy_10balatro_rs6configNtB5_6Config12set_ante_end
FNDA:0,_RNvMsd_NtCsfztrlbScSWy_10balatro_rs6configNtB5_6Config12set_deck_max
FNDA:0,_RNvMsd_NtCsfztrlbScSWy_10balatro_rs6configNtB5_6Config12set_discards
FNDA:0,_RNvMsd_NtCsfztrlbScSWy_10balatro_rs6configNtB5_6Config13get_money_max
FNDA:0,_RNvMsd_NtCsfztrlbScSWy_10balatro_rs6configNtB5_6Config13get_stage_max
FNDA:0,_RNvMsd_NtCsfztrlbScSWy_10balatro_rs6configNtB5_6Config13set_money_max
FNDA:0,_RNvMsd_NtCsfztrlbScSWy_10balatro_rs6configNtB5_6Config15get_joker_slots
FNDA:0,_RNvMsd_NtCsfztrlbScSWy_10balatro_rs6configNtB5_6Config15set_joker_slots
FNDA:0,_RNvMsd_NtCsfztrlbScSWy_10balatro_rs6configNtB5_6Config16get_selected_max
FNDA:0,_RNvMsd_NtCsfztrlbScSWy_10balatro_rs6configNtB5_6Config16set_selected_max
FNDA:0,_RNvMsd_NtCsfztrlbScSWy_10balatro_rs6configNtB5_6Config17get_available_max
FNDA:0,_RNvMsd_NtCsfztrlbScSWy_10balatro_rs6configNtB5_6Config17get_discarded_max
FNDA:0,_RNvMsd_NtCsfztrlbScSWy_10balatro_rs6configNtB5_6Config17set_available_max
FNDA:0,_RNvMsd_NtCsfztrlbScSWy_10balatro_rs6configNtB5_6Config17set_discarded_max
FNDA:0,_RNvMsd_NtCsfztrlbScSWy_10balatro_rs6configNtB5_6Config19get_joker_slots_max
FNDA:0,_RNvMsd_NtCsfztrlbScSWy_10balatro_rs6configNtB5_6Config19set_joker_slots_max
FNDA:0,_RNvMsd_NtCsfztrlbScSWy_10balatro_rs6configNtB5_6Config6py_new
FNDA:0,_RNvMsd_NtCsfztrlbScSWy_10balatro_rs6configNtB5_6Config9get_plays
FNDA:0,_RNvMsd_NtCsfztrlbScSWy_10balatro_rs6configNtB5_6Config9set_plays
FNDA:0,_RNvMsf_NtCsfztrlbScSWy_10balatro_rs6configNtB5_6Config26___pymethod_get_get_plays__
FNDA:0,_RNvMsf_NtCsfztrlbScSWy_10balatro_rs6configNtB5_6Config29___pymethod_get_get_ante_end__
FNDA:0,_RNvMsf_NtCsfztrlbScSWy_10balatro_rs6configNtB5_6Config29___pymethod_get_get_deck_max__
FNDA:0,_RNvMsf_NtCsfztrlbScSWy_10balatro_rs6configNtB5_6Config29___pymethod_get_get_discards__
FNDA:0,_RNvMsf_NtCsfztrlbScSWy_10balatro_rs6configNtB5_6Config30___pymethod_get_get_money_max__
FNDA:0,_RNvMsf_NtCsfztrlbScSWy_10balatro_rs6configNtB5_6Config30___pymethod_get_get_stage_max__
FNDA:0,_RNvMsf_NtCsfztrlbScSWy_10balatro_rs6configNtB5_6Config32___pymethod_get_get_joker_slots__
FNDA:0,_RNvMsf_NtCsfztrlbScSWy_10balatro_rs6configNtB5_6Config33___pymethod_get_get_selected_max__
FNDA:0,_RNvMsf_NtCsfztrlbScSWy_10balatro_rs6configNtB5_6Config34___pymethod_get_get_available_max__
FNDA:0,_RNvMsf_NtCsfztrlbScSWy_10balatro_rs6configNtB5_6Config34___pymethod_get_get_discarded_max__
FNDA:0,_RNvMsf_NtCsfztrlbScSWy_10balatro_rs6configNtB5_6Config36___pymethod_get_get_joker_slots_max__
FNDA:55,_RNvXs_NtCsfztrlbScSWy_10balatro_rs6configNtB4_6ConfigNtNtCs1p5UDGgVI4d_4core7default7Default7default
FNDA:0,_RINvXs0_NvXNvNtCsfztrlbScSWy_10balatro_rs6configs_1__NtBb_6ConfigNtNtCsWuCv7H75Ac_5serde2de11Deserialize11deserializeNtB6_9___VisitorNtB13_7Visitor9visit_mapINtNtCs9DWYcYz1PvJ_10serde_json2de9MapAccessNtNtB2A_4read7StrReadEEBd_
FNDA:0,_RINvXs0_NvXNvNtCsfztrlbScSWy_10balatro_rs6configs_1__NtBb_6ConfigNtNtCsWuCv7H75Ac_5serde2de11Deserialize11deserializeNtB6_9___VisitorNtB13_7Visitor9visit_seqINtNtCs9DWYcYz1PvJ_10serde_json2de9SeqAccessNtNtB2A_4read7StrReadEEBd_
FNF:26
FNH:2
DA:27,0
DA:56,116
DA:57,116
DA:58,116
DA:59,116
DA:60,116
DA:61,116
DA:62,116
DA:63,116
DA:64,116
DA:65,116
DA:66,116
DA:67,116
DA:68,116
DA:69,116
DA:70,116
DA:71,116
DA:72,116
DA:73,116
DA:74,116
DA:75,116
DA:76,116
DA:77,116
DA:78,116
DA:79,116
DA:80,116
DA:81,116
DA:85,116
DA:86,116
DA:87,116
DA:91,0
DA:94,0
DA:95,0
DA:96,0
DA:99,0
DA:100,0
DA:101,0
DA:104,0
DA:105,0
DA:106,0
DA:109,0
DA:110,0
DA:111,0
DA:114,0
DA:115,0
DA:116,0
DA:119,0
DA:120,0
DA:121,0
DA:124,0
DA:125,0
DA:126,0
DA:129,0
DA:130,0
DA:131,0
DA:134,0
DA:135,0
DA:136,0
DA:139,0
DA:140,0
DA:141,0
DA:144,0
DA:145,0
DA:146,0
DA:149,0
DA:150,0
DA:151,0
DA:154,0
DA:155,0
DA:156,0
DA:159,0
DA:160,0
DA:161,0
DA:164,0
DA:165,0
DA:166,0
DA:169,0
DA:170,0
DA:171,0
DA:174,0
DA:175,0
DA:176,0
DA:179,0
DA:180,0
DA:181,0
DA:184,0
DA:185,0
DA:186,0
DA:189,0
DA:190,0
DA:191,0
DA:194,0
DA:195,0
DA:196,0
DA:198,0
DA:199,0
DA:200,0
BRF:0
BRH:0
LF:97
LH:29
end_of_record
SF:/home/spduncan/balatro-rs-ws/fix-issue-184-cicd-pipeline/core/src/consumables/mod.rs
FN:66,_RINvXs0_NvXNvNtCs6ewEfsi5izM_10balatro_rs11consumabless1_1__NtBb_12ConsumableIdNtNtCsWuCv7H75Ac_5serde2de11Deserialize11deserializeNtB6_9___VisitorNtB1h_7Visitor10visit_enumpEBd_
FN:44,_RINvXs0_NvXNvNtCs6ewEfsi5izM_10balatro_rs11consumabless_1__NtBb_14ConsumableTypeNtNtCsWuCv7H75Ac_5serde2de11Deserialize11deserializeNtB6_9___VisitorNtB1i_7Visitor10visit_enumpEBd_
FN:146,_RNvMs0_NtCs6ewEfsi5izM_10balatro_rs11consumablesNtB5_12ConsumableId15consumable_type
FN:141,_RNvMs0_NtCs6ewEfsi5izM_10balatro_rs11consumablesNtB5_12ConsumableId3all
FN:55,_RNvXNtCs6ewEfsi5izM_10balatro_rs11consumablesNtB2_14ConsumableTypeNtNtCs1p5UDGgVI4d_4core3fmt7Display3fmt
FN:173,_RNvMs0_NtCs6ewEfsi5izM_10balatro_rs11consumablesNtB5_12ConsumableId11tarot_cards
FN:184,_RNvMs0_NtCs6ewEfsi5izM_10balatro_rs11consumablesNtB5_12ConsumableId12planet_cards
FN:195,_RNvMs0_NtCs6ewEfsi5izM_10balatro_rs11consumablesNtB5_12ConsumableId14spectral_cards
FN:110,_RNvXs_NtCs6ewEfsi5izM_10balatro_rs11consumablesNtB4_12ConsumableIdNtNtCs1p5UDGgVI4d_4core3fmt7Display3fmt
FN:66,_RINvXs0_NvXNvNtCsfztrlbScSWy_10balatro_rs11consumabless1_1__NtBb_12ConsumableIdNtNtCsWuCv7H75Ac_5serde2de11Deserialize11deserializeNtB6_9___VisitorNtB1h_7Visitor10visit_enumINtNtCs9DWYcYz1PvJ_10serde_json2de13VariantAccessNtNtB2Q_4read7StrReadEEBd_
FN:66,_RINvXs0_NvXNvNtCsfztrlbScSWy_10balatro_rs11consumabless1_1__NtBb_12ConsumableIdNtNtCsWuCv7H75Ac_5serde2de11Deserialize11deserializeNtB6_9___VisitorNtB1h_7Visitor10visit_enumINtNtCs9DWYcYz1PvJ_10serde_json2de17UnitVariantAccessNtNtB2Q_4read7StrReadEEBd_
FN:44,_RINvXs0_NvXNvNtCsfztrlbScSWy_10balatro_rs11consumabless_1__NtBb_14ConsumableTypeNtNtCsWuCv7H75Ac_5serde2de11Deserialize11deserializeNtB6_9___VisitorNtB1i_7Visitor10visit_enumpEBd_
FN:173,_RNvMs0_NtCsfztrlbScSWy_10balatro_rs11consumablesNtB5_12ConsumableId11tarot_cards
FN:184,_RNvMs0_NtCsfztrlbScSWy_10balatro_rs11consumablesNtB5_12ConsumableId12planet_cards
FN:195,_RNvMs0_NtCsfztrlbScSWy_10balatro_rs11consumablesNtB5_12ConsumableId14spectral_cards
FN:146,_RNvMs0_NtCsfztrlbScSWy_10balatro_rs11consumablesNtB5_12ConsumableId15consumable_type
FN:141,_RNvMs0_NtCsfztrlbScSWy_10balatro_rs11consumablesNtB5_12ConsumableId3all
FN:55,_RNvXNtCsfztrlbScSWy_10balatro_rs11consumablesNtB2_14ConsumableTypeNtNtCs1p5UDGgVI4d_4core3fmt7Display3fmt
FN:110,_RNvXs_NtCsfztrlbScSWy_10balatro_rs11consumablesNtB4_12ConsumableIdNtNtCs1p5UDGgVI4d_4core3fmt7Display3fmt
FNDA:0,_RINvXs0_NvXNvNtCs6ewEfsi5izM_10balatro_rs11consumabless1_1__NtBb_12ConsumableIdNtNtCsWuCv7H75Ac_5serde2de11Deserialize11deserializeNtB6_9___VisitorNtB1h_7Visitor10visit_enumpEBd_
FNDA:0,_RINvXs0_NvXNvNtCs6ewEfsi5izM_10balatro_rs11consumabless_1__NtBb_14ConsumableTypeNtNtCsWuCv7H75Ac_5serde2de11Deserialize11deserializeNtB6_9___VisitorNtB1i_7Visitor10visit_enumpEBd_
FNDA:0,_RNvMs0_NtCs6ewEfsi5izM_10balatro_rs11consumablesNtB5_12ConsumableId15consumable_type
FNDA:0,_RNvMs0_NtCs6ewEfsi5izM_10balatro_rs11consumablesNtB5_12ConsumableId3all
FNDA:0,_RNvXNtCs6ewEfsi5izM_10balatro_rs11consumablesNtB2_14ConsumableTypeNtNtCs1p5UDGgVI4d_4core3fmt7Display3fmt
FNDA:0,_RNvMs0_NtCs6ewEfsi5izM_10balatro_rs11consumablesNtB5_12ConsumableId11tarot_cards
FNDA:0,_RNvMs0_NtCs6ewEfsi5izM_10balatro_rs11consumablesNtB5_12ConsumableId12planet_cards
FNDA:0,_RNvMs0_NtCs6ewEfsi5izM_10balatro_rs11consumablesNtB5_12ConsumableId14spectral_cards
FNDA:0,_RNvXs_NtCs6ewEfsi5izM_10balatro_rs11consumablesNtB4_12ConsumableIdNtNtCs1p5UDGgVI4d_4core3fmt7Display3fmt
FNDA:0,_RINvXs0_NvXNvNtCsfztrlbScSWy_10balatro_rs11consumabless1_1__NtBb_12ConsumableIdNtNtCsWuCv7H75Ac_5serde2de11Deserialize11deserializeNtB6_9___VisitorNtB1h_7Visitor10visit_enumINtNtCs9DWYcYz1PvJ_10serde_json2de13VariantAccessNtNtB2Q_4read7StrReadEEBd_
FNDA:0,_RINvXs0_NvXNvNtCsfztrlbScSWy_10balatro_rs11consumabless1_1__NtBb_12ConsumableIdNtNtCsWuCv7H75Ac_5serde2de11Deserialize11deserializeNtB6_9___VisitorNtB1h_7Visitor10visit_enumINtNtCs9DWYcYz1PvJ_10serde_json2de17UnitVariantAccessNtNtB2Q_4read7StrReadEEBd_
FNDA:0,_RINvXs0_NvXNvNtCsfztrlbScSWy_10balatro_rs11consumabless_1__NtBb_14ConsumableTypeNtNtCsWuCv7H75Ac_5serde2de11Deserialize11deserializeNtB6_9___VisitorNtB1i_7Visitor10visit_enumpEBd_
FNDA:4,_RNvMs0_NtCsfztrlbScSWy_10balatro_rs11consumablesNtB5_12ConsumableId11tarot_cards
FNDA:2,_RNvMs0_NtCsfztrlbScSWy_10balatro_rs11consumablesNtB5_12ConsumableId12planet_cards
FNDA:2,_RNvMs0_NtCsfztrlbScSWy_10balatro_rs11consumablesNtB5_12ConsumableId14spectral_cards
FNDA:1,_RNvMs0_NtCsfztrlbScSWy_10balatro_rs11consumablesNtB5_12ConsumableId15consumable_type
FNDA:0,_RNvMs0_NtCsfztrlbScSWy_10balatro_rs11consumablesNtB5_12ConsumableId3all
FNDA:0,_RNvXNtCsfztrlbScSWy_10balatro_rs11consumablesNtB2_14ConsumableTypeNtNtCs1p5UDGgVI4d_4core3fmt7Display3fmt
FNDA:25,_RNvXs_NtCsfztrlbScSWy_10balatro_rs11consumablesNtB4_12ConsumableIdNtNtCs1p5UDGgVI4d_4core3fmt7Display3fmt
FNF:9
FNH:5
DA:44,0
DA:55,0
DA:56,0
DA:57,0
DA:58,0
DA:59,0
DA:61,0
DA:66,0
DA:110,25
DA:111,25
DA:113,4
DA:114,2
DA:115,3
DA:116,1
DA:117,4
DA:120,2
DA:121,1
DA:122,2
DA:123,0
DA:124,1
DA:127,1
DA:128,2
DA:129,2
DA:132,0
DA:133,0
DA:134,0
DA:136,25
DA:141,0
DA:142,0
DA:143,0
DA:146,1
DA:147,1
DA:154,1
DA:162,0
DA:168,0
DA:170,1
DA:173,4
DA:174,4
DA:175,4
DA:176,4
DA:177,4
DA:178,4
DA:179,4
DA:181,4
DA:184,2
DA:185,2
DA:186,2
DA:187,2
DA:188,2
DA:189,2
DA:190,2
DA:192,2
DA:195,2
DA:196,2
DA:197,2
DA:198,2
DA:199,2
DA:201,2
BRF:0
BRH:0
LF:58
LH:41
end_of_record
SF:/home/spduncan/balatro-rs-ws/fix-issue-184-cicd-pipeline/core/src/deck.rs
FN:4,_RINvXs0_NvXNvNtCs6ewEfsi5izM_10balatro_rs4decks_1__NtBb_4DeckNtNtCsWuCv7H75Ac_5serde2de11Deserialize11deserializeNtB6_9___VisitorNtBZ_7Visitor9visit_mappEBd_
FN:4,_RINvXs0_NvXNvNtCs6ewEfsi5izM_10balatro_rs4decks_1__NtBb_4DeckNtNtCsWuCv7H75Ac_5serde2de11Deserialize11deserializeNtB6_9___VisitorNtBZ_7Visitor9visit_seqpEBd_
FN:11,_RNvMNtCs6ewEfsi5izM_10balatro_rs4deckNtB2_4Deck3new
FN:36,_RNvMNtCs6ewEfsi5izM_10balatro_rs4deckNtB2_4Deck5cards
FN:20,_RNvMNtCs6ewEfsi5izM_10balatro_rs4deckNtB2_4Deck3len
FN:14,_RNvMNtCs6ewEfsi5izM_10balatro_rs4deckNtB2_4Deck4draw
FN:28,_RNvMNtCs6ewEfsi5izM_10balatro_rs4deckNtB2_4Deck6append
FN:32,_RNvMNtCs6ewEfsi5izM_10balatro_rs4deckNtB2_4Deck6extend
FN:24,_RNvMNtCs6ewEfsi5izM_10balatro_rs4deckNtB2_4Deck7shuffle
FN:51,_RNvXs_NtCs6ewEfsi5izM_10balatro_rs4deckNtB4_4DeckNtNtCs1p5UDGgVI4d_4core7default7Default7default
FN:4,_RINvXs0_NvXNvNtCsfztrlbScSWy_10balatro_rs4decks_1__NtBb_4DeckNtNtCsWuCv7H75Ac_5serde2de11Deserialize11deserializeNtB6_9___VisitorNtBZ_7Visitor9visit_mapINtNtCs9DWYcYz1PvJ_10serde_json2de9MapAccessNtNtB2v_4read7StrReadEEBd_
FN:4,_RINvXs0_NvXNvNtCsfztrlbScSWy_10balatro_rs4decks_1__NtBb_4DeckNtNtCsWuCv7H75Ac_5serde2de11Deserialize11deserializeNtB6_9___VisitorNtBZ_7Visitor9visit_seqINtNtCs9DWYcYz1PvJ_10serde_json2de9SeqAccessNtNtB2v_4read7StrReadEEBd_
FN:20,_RNvMNtCsfztrlbScSWy_10balatro_rs4deckNtB2_4Deck3len
FN:11,_RNvMNtCsfztrlbScSWy_10balatro_rs4deckNtB2_4Deck3new
FN:14,_RNvMNtCsfztrlbScSWy_10balatro_rs4deckNtB2_4Deck4draw
FN:36,_RNvMNtCsfztrlbScSWy_10balatro_rs4deckNtB2_4Deck5cards
FN:28,_RNvMNtCsfztrlbScSWy_10balatro_rs4deckNtB2_4Deck6append
FN:32,_RNvMNtCsfztrlbScSWy_10balatro_rs4deckNtB2_4Deck6extend
FN:24,_RNvMNtCsfztrlbScSWy_10balatro_rs4deckNtB2_4Deck7shuffle
FN:51,_RNvXs_NtCsfztrlbScSWy_10balatro_rs4deckNtB4_4DeckNtNtCs1p5UDGgVI4d_4core7default7Default7default
FNDA:0,_RINvXs0_NvXNvNtCs6ewEfsi5izM_10balatro_rs4decks_1__NtBb_4DeckNtNtCsWuCv7H75Ac_5serde2de11Deserialize11deserializeNtB6_9___VisitorNtBZ_7Visitor9visit_mappEBd_
FNDA:0,_RINvXs0_NvXNvNtCs6ewEfsi5izM_10balatro_rs4decks_1__NtBb_4DeckNtNtCsWuCv7H75Ac_5serde2de11Deserialize11deserializeNtB6_9___VisitorNtBZ_7Visitor9visit_seqpEBd_
FNDA:0,_RNvMNtCs6ewEfsi5izM_10balatro_rs4deckNtB2_4Deck3new
FNDA:0,_RNvMNtCs6ewEfsi5izM_10balatro_rs4deckNtB2_4Deck5cards
FNDA:32,_RNvMNtCs6ewEfsi5izM_10balatro_rs4deckNtB2_4Deck3len
FNDA:46,_RNvMNtCs6ewEfsi5izM_10balatro_rs4deckNtB2_4Deck4draw
FNDA:25,_RNvMNtCs6ewEfsi5izM_10balatro_rs4deckNtB2_4Deck6append
FNDA:25,_RNvMNtCs6ewEfsi5izM_10balatro_rs4deckNtB2_4Deck6extend
FNDA:25,_RNvMNtCs6ewEfsi5izM_10balatro_rs4deckNtB2_4Deck7shuffle
FNDA:59,_RNvXs_NtCs6ewEfsi5izM_10balatro_rs4deckNtB4_4DeckNtNtCs1p5UDGgVI4d_4core7default7Default7default
FNDA:0,_RINvXs0_NvXNvNtCsfztrlbScSWy_10balatro_rs4decks_1__NtBb_4DeckNtNtCsWuCv7H75Ac_5serde2de11Deserialize11deserializeNtB6_9___VisitorNtBZ_7Visitor9visit_mapINtNtCs9DWYcYz1PvJ_10serde_json2de9MapAccessNtNtB2v_4read7StrReadEEBd_
FNDA:0,_RINvXs0_NvXNvNtCsfztrlbScSWy_10balatro_rs4decks_1__NtBb_4DeckNtNtCsWuCv7H75Ac_5serde2de11Deserialize11deserializeNtB6_9___VisitorNtBZ_7Visitor9visit_seqINtNtCs9DWYcYz1PvJ_10serde_json2de9SeqAccessNtNtB2v_4read7StrReadEEBd_
FNDA:12,_RNvMNtCsfztrlbScSWy_10balatro_rs4deckNtB2_4Deck3len
FNDA:0,_RNvMNtCsfztrlbScSWy_10balatro_rs4deckNtB2_4Deck3new
FNDA:40,_RNvMNtCsfztrlbScSWy_10balatro_rs4deckNtB2_4Deck4draw
FNDA:0,_RNvMNtCsfztrlbScSWy_10balatro_rs4deckNtB2_4Deck5cards
FNDA:27,_RNvMNtCsfztrlbScSWy_10balatro_rs4deckNtB2_4Deck6append
FNDA:28,_RNvMNtCsfztrlbScSWy_10balatro_rs4deckNtB2_4Deck6extend
FNDA:27,_RNvMNtCsfztrlbScSWy_10balatro_rs4deckNtB2_4Deck7shuffle
FNDA:56,_RNvXs_NtCsfztrlbScSWy_10balatro_rs4deckNtB4_4DeckNtNtCs1p5UDGgVI4d_4core7default7Default7default
FNF:9
FNH:6
DA:4,0
DA:11,0
DA:12,0
DA:13,0
DA:14,86
DA:15,86
DA:16,0
DA:17,86
DA:18,86
DA:19,86
DA:20,44
DA:21,44
DA:22,44
DA:24,52
DA:25,52
DA:26,52
DA:28,52
DA:29,52
DA:30,52
DA:32,53
DA:33,53
DA:34,53
DA:36,0
DA:37,0
DA:38,0
DA:51,115
DA:52,115
DA:53,1495
DA:54,5980
DA:55,5980
DA:56,5980
DA:57,5980
DA:59,115
DA:60,115
BRF:0
BRH:0
LF:34
LH:26
end_of_record
SF:/home/spduncan/balatro-rs-ws/fix-issue-184-cicd-pipeline/core/src/error.rs
FN:60,_RNvXNtCs6ewEfsi5izM_10balatro_rs5errorNtB2_9GameErrorINtNtCs1p5UDGgVI4d_4core7convert4FromNtB2_16ActionSpaceErrorE4from
FN:67,_RNvXs_NtCs6ewEfsi5izM_10balatro_rs5errorNtNtCshoytyEQcduU_4pyo33err5PyErrINtNtCs1p5UDGgVI4d_4core7convert4FromNtB4_9GameErrorE4from
FN:60,_RNvXNtCsfztrlbScSWy_10balatro_rs5errorNtB2_9GameErrorINtNtCs1p5UDGgVI4d_4core7convert4FromNtB2_16ActionSpaceErrorE4from
FN:67,_RNvXs_NtCsfztrlbScSWy_10balatro_rs5errorNtNtCshoytyEQcduU_4pyo33err5PyErrINtNtCs1p5UDGgVI4d_4core7convert4FromNtB4_9GameErrorE4from
FNDA:0,_RNvXNtCs6ewEfsi5izM_10balatro_rs5errorNtB2_9GameErrorINtNtCs1p5UDGgVI4d_4core7convert4FromNtB2_16ActionSpaceErrorE4from
FNDA:0,_RNvXs_NtCs6ewEfsi5izM_10balatro_rs5errorNtNtCshoytyEQcduU_4pyo33err5PyErrINtNtCs1p5UDGgVI4d_4core7convert4FromNtB4_9GameErrorE4from
FNDA:0,_RNvXNtCsfztrlbScSWy_10balatro_rs5errorNtB2_9GameErrorINtNtCs1p5UDGgVI4d_4core7convert4FromNtB2_16ActionSpaceErrorE4from
FNDA:0,_RNvXs_NtCsfztrlbScSWy_10balatro_rs5errorNtNtCshoytyEQcduU_4pyo33err5PyErrINtNtCs1p5UDGgVI4d_4core7convert4FromNtB4_9GameErrorE4from
FNF:2
FNH:0
DA:60,0
DA:61,0
DA:62,0
DA:67,0
DA:68,0
DA:69,0
BRF:0
BRH:0
LF:6
LH:0
end_of_record
SF:/home/spduncan/balatro-rs-ws/fix-issue-184-cicd-pipeline/core/src/game.rs
FN:997,_RINvXs0_NvXNvNtCs6ewEfsi5izM_10balatro_rs4games1_1__NtBb_17SaveableGameStateNtNtCsWuCv7H75Ac_5serde2de11Deserialize11deserializeNtB6_9___VisitorNtB1e_7Visitor9visit_mappEBd_
FN:997,_RINvXs0_NvXNvNtCs6ewEfsi5izM_10balatro_rs4games1_1__NtBb_17SaveableGameStateNtNtCsWuCv7H75Ac_5serde2de11Deserialize11deserializeNtB6_9___VisitorNtB1e_7Visitor9visit_seqpEBd_
FN:28,_RINvXs0_NvXNvNtCs6ewEfsi5izM_10balatro_rs4games_1__NtBb_4GameNtNtCsWuCv7H75Ac_5serde2de11Deserialize11deserializeNtB6_9___VisitorNtBZ_7Visitor9visit_mappEBd_
FN:28,_RINvXs0_NvXNvNtCs6ewEfsi5izM_10balatro_rs4games_1__NtBb_4GameNtNtCsWuCv7H75Ac_5serde2de11Deserialize11deserializeNtB6_9___VisitorNtBZ_7Visitor9visit_seqpEBd_
FN:922,_RNCNvMNtCs6ewEfsi5izM_10balatro_rs4gameNtB4_4Game19cleanup_joker_state0B6_
FN:897,_RNCNvMNtCs6ewEfsi5izM_10balatro_rs4gameNtB4_4Game20validate_joker_state0B6_
FN:1065,_RNCNvMs3_NtCs6ewEfsi5izM_10balatro_rs4gameNtB7_4Game18save_state_to_json0B9_
FN:1121,_RNCNvMs3_NtCs6ewEfsi5izM_10balatro_rs4gameNtB7_4Game20load_state_from_json0B9_
FN:940,_RNvMNtCs6ewEfsi5izM_10balatro_rs4gameNtB2_4Game10reset_game
FN:863,_RNvMNtCs6ewEfsi5izM_10balatro_rs4gameNtB2_4Game10sell_joker
FN:146,_RNvMNtCs6ewEfsi5izM_10balatro_rs4gameNtB2_4Game11start_blind
FN:835,_RNvMNtCs6ewEfsi5izM_10balatro_rs4gameNtB2_4Game12remove_joker
FN:919,_RNvMNtCs6ewEfsi5izM_10balatro_rs4gameNtB2_4Game19cleanup_joker_state
FN:221,_RNvMNtCs6ewEfsi5izM_10balatro_rs4gameNtB2_4Game19get_hand_type_count
FN:821,_RNvMNtCs6ewEfsi5izM_10balatro_rs4gameNtB2_4Game19handle_action_index
FN:892,_RNvMNtCs6ewEfsi5izM_10balatro_rs4gameNtB2_4Game20validate_joker_state
FN:1060,_RNvMs3_NtCs6ewEfsi5izM_10balatro_rs4gameNtB5_4Game18save_state_to_json
FN:1108,_RNvMs3_NtCs6ewEfsi5izM_10balatro_rs4gameNtB5_4Game20load_state_from_json
FN:93,_RNvNtCs6ewEfsi5izM_10balatro_rs4game27default_joker_state_manager
FN:1045,_RNvXs1_NtCs6ewEfsi5izM_10balatro_rs4gameNtB5_13SaveLoadErrorNtNtCs1p5UDGgVI4d_4core3fmt7Display3fmt
FN:969,_RNvXs_NtCs6ewEfsi5izM_10balatro_rs4gameNtB4_4GameNtNtCs1p5UDGgVI4d_4core3fmt7Display3fmt
FN:314,_RNCNvMNtCs6ewEfsi5izM_10balatro_rs4gameNtB4_4Game10calc_score0B6_
FN:203,_RNCNvMNtCs6ewEfsi5izM_10balatro_rs4gameNtB4_4Game17get_joker_at_slot0B6_
FN:518,_RNCNvMNtCs6ewEfsi5izM_10balatro_rs4gameNtB4_4Game19buy_joker_with_slot0B6_
FN:528,_RNCNvMNtCs6ewEfsi5izM_10balatro_rs4gameNtB4_4Game19buy_joker_with_slots_0B6_
FN:1204,_RNvNtNtCs6ewEfsi5izM_10balatro_rs4game5testss_12test_discard
FN:1339,_RNvNtNtCs6ewEfsi5izM_10balatro_rs4game5testss_14test_buy_joker
FN:1222,_RNvNtNtCs6ewEfsi5izM_10balatro_rs4game5testss_15test_calc_score
FN:1297,_RNvNtNtCs6ewEfsi5izM_10balatro_rs4game5testss_16test_clear_blind
FN:1176,_RNvNtNtCs6ewEfsi5izM_10balatro_rs4game5testss_16test_constructor
FN:1275,_RNvNtNtCs6ewEfsi5izM_10balatro_rs4game5testss_17test_handle_score
FN:1309,_RNvNtNtCs6ewEfsi5izM_10balatro_rs4game5testss_18test_play_selected
FN:1494,_RNvNtNtCs6ewEfsi5izM_10balatro_rs4game5testss_26test_buy_joker_not_in_shop
FN:1513,_RNvNtNtCs6ewEfsi5izM_10balatro_rs4game5testss_26test_buy_joker_wrong_stage
FN:1424,_RNvNtNtCs6ewEfsi5izM_10balatro_rs4game5testss_27test_buy_joker_invalid_slot
FN:1443,_RNvNtNtCs6ewEfsi5izM_10balatro_rs4game5testss_29test_buy_joker_expanded_slots
FN:1382,_RNvNtNtCs6ewEfsi5izM_10balatro_rs4game5testss_33test_buy_joker_insert_at_position
FN:1473,_RNvNtNtCs6ewEfsi5izM_10balatro_rs4game5testss_33test_buy_joker_insufficient_money
FN:1353,_RNvNtNtCs6ewEfsi5izM_10balatro_rs4game5testss_38test_buy_joker_with_slot_specification
FN:1184,_RNvNtNtCs6ewEfsi5izM_10balatro_rs4game5testss_9test_deal
FN:1194,_RNvNtNtCs6ewEfsi5izM_10balatro_rs4game5testss_9test_draw
FN:308,_RNvMNtCs6ewEfsi5izM_10balatro_rs4gameNtB2_4Game10calc_score
FN:724,_RNvMNtCs6ewEfsi5izM_10balatro_rs4gameNtB2_4Game10next_round
FN:422,_RNvMNtCs6ewEfsi5izM_10balatro_rs4gameNtB2_4Game11calc_reward
FN:233,_RNvMNtCs6ewEfsi5izM_10balatro_rs4gameNtB2_4Game11clear_blind
FN:210,_RNvMNtCs6ewEfsi5izM_10balatro_rs4gameNtB2_4Game11joker_count
FN:259,_RNvMNtCs6ewEfsi5izM_10balatro_rs4gameNtB2_4Game11select_card
FN:731,_RNvMNtCs6ewEfsi5izM_10balatro_rs4gameNtB2_4Game12handle_score
FN:701,_RNvMNtCs6ewEfsi5izM_10balatro_rs4gameNtB2_4Game12select_blind
FN:773,_RNvMNtCs6ewEfsi5izM_10balatro_rs4gameNtB2_4Game13handle_action
FN:274,_RNvMNtCs6ewEfsi5izM_10balatro_rs4gameNtB2_4Game13play_selected
FN:411,_RNvMNtCs6ewEfsi5izM_10balatro_rs4gameNtB2_4Game14required_score
FN:297,_RNvMNtCs6ewEfsi5izM_10balatro_rs4gameNtB2_4Game16discard_selected
FN:599,_RNvMNtCs6ewEfsi5izM_10balatro_rs4gameNtB2_4Game16select_from_pack
FN:202,_RNvMNtCs6ewEfsi5izM_10balatro_rs4gameNtB2_4Game17get_joker_at_slot
FN:641,_RNvMNtCs6ewEfsi5izM_10balatro_rs4gameNtB2_4Game17process_pack_item
FN:488,_RNvMNtCs6ewEfsi5izM_10balatro_rs4gameNtB2_4Game19buy_joker_with_slot
FN:336,_RNvMNtCs6ewEfsi5izM_10balatro_rs4gameNtB2_4Game21process_joker_effects
FN:229,_RNvMNtCs6ewEfsi5izM_10balatro_rs4gameNtB2_4Game25increment_hand_type_count
FN:98,_RNvMNtCs6ewEfsi5izM_10balatro_rs4gameNtB2_4Game3new
FN:249,_RNvMNtCs6ewEfsi5izM_10balatro_rs4gameNtB2_4Game4deal
FN:241,_RNvMNtCs6ewEfsi5izM_10balatro_rs4gameNtB2_4Game4draw
FN:139,_RNvMNtCs6ewEfsi5izM_10balatro_rs4gameNtB2_4Game5start
FN:183,_RNvMNtCs6ewEfsi5izM_10balatro_rs4gameNtB2_4Game6result
FN:433,_RNvMNtCs6ewEfsi5izM_10balatro_rs4gameNtB2_4Game7cashout
FN:190,_RNvMNtCs6ewEfsi5izM_10balatro_rs4gameNtB2_4Game7is_over
FN:553,_RNvMNtCs6ewEfsi5izM_10balatro_rs4gameNtB2_4Game8buy_pack
FN:442,_RNvMNtCs6ewEfsi5izM_10balatro_rs4gameNtB2_4Game9buy_joker
FN:266,_RNvMNtCs6ewEfsi5izM_10balatro_rs4gameNtB2_4Game9move_card
FN:580,_RNvMNtCs6ewEfsi5izM_10balatro_rs4gameNtB2_4Game9open_pack
FN:622,_RNvMNtCs6ewEfsi5izM_10balatro_rs4gameNtB2_4Game9skip_pack
FN:991,_RNvXs0_NtCs6ewEfsi5izM_10balatro_rs4gameNtB5_4GameNtNtCs1p5UDGgVI4d_4core7default7Default7default
FN:1466,_RNCNvNtNtCs6ewEfsi5izM_10balatro_rs4game5testss_29test_buy_joker_expanded_slots0B7_
FN:1413,_RNCNvNtNtCs6ewEfsi5izM_10balatro_rs4game5testss_33test_buy_joker_insert_at_position0B7_
FN:1418,_RNCNvNtNtCs6ewEfsi5izM_10balatro_rs4game5testss_33test_buy_joker_insert_at_positions_0B7_
FN:1375,_RNCNvNtNtCs6ewEfsi5izM_10balatro_rs4game5testss_38test_buy_joker_with_slot_specification0B7_
FN:308,_RNvMNtCsfztrlbScSWy_10balatro_rs4gameNtB2_4Game10calc_score
FN:724,_RNvMNtCsfztrlbScSWy_10balatro_rs4gameNtB2_4Game10next_round
FN:940,_RNvMNtCsfztrlbScSWy_10balatro_rs4gameNtB2_4Game10reset_game
FN:863,_RNvMNtCsfztrlbScSWy_10balatro_rs4gameNtB2_4Game10sell_joker
FN:422,_RNvMNtCsfztrlbScSWy_10balatro_rs4gameNtB2_4Game11calc_reward
FN:233,_RNvMNtCsfztrlbScSWy_10balatro_rs4gameNtB2_4Game11clear_blind
FN:210,_RNvMNtCsfztrlbScSWy_10balatro_rs4gameNtB2_4Game11joker_count
FN:259,_RNvMNtCsfztrlbScSWy_10balatro_rs4gameNtB2_4Game11select_card
FN:146,_RNvMNtCsfztrlbScSWy_10balatro_rs4gameNtB2_4Game11start_blind
FN:731,_RNvMNtCsfztrlbScSWy_10balatro_rs4gameNtB2_4Game12handle_score
FN:835,_RNvMNtCsfztrlbScSWy_10balatro_rs4gameNtB2_4Game12remove_joker
FN:701,_RNvMNtCsfztrlbScSWy_10balatro_rs4gameNtB2_4Game12select_blind
FN:773,_RNvMNtCsfztrlbScSWy_10balatro_rs4gameNtB2_4Game13handle_action
FN:274,_RNvMNtCsfztrlbScSWy_10balatro_rs4gameNtB2_4Game13play_selected
FN:411,_RNvMNtCsfztrlbScSWy_10balatro_rs4gameNtB2_4Game14required_score
FN:297,_RNvMNtCsfztrlbScSWy_10balatro_rs4gameNtB2_4Game16discard_selected
FN:599,_RNvMNtCsfztrlbScSWy_10balatro_rs4gameNtB2_4Game16select_from_pack
FN:202,_RNvMNtCsfztrlbScSWy_10balatro_rs4gameNtB2_4Game17get_joker_at_slot
FN:641,_RNvMNtCsfztrlbScSWy_10balatro_rs4gameNtB2_4Game17process_pack_item
FN:488,_RNvMNtCsfztrlbScSWy_10balatro_rs4gameNtB2_4Game19buy_joker_with_slot
FN:919,_RNvMNtCsfztrlbScSWy_10balatro_rs4gameNtB2_4Game19cleanup_joker_state
FN:221,_RNvMNtCsfztrlbScSWy_10balatro_rs4gameNtB2_4Game19get_hand_type_count
FN:821,_RNvMNtCsfztrlbScSWy_10balatro_rs4gameNtB2_4Game19handle_action_index
FN:892,_RNvMNtCsfztrlbScSWy_10balatro_rs4gameNtB2_4Game20validate_joker_state
FN:336,_RNvMNtCsfztrlbScSWy_10balatro_rs4gameNtB2_4Game21process_joker_effects
FN:229,_RNvMNtCsfztrlbScSWy_10balatro_rs4gameNtB2_4Game25increment_hand_type_count
FN:98,_RNvMNtCsfztrlbScSWy_10balatro_rs4gameNtB2_4Game3new
FN:249,_RNvMNtCsfztrlbScSWy_10balatro_rs4gameNtB2_4Game4deal
FN:241,_RNvMNtCsfztrlbScSWy_10balatro_rs4gameNtB2_4Game4draw
FN:139,_RNvMNtCsfztrlbScSWy_10balatro_rs4gameNtB2_4Game5start
FN:183,_RNvMNtCsfztrlbScSWy_10balatro_rs4gameNtB2_4Game6result
FN:433,_RNvMNtCsfztrlbScSWy_10balatro_rs4gameNtB2_4Game7cashout
FN:190,_RNvMNtCsfztrlbScSWy_10balatro_rs4gameNtB2_4Game7is_over
FN:553,_RNvMNtCsfztrlbScSWy_10balatro_rs4gameNtB2_4Game8buy_pack
FN:266,_RNvMNtCsfztrlbScSWy_10balatro_rs4gameNtB2_4Game9move_card
FN:580,_RNvMNtCsfztrlbScSWy_10balatro_rs4gameNtB2_4Game9open_pack
FN:622,_RNvMNtCsfztrlbScSWy_10balatro_rs4gameNtB2_4Game9skip_pack
FN:1060,_RNvMs3_NtCsfztrlbScSWy_10balatro_rs4gameNtB5_4Game18save_state_to_json
FN:1108,_RNvMs3_NtCsfztrlbScSWy_10balatro_rs4gameNtB5_4Game20load_state_from_json
FN:93,_RNvNtCsfztrlbScSWy_10balatro_rs4game27default_joker_state_manager
FN:991,_RNvXs0_NtCsfztrlbScSWy_10balatro_rs4gameNtB5_4GameNtNtCs1p5UDGgVI4d_4core7default7Default7default
FN:1045,_RNvXs1_NtCsfztrlbScSWy_10balatro_rs4gameNtB5_13SaveLoadErrorNtNtCs1p5UDGgVI4d_4core3fmt7Display3fmt
FN:969,_RNvXs_NtCsfztrlbScSWy_10balatro_rs4gameNtB4_4GameNtNtCs1p5UDGgVI4d_4core3fmt7Display3fmt
FN:997,_RINvXs0_NvXNvNtCsfztrlbScSWy_10balatro_rs4games1_1__NtBb_17SaveableGameStateNtNtCsWuCv7H75Ac_5serde2de11Deserialize11deserializeNtB6_9___VisitorNtB1e_7Visitor9visit_mapINtNtCs9DWYcYz1PvJ_10serde_json2de9MapAccessNtNtB2L_4read7StrReadEEBd_
FN:997,_RINvXs0_NvXNvNtCsfztrlbScSWy_10balatro_rs4games1_1__NtBb_17SaveableGameStateNtNtCsWuCv7H75Ac_5serde2de11Deserialize11deserializeNtB6_9___VisitorNtB1e_7Visitor9visit_seqINtNtCs9DWYcYz1PvJ_10serde_json2de9SeqAccessNtNtB2L_4read7StrReadEEBd_
FN:314,_RNCNvMNtCsfztrlbScSWy_10balatro_rs4gameNtB4_4Game10calc_score0B6_
FN:203,_RNCNvMNtCsfztrlbScSWy_10balatro_rs4gameNtB4_4Game17get_joker_at_slot0B6_
FN:518,_RNCNvMNtCsfztrlbScSWy_10balatro_rs4gameNtB4_4Game19buy_joker_with_slot0B6_
FN:528,_RNCNvMNtCsfztrlbScSWy_10balatro_rs4gameNtB4_4Game19buy_joker_with_slots_0B6_
FN:922,_RNCNvMNtCsfztrlbScSWy_10balatro_rs4gameNtB4_4Game19cleanup_joker_state0B6_
FN:897,_RNCNvMNtCsfztrlbScSWy_10balatro_rs4gameNtB4_4Game20validate_joker_state0B6_
FN:1065,_RNCNvMs3_NtCsfztrlbScSWy_10balatro_rs4gameNtB7_4Game18save_state_to_json0B9_
FN:1121,_RNCNvMs3_NtCsfztrlbScSWy_10balatro_rs4gameNtB7_4Game20load_state_from_json0B9_
FN:28,_RINvXs0_NvXNvNtCsfztrlbScSWy_10balatro_rs4games_1__NtBb_4GameNtNtCsWuCv7H75Ac_5serde2de11Deserialize11deserializeNtB6_9___VisitorNtBZ_7Visitor9visit_mappEBd_
FN:28,_RINvXs0_NvXNvNtCsfztrlbScSWy_10balatro_rs4games_1__NtBb_4GameNtNtCsWuCv7H75Ac_5serde2de11Deserialize11deserializeNtB6_9___VisitorNtBZ_7Visitor9visit_seqpEBd_
FN:442,_RNvMNtCsfztrlbScSWy_10balatro_rs4gameNtB2_4Game9buy_joker
FN:28,_RINvXs0_NvXNvNtCsfztrlbScSWy_10balatro_rs4games_1__NtBb_4GameNtNtCsWuCv7H75Ac_5serde2de11Deserialize11deserializeNtB6_9___VisitorNtBZ_7Visitor9visit_mapINtNtCs9DWYcYz1PvJ_10serde_json2de9MapAccessNtNtB2v_4read7StrReadEECsgkrGRCzZPAS_24extended_game_state_test
FN:28,_RINvXs0_NvXNvNtCsfztrlbScSWy_10balatro_rs4games_1__NtBb_4GameNtNtCsWuCv7H75Ac_5serde2de11Deserialize11deserializeNtB6_9___VisitorNtBZ_7Visitor9visit_seqINtNtCs9DWYcYz1PvJ_10serde_json2de9SeqAccessNtNtB2v_4read7StrReadEECsgkrGRCzZPAS_24extended_game_state_test
FNDA:0,_RINvXs0_NvXNvNtCs6ewEfsi5izM_10balatro_rs4games1_1__NtBb_17SaveableGameStateNtNtCsWuCv7H75Ac_5serde2de11Deserialize11deserializeNtB6_9___VisitorNtB1e_7Visitor9visit_mappEBd_
FNDA:0,_RINvXs0_NvXNvNtCs6ewEfsi5izM_10balatro_rs4games1_1__NtBb_17SaveableGameStateNtNtCsWuCv7H75Ac_5serde2de11Deserialize11deserializeNtB6_9___VisitorNtB1e_7Visitor9visit_seqpEBd_
FNDA:0,_RINvXs0_NvXNvNtCs6ewEfsi5izM_10balatro_rs4games_1__NtBb_4GameNtNtCsWuCv7H75Ac_5serde2de11Deserialize11deserializeNtB6_9___VisitorNtBZ_7Visitor9visit_mappEBd_
FNDA:0,_RINvXs0_NvXNvNtCs6ewEfsi5izM_10balatro_rs4games_1__NtBb_4GameNtNtCsWuCv7H75Ac_5serde2de11Deserialize11deserializeNtB6_9___VisitorNtBZ_7Visitor9visit_seqpEBd_
FNDA:0,_RNCNvMNtCs6ewEfsi5izM_10balatro_rs4gameNtB4_4Game19cleanup_joker_state0B6_
FNDA:0,_RNCNvMNtCs6ewEfsi5izM_10balatro_rs4gameNtB4_4Game20validate_joker_state0B6_
FNDA:0,_RNCNvMs3_NtCs6ewEfsi5izM_10balatro_rs4gameNtB7_4Game18save_state_to_json0B9_
FNDA:0,_RNCNvMs3_NtCs6ewEfsi5izM_10balatro_rs4gameNtB7_4Game20load_state_from_json0B9_
FNDA:0,_RNvMNtCs6ewEfsi5izM_10balatro_rs4gameNtB2_4Game10reset_game
FNDA:0,_RNvMNtCs6ewEfsi5izM_10balatro_rs4gameNtB2_4Game10sell_joker
FNDA:0,_RNvMNtCs6ewEfsi5izM_10balatro_rs4gameNtB2_4Game11start_blind
FNDA:0,_RNvMNtCs6ewEfsi5izM_10balatro_rs4gameNtB2_4Game12remove_joker
FNDA:0,_RNvMNtCs6ewEfsi5izM_10balatro_rs4gameNtB2_4Game19cleanup_joker_state
FNDA:0,_RNvMNtCs6ewEfsi5izM_10balatro_rs4gameNtB2_4Game19get_hand_type_count
FNDA:0,_RNvMNtCs6ewEfsi5izM_10balatro_rs4gameNtB2_4Game19handle_action_index
FNDA:0,_RNvMNtCs6ewEfsi5izM_10balatro_rs4gameNtB2_4Game20validate_joker_state
FNDA:0,_RNvMs3_NtCs6ewEfsi5izM_10balatro_rs4gameNtB5_4Game18save_state_to_json
FNDA:0,_RNvMs3_NtCs6ewEfsi5izM_10balatro_rs4gameNtB5_4Game20load_state_from_json
FNDA:0,_RNvNtCs6ewEfsi5izM_10balatro_rs4game27default_joker_state_manager
FNDA:0,_RNvXs1_NtCs6ewEfsi5izM_10balatro_rs4gameNtB5_13SaveLoadErrorNtNtCs1p5UDGgVI4d_4core3fmt7Display3fmt
FNDA:0,_RNvXs_NtCs6ewEfsi5izM_10balatro_rs4gameNtB4_4GameNtNtCs1p5UDGgVI4d_4core3fmt7Display3fmt
FNDA:180,_RNCNvMNtCs6ewEfsi5izM_10balatro_rs4gameNtB4_4Game10calc_score0B6_
FNDA:5,_RNCNvMNtCs6ewEfsi5izM_10balatro_rs4gameNtB4_4Game17get_joker_at_slot0B6_
FNDA:5,_RNCNvMNtCs6ewEfsi5izM_10balatro_rs4gameNtB4_4Game19buy_joker_with_slot0B6_
FNDA:0,_RNCNvMNtCs6ewEfsi5izM_10balatro_rs4gameNtB4_4Game19buy_joker_with_slots_0B6_
FNDA:1,_RNvNtNtCs6ewEfsi5izM_10balatro_rs4game5testss_12test_discard
FNDA:1,_RNvNtNtCs6ewEfsi5izM_10balatro_rs4game5testss_14test_buy_joker
FNDA:1,_RNvNtNtCs6ewEfsi5izM_10balatro_rs4game5testss_15test_calc_score
FNDA:1,_RNvNtNtCs6ewEfsi5izM_10balatro_rs4game5testss_16test_clear_blind
FNDA:1,_RNvNtNtCs6ewEfsi5izM_10balatro_rs4game5testss_16test_constructor
FNDA:1,_RNvNtNtCs6ewEfsi5izM_10balatro_rs4game5testss_17test_handle_score
FNDA:1,_RNvNtNtCs6ewEfsi5izM_10balatro_rs4game5testss_18test_play_selected
FNDA:1,_RNvNtNtCs6ewEfsi5izM_10balatro_rs4game5testss_26test_buy_joker_not_in_shop
FNDA:1,_RNvNtNtCs6ewEfsi5izM_10balatro_rs4game5testss_26test_buy_joker_wrong_stage
FNDA:1,_RNvNtNtCs6ewEfsi5izM_10balatro_rs4game5testss_27test_buy_joker_invalid_slot
FNDA:1,_RNvNtNtCs6ewEfsi5izM_10balatro_rs4game5testss_29test_buy_joker_expanded_slots
FNDA:1,_RNvNtNtCs6ewEfsi5izM_10balatro_rs4game5testss_33test_buy_joker_insert_at_position
FNDA:1,_RNvNtNtCs6ewEfsi5izM_10balatro_rs4game5testss_33test_buy_joker_insufficient_money
FNDA:1,_RNvNtNtCs6ewEfsi5izM_10balatro_rs4game5testss_38test_buy_joker_with_slot_specification
FNDA:1,_RNvNtNtCs6ewEfsi5izM_10balatro_rs4game5testss_9test_deal
FNDA:1,_RNvNtNtCs6ewEfsi5izM_10balatro_rs4game5testss_9test_draw
FNDA:63,_RNvMNtCs6ewEfsi5izM_10balatro_rs4gameNtB2_4Game10calc_score
FNDA:0,_RNvMNtCs6ewEfsi5izM_10balatro_rs4gameNtB2_4Game10next_round
FNDA:2,_RNvMNtCs6ewEfsi5izM_10balatro_rs4gameNtB2_4Game11calc_reward
FNDA:2,_RNvMNtCs6ewEfsi5izM_10balatro_rs4gameNtB2_4Game11clear_blind
FNDA:3,_RNvMNtCs6ewEfsi5izM_10balatro_rs4gameNtB2_4Game11joker_count
FNDA:76,_RNvMNtCs6ewEfsi5izM_10balatro_rs4gameNtB2_4Game11select_card
FNDA:12,_RNvMNtCs6ewEfsi5izM_10balatro_rs4gameNtB2_4Game12handle_score
FNDA:3,_RNvMNtCs6ewEfsi5izM_10balatro_rs4gameNtB2_4Game12select_blind
FNDA:312,_RNvMNtCs6ewEfsi5izM_10balatro_rs4gameNtB2_4Game13handle_action
FNDA:10,_RNvMNtCs6ewEfsi5izM_10balatro_rs4gameNtB2_4Game13play_selected
FNDA:14,_RNvMNtCs6ewEfsi5izM_10balatro_rs4gameNtB2_4Game14required_score
FNDA:9,_RNvMNtCs6ewEfsi5izM_10balatro_rs4gameNtB2_4Game16discard_selected
FNDA:0,_RNvMNtCs6ewEfsi5izM_10balatro_rs4gameNtB2_4Game16select_from_pack
FNDA:5,_RNvMNtCs6ewEfsi5izM_10balatro_rs4gameNtB2_4Game17get_joker_at_slot
FNDA:0,_RNvMNtCs6ewEfsi5izM_10balatro_rs4gameNtB2_4Game17process_pack_item
FNDA:7,_RNvMNtCs6ewEfsi5izM_10balatro_rs4gameNtB2_4Game19buy_joker_with_slot
FNDA:24,_RNvMNtCs6ewEfsi5izM_10balatro_rs4gameNtB2_4Game21process_joker_effects
FNDA:10,_RNvMNtCs6ewEfsi5izM_10balatro_rs4gameNtB2_4Game25increment_hand_type_count
FNDA:59,_RNvMNtCs6ewEfsi5izM_10balatro_rs4gameNtB2_4Game3new
FNDA:25,_RNvMNtCs6ewEfsi5izM_10balatro_rs4gameNtB2_4Game4deal
FNDA:46,_RNvMNtCs6ewEfsi5izM_10balatro_rs4gameNtB2_4Game4draw
FNDA:13,_RNvMNtCs6ewEfsi5izM_10balatro_rs4gameNtB2_4Game5start
FNDA:304,_RNvMNtCs6ewEfsi5izM_10balatro_rs4gameNtB2_4Game6result
FNDA:0,_RNvMNtCs6ewEfsi5izM_10balatro_rs4gameNtB2_4Game7cashout
FNDA:302,_RNvMNtCs6ewEfsi5izM_10balatro_rs4gameNtB2_4Game7is_over
FNDA:0,_RNvMNtCs6ewEfsi5izM_10balatro_rs4gameNtB2_4Game8buy_pack
FNDA:25,_RNvMNtCs6ewEfsi5izM_10balatro_rs4gameNtB2_4Game9buy_joker
FNDA:235,_RNvMNtCs6ewEfsi5izM_10balatro_rs4gameNtB2_4Game9move_card
FNDA:0,_RNvMNtCs6ewEfsi5izM_10balatro_rs4gameNtB2_4Game9open_pack
FNDA:0,_RNvMNtCs6ewEfsi5izM_10balatro_rs4gameNtB2_4Game9skip_pack
FNDA:49,_RNvXs0_NtCs6ewEfsi5izM_10balatro_rs4gameNtB5_4GameNtNtCs1p5UDGgVI4d_4core7default7Default7default
FNDA:1,_RNCNvNtNtCs6ewEfsi5izM_10balatro_rs4game5testss_29test_buy_joker_expanded_slots0B7_
FNDA:1,_RNCNvNtNtCs6ewEfsi5izM_10balatro_rs4game5testss_33test_buy_joker_insert_at_position0B7_
FNDA:1,_RNCNvNtNtCs6ewEfsi5izM_10balatro_rs4game5testss_33test_buy_joker_insert_at_positions_0B7_
FNDA:1,_RNCNvNtNtCs6ewEfsi5izM_10balatro_rs4game5testss_38test_buy_joker_with_slot_specification0B7_
FNDA:24,_RNvMNtCsfztrlbScSWy_10balatro_rs4gameNtB2_4Game10calc_score
FNDA:0,_RNvMNtCsfztrlbScSWy_10balatro_rs4gameNtB2_4Game10next_round
FNDA:1,_RNvMNtCsfztrlbScSWy_10balatro_rs4gameNtB2_4Game10reset_game
FNDA:1,_RNvMNtCsfztrlbScSWy_10balatro_rs4gameNtB2_4Game10sell_joker
FNDA:0,_RNvMNtCsfztrlbScSWy_10balatro_rs4gameNtB2_4Game11calc_reward
FNDA:0,_RNvMNtCsfztrlbScSWy_10balatro_rs4gameNtB2_4Game11clear_blind
FNDA:8,_RNvMNtCsfztrlbScSWy_10balatro_rs4gameNtB2_4Game11joker_count
FNDA:31,_RNvMNtCsfztrlbScSWy_10balatro_rs4gameNtB2_4Game11select_card
FNDA:1,_RNvMNtCsfztrlbScSWy_10balatro_rs4gameNtB2_4Game11start_blind
FNDA:8,_RNvMNtCsfztrlbScSWy_10balatro_rs4gameNtB2_4Game12handle_score
FNDA:3,_RNvMNtCsfztrlbScSWy_10balatro_rs4gameNtB2_4Game12remove_joker
FNDA:2,_RNvMNtCsfztrlbScSWy_10balatro_rs4gameNtB2_4Game12select_blind
FNDA:150,_RNvMNtCsfztrlbScSWy_10balatro_rs4gameNtB2_4Game13handle_action
FNDA:8,_RNvMNtCsfztrlbScSWy_10balatro_rs4gameNtB2_4Game13play_selected
FNDA:8,_RNvMNtCsfztrlbScSWy_10balatro_rs4gameNtB2_4Game14required_score
FNDA:5,_RNvMNtCsfztrlbScSWy_10balatro_rs4gameNtB2_4Game16discard_selected
FNDA:2,_RNvMNtCsfztrlbScSWy_10balatro_rs4gameNtB2_4Game16select_from_pack
FNDA:0,_RNvMNtCsfztrlbScSWy_10balatro_rs4gameNtB2_4Game17get_joker_at_slot
FNDA:2,_RNvMNtCsfztrlbScSWy_10balatro_rs4gameNtB2_4Game17process_pack_item
FNDA:0,_RNvMNtCsfztrlbScSWy_10balatro_rs4gameNtB2_4Game19buy_joker_with_slot
FNDA:1,_RNvMNtCsfztrlbScSWy_10balatro_rs4gameNtB2_4Game19cleanup_joker_state
FNDA:18,_RNvMNtCsfztrlbScSWy_10balatro_rs4gameNtB2_4Game19get_hand_type_count
FNDA:0,_RNvMNtCsfztrlbScSWy_10balatro_rs4gameNtB2_4Game19handle_action_index
FNDA:2,_RNvMNtCsfztrlbScSWy_10balatro_rs4gameNtB2_4Game20validate_joker_state
FNDA:11,_RNvMNtCsfztrlbScSWy_10balatro_rs4gameNtB2_4Game21process_joker_effects
FNDA:11,_RNvMNtCsfztrlbScSWy_10balatro_rs4gameNtB2_4Game25increment_hand_type_count
FNDA:54,_RNvMNtCsfztrlbScSWy_10balatro_rs4gameNtB2_4Game3new
FNDA:27,_RNvMNtCsfztrlbScSWy_10balatro_rs4gameNtB2_4Game4deal
FNDA:40,_RNvMNtCsfztrlbScSWy_10balatro_rs4gameNtB2_4Game4draw
FNDA:25,_RNvMNtCsfztrlbScSWy_10balatro_rs4gameNtB2_4Game5start
FNDA:133,_RNvMNtCsfztrlbScSWy_10balatro_rs4gameNtB2_4Game6result
FNDA:0,_RNvMNtCsfztrlbScSWy_10balatro_rs4gameNtB2_4Game7cashout
FNDA:131,_RNvMNtCsfztrlbScSWy_10balatro_rs4gameNtB2_4Game7is_over
FNDA:10,_RNvMNtCsfztrlbScSWy_10balatro_rs4gameNtB2_4Game8buy_pack
FNDA:82,_RNvMNtCsfztrlbScSWy_10balatro_rs4gameNtB2_4Game9move_card
FNDA:9,_RNvMNtCsfztrlbScSWy_10balatro_rs4gameNtB2_4Game9open_pack
FNDA:1,_RNvMNtCsfztrlbScSWy_10balatro_rs4gameNtB2_4Game9skip_pack
FNDA:6,_RNvMs3_NtCsfztrlbScSWy_10balatro_rs4gameNtB5_4Game18save_state_to_json
FNDA:8,_RNvMs3_NtCsfztrlbScSWy_10balatro_rs4gameNtB5_4Game20load_state_from_json
FNDA:1,_RNvNtCsfztrlbScSWy_10balatro_rs4game27default_joker_state_manager
FNDA:39,_RNvXs0_NtCsfztrlbScSWy_10balatro_rs4gameNtB5_4GameNtNtCs1p5UDGgVI4d_4core7default7Default7default
FNDA:6,_RNvXs1_NtCsfztrlbScSWy_10balatro_rs4gameNtB5_13SaveLoadErrorNtNtCs1p5UDGgVI4d_4core3fmt7Display3fmt
FNDA:0,_RNvXs_NtCsfztrlbScSWy_10balatro_rs4gameNtB4_4GameNtNtCs1p5UDGgVI4d_4core3fmt7Display3fmt
FNDA:0,_RINvXs0_NvXNvNtCsfztrlbScSWy_10balatro_rs4games1_1__NtBb_17SaveableGameStateNtNtCsWuCv7H75Ac_5serde2de11Deserialize11deserializeNtB6_9___VisitorNtB1e_7Visitor9visit_mapINtNtCs9DWYcYz1PvJ_10serde_json2de9MapAccessNtNtB2L_4read7StrReadEEBd_
FNDA:0,_RINvXs0_NvXNvNtCsfztrlbScSWy_10balatro_rs4games1_1__NtBb_17SaveableGameStateNtNtCsWuCv7H75Ac_5serde2de11Deserialize11deserializeNtB6_9___VisitorNtB1e_7Visitor9visit_seqINtNtCs9DWYcYz1PvJ_10serde_json2de9SeqAccessNtNtB2L_4read7StrReadEEBd_
FNDA:38,_RNCNvMNtCsfztrlbScSWy_10balatro_rs4gameNtB4_4Game10calc_score0B6_
FNDA:0,_RNCNvMNtCsfztrlbScSWy_10balatro_rs4gameNtB4_4Game17get_joker_at_slot0B6_
FNDA:0,_RNCNvMNtCsfztrlbScSWy_10balatro_rs4gameNtB4_4Game19buy_joker_with_slot0B6_
FNDA:0,_RNCNvMNtCsfztrlbScSWy_10balatro_rs4gameNtB4_4Game19buy_joker_with_slots_0B6_
FNDA:1,_RNCNvMNtCsfztrlbScSWy_10balatro_rs4gameNtB4_4Game19cleanup_joker_state0B6_
FNDA:1,_RNCNvMNtCsfztrlbScSWy_10balatro_rs4gameNtB4_4Game20validate_joker_state0B6_
FNDA:3,_RNCNvMs3_NtCsfztrlbScSWy_10balatro_rs4gameNtB7_4Game18save_state_to_json0B9_
FNDA:3,_RNCNvMs3_NtCsfztrlbScSWy_10balatro_rs4gameNtB7_4Game20load_state_from_json0B9_
FNDA:0,_RINvXs0_NvXNvNtCsfztrlbScSWy_10balatro_rs4games_1__NtBb_4GameNtNtCsWuCv7H75Ac_5serde2de11Deserialize11deserializeNtB6_9___VisitorNtBZ_7Visitor9visit_mappEBd_
FNDA:0,_RINvXs0_NvXNvNtCsfztrlbScSWy_10balatro_rs4games_1__NtBb_4GameNtNtCsWuCv7H75Ac_5serde2de11Deserialize11deserializeNtB6_9___VisitorNtBZ_7Visitor9visit_seqpEBd_
FNDA:0,_RNvMNtCsfztrlbScSWy_10balatro_rs4gameNtB2_4Game9buy_joker
FNDA:0,_RINvXs0_NvXNvNtCsfztrlbScSWy_10balatro_rs4games_1__NtBb_4GameNtNtCsWuCv7H75Ac_5serde2de11Deserialize11deserializeNtB6_9___VisitorNtBZ_7Visitor9visit_mapINtNtCs9DWYcYz1PvJ_10serde_json2de9MapAccessNtNtB2v_4read7StrReadEECsgkrGRCzZPAS_24extended_game_state_test
FNDA:0,_RINvXs0_NvXNvNtCsfztrlbScSWy_10balatro_rs4games_1__NtBb_4GameNtNtCsWuCv7H75Ac_5serde2de11Deserialize11deserializeNtB6_9___VisitorNtBZ_7Visitor9visit_seqINtNtCs9DWYcYz1PvJ_10serde_json2de9SeqAccessNtNtB2v_4read7StrReadEECsgkrGRCzZPAS_24extended_game_state_test
FNF:74
FNH:67
DA:28,0
DA:93,1
DA:94,1
DA:95,1
DA:98,113
DA:99,113
DA:100,113
DA:101,113
DA:102,113
DA:103,113
DA:104,113
DA:105,113
DA:106,113
DA:107,113
DA:108,113
DA:109,113
DA:110,113
DA:111,113
DA:112,113
DA:113,113
DA:114,113
DA:115,113
DA:116,113
DA:117,113
DA:118,113
DA:119,113
DA:120,113
DA:121,113
DA:122,113
DA:123,113
DA:124,113
DA:125,113
DA:126,113
DA:127,113
DA:128,113
DA:129,113
DA:130,113
DA:131,113
DA:132,113
DA:133,113
DA:134,113
DA:135,113
DA:136,113
DA:137,113
DA:139,38
DA:141,38
DA:142,38
DA:143,38
DA:146,1
DA:150,1
DA:151,1
DA:154,2
DA:155,1
DA:156,1
DA:157,1
DA:158,1
DA:159,1
DA:160,1
DA:161,1
DA:162,1
DA:163,1
DA:164,1
DA:165,1
DA:166,1
DA:167,1
DA:168,1
DA:169,1
DA:170,1
DA:171,1
DA:172,1
DA:173,1
DA:174,1
DA:175,1
DA:176,1
DA:177,1
DA:178,1
DA:179,1
DA:180,1
DA:181,1
DA:183,437
DA:184,437
DA:185,8
DA:186,429
DA:188,437
DA:190,433
DA:191,433
DA:192,433
DA:202,5
DA:203,5
DA:204,5
DA:210,11
DA:211,11
DA:212,11
DA:221,18
DA:222,18
DA:223,18
DA:229,21
DA:230,21
DA:231,21
DA:233,2
DA:234,2
DA:235,2
DA:236,2
DA:237,2
DA:238,2
DA:241,86
DA:242,86
DA:243,86
DA:244,86
DA:245,86
DA:246,86
DA:249,52
DA:251,52
DA:253,52
DA:254,52
DA:255,52
DA:256,52
DA:257,52
DA:259,107
DA:260,107
DA:261,0
DA:262,107
DA:263,107
DA:264,107
DA:266,317
DA:267,317
DA:268,317
DA:269,317
DA:270,317
DA:271,317
DA:272,317
DA:274,18
DA:275,18
DA:276,0
DA:277,18
DA:278,18
DA:279,18
DA:280,18
DA:283,18
DA:285,18
DA:286,18
DA:287,18
DA:288,18
DA:289,18
DA:290,18
DA:291,1
DA:292,17
DA:293,18
DA:294,18
DA:297,14
DA:298,14
DA:299,0
DA:300,14
DA:301,14
DA:302,14
DA:303,14
DA:304,14
DA:305,14
DA:306,14
DA:308,87
DA:310,87
DA:311,87
DA:314,218
DA:315,87
DA:318,87
DA:319,35
DA:320,35
DA:321,35
DA:322,35
DA:323,35
DA:324,52
DA:327,87
DA:330,87
DA:331,87
DA:332,87
DA:333,87
DA:336,35
DA:339,35
DA:340,35
DA:341,35
DA:342,35
DA:343,35
DA:346,35
DA:347,35
DA:348,35
DA:349,35
DA:350,35
DA:351,35
DA:352,35
DA:353,35
DA:354,35
DA:355,35
DA:356,35
DA:357,35
DA:358,35
DA:359,35
DA:360,35
DA:361,35
DA:362,35
DA:365,73
DA:366,38
DA:367,38
DA:369,38
DA:370,38
DA:371,38
DA:374,38
DA:375,1
DA:376,37
DA:378,38
DA:379,0
DA:380,38
DA:384,99
DA:385,213
DA:386,114
DA:388,114
DA:389,114
DA:390,114
DA:393,114
DA:394,0
DA:395,114
DA:397,114
DA:398,0
DA:399,114
DA:404,35
DA:405,1
DA:406,34
DA:408,35
DA:409,35
DA:411,22
DA:412,22
DA:414,22
DA:415,0
DA:416,22
DA:417,0
DA:418,0
DA:420,22
DA:422,2
DA:423,2
DA:424,2
DA:425,0
DA:426,2
DA:427,2
DA:428,2
DA:429,2
DA:430,2
DA:431,2
DA:433,0
DA:434,0
DA:435,0
DA:436,0
DA:437,0
DA:438,0
DA:439,0
DA:442,25
DA:443,25
DA:444,0
DA:445,25
DA:446,25
DA:447,0
DA:448,25
DA:449,25
DA:450,0
DA:451,25
DA:453,25
DA:454,25
DA:455,25
DA:456,25
DA:457,25
DA:459,0
DA:460,0
DA:461,0
DA:462,0
DA:464,25
DA:488,7
DA:489,7
DA:490,7
DA:491,7
DA:492,7
DA:494,7
DA:495,0
DA:496,7
DA:499,7
DA:500,1
DA:501,6
DA:504,6
DA:505,0
DA:506,6
DA:509,6
DA:510,1
DA:511,5
DA:514,5
DA:515,5
DA:516,5
DA:517,5
DA:518,5
DA:519,5
DA:520,5
DA:523,5
DA:524,1
DA:525,4
DA:528,4
DA:529,0
DA:530,0
DA:531,0
DA:532,0
DA:535,4
DA:538,4
DA:541,4
DA:542,3
DA:543,3
DA:544,3
DA:545,1
DA:546,1
DA:548,4
DA:549,7
DA:553,10
DA:554,10
DA:555,10
DA:556,10
DA:560,10
DA:561,10
DA:562,1
DA:563,9
DA:566,9
DA:567,9
DA:568,9
DA:571,9
DA:574,9
DA:576,9
DA:577,10
DA:580,9
DA:582,9
DA:583,0
DA:584,9
DA:587,9
DA:588,0
DA:589,9
DA:592,9
DA:593,9
DA:595,9
DA:596,9
DA:599,2
DA:600,2
DA:601,2
DA:602,2
DA:603,2
DA:605,2
DA:608,2
DA:609,0
DA:610,2
DA:613,2
DA:616,2
DA:618,2
DA:619,2
DA:622,1
DA:624,1
DA:627,1
DA:628,0
DA:629,1
DA:632,1
DA:633,0
DA:634,1
DA:637,1
DA:638,1
DA:641,2
DA:644,2
DA:645,1
DA:647,1
DA:648,1
DA:650,1
DA:652,1
DA:653,1
DA:655,1
DA:656,1
DA:659,0
DA:662,0
DA:666,0
DA:668,0
DA:669,0
DA:670,0
DA:671,0
DA:672,0
DA:675,0
DA:676,0
DA:677,0
DA:678,0
DA:679,0
DA:682,0
DA:683,0
DA:684,0
DA:685,0
DA:686,0
DA:691,0
DA:692,0
DA:696,0
DA:699,2
DA:701,5
DA:703,5
DA:704,0
DA:705,5
DA:707,5
DA:708,0
DA:709,0
DA:710,0
DA:714,5
DA:715,0
DA:716,5
DA:718,5
DA:719,5
DA:720,5
DA:721,5
DA:722,5
DA:724,0
DA:725,0
DA:726,0
DA:727,0
DA:728,0
DA:731,20
DA:733,20
DA:734,0
DA:735,20
DA:737,20
DA:738,20
DA:741,20
DA:743,18
DA:744,4
DA:745,4
DA:748,14
DA:750,2
DA:752,2
DA:755,2
DA:756,2
DA:759,2
DA:760,0
DA:761,0
DA:762,0
DA:763,0
DA:764,0
DA:766,2
DA:769,2
DA:770,2
DA:771,20
DA:773,462
DA:774,462
DA:775,462
DA:776,80
DA:777,80
DA:778,0
DA:780,17
DA:781,17
DA:782,0
DA:784,13
DA:785,13
DA:786,0
DA:788,317
DA:789,317
DA:790,0
DA:792,0
DA:793,0
DA:794,0
DA:796,8
DA:797,7
DA:798,1
DA:800,0
DA:801,0
DA:802,0
DA:804,5
DA:805,5
DA:806,0
DA:808,10
DA:809,10
DA:810,0
DA:812,9
DA:814,2
DA:815,2
DA:816,2
DA:817,1
DA:819,462
DA:821,0
DA:822,0
DA:823,0
DA:824,0
DA:825,0
DA:835,3
DA:838,3
DA:839,2
DA:840,1
DA:843,1
DA:844,1
DA:847,1
DA:850,1
DA:852,1
DA:853,3
DA:863,1
DA:866,1
DA:867,0
DA:868,1
DA:871,1
DA:872,1
DA:873,1
DA:876,1
DA:879,1
DA:882,1
DA:884,1
DA:885,1
DA:892,2
DA:896,2
DA:897,2
DA:900,2
DA:901,2
DA:902,2
DA:903,2
DA:904,2
DA:907,3
DA:908,2
DA:909,1
DA:910,1
DA:911,1
DA:912,1
DA:915,1
DA:916,2
DA:919,1
DA:921,1
DA:922,1
DA:925,1
DA:926,1
DA:927,1
DA:928,1
DA:929,1
DA:932,3
DA:933,2
DA:934,1
DA:935,1
DA:937,1
DA:940,1
DA:942,1
DA:945,1
DA:948,1
DA:949,1
DA:950,1
DA:951,1
DA:952,1
DA:953,1
DA:954,1
DA:955,1
DA:956,1
DA:957,1
DA:958,1
DA:959,1
DA:962,1
DA:963,1
DA:964,1
DA:965,1
DA:969,0
DA:970,0
DA:971,0
DA:972,0
DA:973,0
DA:974,0
DA:975,0
DA:976,0
DA:978,0
DA:979,0
DA:980,0
DA:981,0
DA:982,0
DA:983,0
DA:984,0
DA:985,0
DA:986,0
DA:987,0
DA:991,88
DA:992,88
DA:993,88
DA:997,0
DA:1045,6
DA:1046,6
DA:1047,0
DA:1048,4
DA:1049,2
DA:1050,0
DA:1051,0
DA:1053,6
DA:1060,6
DA:1062,6
DA:1065,6
DA:1067,6
DA:1068,6
DA:1069,6
DA:1070,6
DA:1071,6
DA:1072,6
DA:1073,6
DA:1074,6
DA:1075,6
DA:1076,6
DA:1077,6
DA:1078,6
DA:1079,6
DA:1080,6
DA:1081,6
DA:1082,6
DA:1083,6
DA:1084,6
DA:1085,6
DA:1086,6
DA:1087,6
DA:1088,6
DA:1089,6
DA:1090,6
DA:1091,6
DA:1092,6
DA:1093,6
DA:1094,6
DA:1095,6
DA:1096,6
DA:1097,6
DA:1098,6
DA:1099,6
DA:1100,6
DA:1101,6
DA:1102,6
DA:1104,6
DA:1105,6
DA:1108,8
DA:1109,5
DA:1110,8
DA:1113,5
DA:1114,1
DA:1115,4
DA:1118,4
DA:1119,4
DA:1120,4
DA:1121,4
DA:1122,4
DA:1125,4
DA:1128,4
DA:1129,4
DA:1130,4
DA:1131,4
DA:1132,4
DA:1133,4
DA:1134,4
DA:1135,4
DA:1136,4
DA:1137,4
DA:1138,4
DA:1139,4
DA:1140,4
DA:1141,4
DA:1142,4
DA:1143,4
DA:1144,4
DA:1145,4
DA:1146,4
DA:1147,4
DA:1148,4
DA:1149,4
DA:1150,4
DA:1151,4
DA:1152,4
DA:1153,4
DA:1154,4
DA:1155,4
DA:1156,4
DA:1157,4
DA:1158,4
DA:1159,4
DA:1162,4
DA:1163,4
DA:1165,4
DA:1166,8
DA:1176,1
DA:1177,1
DA:1178,1
DA:1179,1
DA:1180,1
DA:1181,1
DA:1184,1
DA:1185,1
DA:1186,1
DA:1188,1
DA:1190,1
DA:1191,1
DA:1194,1
DA:1195,1
DA:1196,1
DA:1197,1
DA:1198,1
DA:1199,1
DA:1200,1
DA:1201,1
DA:1202,1
DA:1204,1
DA:1205,1
DA:1206,1
DA:1207,1
DA:1208,1
DA:1210,5
DA:1211,5
DA:1212,5
DA:1213,1
DA:1214,1
DA:1216,1
DA:1218,1
DA:1219,1
DA:1222,1
DA:1223,1
DA:1224,1
DA:1225,1
DA:1226,1
DA:1232,1
DA:1233,1
DA:1234,1
DA:1235,1
DA:1241,1
DA:1242,1
DA:1243,1
DA:1244,1
DA:1250,1
DA:1251,1
DA:1252,1
DA:1253,1
DA:1259,1
DA:1260,1
DA:1261,1
DA:1262,1
DA:1268,1
DA:1269,1
DA:1270,1
DA:1271,1
DA:1272,1
DA:1275,1
DA:1276,1
DA:1277,1
DA:1278,1
DA:1279,1
DA:1282,1
DA:1283,1
DA:1285,1
DA:1286,1
DA:1287,1
DA:1290,1
DA:1291,1
DA:1292,1
DA:1293,1
DA:1294,1
DA:1297,1
DA:1298,1
DA:1299,1
DA:1300,1
DA:1301,1
DA:1303,1
DA:1305,1
DA:1306,1
DA:1309,1
DA:1310,1
DA:1311,1
DA:1312,1
DA:1313,1
DA:1314,5
DA:1315,5
DA:1316,5
DA:1318,1
DA:1320,1
DA:1321,1
DA:1324,1
DA:1326,1
DA:1328,1
DA:1329,1
DA:1331,1
DA:1333,1
DA:1335,1
DA:1336,1
DA:1339,1
DA:1340,1
DA:1341,1
DA:1342,1
DA:1343,1
DA:1344,1
DA:1346,1
DA:1347,1
DA:1348,1
DA:1349,1
DA:1350,1
DA:1353,1
DA:1354,1
DA:1355,1
DA:1356,1
DA:1357,1
DA:1361,1
DA:1364,1
DA:1365,1
DA:1366,1
DA:1367,1
DA:1369,1
DA:1370,1
DA:1373,1
DA:1374,1
DA:1375,1
DA:1378,1
DA:1379,1
DA:1382,1
DA:1383,1
DA:1384,1
DA:1385,1
DA:1386,1
DA:1390,1
DA:1391,1
DA:1392,1
DA:1396,1
DA:1397,1
DA:1398,1
DA:1399,1
DA:1400,1
DA:1403,1
DA:1404,1
DA:1405,1
DA:1406,1
DA:1407,1
DA:1409,1
DA:1410,1
DA:1412,1
DA:1413,1
DA:1417,1
DA:1418,1
DA:1421,1
DA:1424,1
DA:1425,1
DA:1426,1
DA:1427,1
DA:1428,1
DA:1429,1
DA:1432,1
DA:1433,1
DA:1434,1
DA:1435,1
DA:1437,1
DA:1438,1
DA:1439,1
DA:1440,1
DA:1443,1
DA:1444,1
DA:1445,1
DA:1446,1
DA:1447,1
DA:1451,1
DA:1454,1
DA:1457,1
DA:1458,1
DA:1459,1
DA:1460,1
DA:1462,1
DA:1463,1
DA:1465,1
DA:1466,1
DA:1469,1
DA:1470,1
DA:1473,1
DA:1474,1
DA:1475,1
DA:1476,1
DA:1477,1
DA:1481,1
DA:1483,1
DA:1484,1
DA:1485,1
DA:1486,1
DA:1488,1
DA:1489,1
DA:1490,1
DA:1491,1
DA:1494,1
DA:1495,1
DA:1496,1
DA:1497,1
DA:1498,1
DA:1499,1
DA:1502,1
DA:1503,1
DA:1504,1
DA:1505,1
DA:1507,1
DA:1508,1
DA:1509,1
DA:1510,1
DA:1513,1
DA:1514,1
DA:1515,1
DA:1516,1
DA:1517,1
DA:1519,1
DA:1520,1
DA:1521,1
DA:1522,1
DA:1524,1
DA:1525,1
DA:1526,1
DA:1527,1
BRF:0
BRH:0
LF:912
LH:794
end_of_record
SF:/home/spduncan/balatro-rs-ws/fix-issue-184-cicd-pipeline/core/src/generator.rs
FN:196,_RNvMNtCs6ewEfsi5izM_10balatro_rs9generatorNtNtB4_4game4Game11gen_actions
FN:333,_RNvMNtCs6ewEfsi5izM_10balatro_rs9generatorNtNtB4_4game4Game16gen_action_space
FN:29,_RNvMNtCs6ewEfsi5izM_10balatro_rs9generatorNtNtB4_4game4Game16gen_actions_play
FN:47,_RNvMNtCs6ewEfsi5izM_10balatro_rs9generatorNtNtB4_4game4Game19gen_actions_discard
FN:137,_RNvMNtCs6ewEfsi5izM_10balatro_rs9generatorNtNtB4_4game4Game20gen_actions_buy_pack
FN:92,_RNvMNtCs6ewEfsi5izM_10balatro_rs9generatorNtNtB4_4game4Game20gen_actions_cash_out
FN:123,_RNvMNtCs6ewEfsi5izM_10balatro_rs9generatorNtNtB4_4game4Game21gen_actions_buy_joker
FN:65,_RNvMNtCs6ewEfsi5izM_10balatro_rs9generatorNtNtB4_4game4Game21gen_actions_move_card
FN:154,_RNvMNtCs6ewEfsi5izM_10balatro_rs9generatorNtNtB4_4game4Game21gen_actions_open_pack
FN:179,_RNvMNtCs6ewEfsi5izM_10balatro_rs9generatorNtNtB4_4game4Game21gen_actions_skip_pack
FN:101,_RNvMNtCs6ewEfsi5izM_10balatro_rs9generatorNtNtB4_4game4Game22gen_actions_next_round
FN:10,_RNvMNtCs6ewEfsi5izM_10balatro_rs9generatorNtNtB4_4game4Game23gen_actions_select_card
FN:110,_RNvMNtCs6ewEfsi5izM_10balatro_rs9generatorNtNtB4_4game4Game24gen_actions_select_blind
FN:164,_RNvMNtCs6ewEfsi5izM_10balatro_rs9generatorNtNtB4_4game4Game28gen_actions_select_from_pack
FN:295,_RNvMNtCs6ewEfsi5izM_10balatro_rs9generatorNtNtB4_4game4Game28unmask_action_space_cash_out
FN:316,_RNvMNtCs6ewEfsi5izM_10balatro_rs9generatorNtNtB4_4game4Game29unmask_action_space_buy_joker
FN:263,_RNvMNtCs6ewEfsi5izM_10balatro_rs9generatorNtNtB4_4game4Game30unmask_action_space_move_cards
FN:302,_RNvMNtCs6ewEfsi5izM_10balatro_rs9generatorNtNtB4_4game4Game30unmask_action_space_next_round
FN:309,_RNvMNtCs6ewEfsi5izM_10balatro_rs9generatorNtNtB4_4game4Game32unmask_action_space_select_blind
FN:226,_RNvMNtCs6ewEfsi5izM_10balatro_rs9generatorNtNtB4_4game4Game32unmask_action_space_select_cards
FN:246,_RNvMNtCs6ewEfsi5izM_10balatro_rs9generatorNtNtB4_4game4Game36unmask_action_space_play_and_discard
FN:352,_RNvNtNtCs6ewEfsi5izM_10balatro_rs9generator5testss_19test_gen_moves_play
FN:375,_RNvNtNtCs6ewEfsi5izM_10balatro_rs9generator5testss_22test_gen_moves_discard
FN:476,_RNvNtNtCs6ewEfsi5izM_10balatro_rs9generator5testss_35test_unmask_action_space_move_cards
FN:393,_RNvNtNtCs6ewEfsi5izM_10balatro_rs9generator5testss_37test_unmask_action_space_select_cards
FN:456,_RNvNtNtCs6ewEfsi5izM_10balatro_rs9generator5testss_41test_unmask_action_space_play_and_discard
FN:421,_RNvNtNtCs6ewEfsi5izM_10balatro_rs9generator5testss_41test_unmask_action_space_select_cards_max
FN:149,_RNCNvMNtCs6ewEfsi5izM_10balatro_rs9generatorNtNtB6_4game4Game20gen_actions_buy_pack0B6_
FN:76,_RNCNvMNtCs6ewEfsi5izM_10balatro_rs9generatorNtNtB6_4game4Game21gen_actions_move_card0B6_
FN:85,_RNCNvMNtCs6ewEfsi5izM_10balatro_rs9generatorNtNtB6_4game4Game21gen_actions_move_cards_0B6_
FN:160,_RNCNvMNtCs6ewEfsi5izM_10balatro_rs9generatorNtNtB6_4game4Game21gen_actions_open_pack0B6_
FN:169,_RNCNvMNtCs6ewEfsi5izM_10balatro_rs9generatorNtNtB6_4game4Game28gen_actions_select_from_pack0B6_
FN:324,_RNCNvMNtCs6ewEfsi5izM_10balatro_rs9generatorNtNtB6_4game4Game29unmask_action_space_buy_joker0B6_
FN:325,_RNCNvMNtCs6ewEfsi5izM_10balatro_rs9generatorNtNtB6_4game4Game29unmask_action_space_buy_jokers_0B6_
FN:274,_RNCNvMNtCs6ewEfsi5izM_10balatro_rs9generatorNtNtB6_4game4Game30unmask_action_space_move_cards0B6_
FN:288,_RNCNvMNtCs6ewEfsi5izM_10balatro_rs9generatorNtNtB6_4game4Game30unmask_action_space_move_cardss_0B6_
FN:238,_RNCNvMNtCs6ewEfsi5izM_10balatro_rs9generatorNtNtB6_4game4Game32unmask_action_space_select_cards0B6_
FN:239,_RNCNvMNtCs6ewEfsi5izM_10balatro_rs9generatorNtNtB6_4game4Game32unmask_action_space_select_cardss_0B6_
FN:196,_RNvMNtCsfztrlbScSWy_10balatro_rs9generatorNtNtB4_4game4Game11gen_actions
FN:333,_RNvMNtCsfztrlbScSWy_10balatro_rs9generatorNtNtB4_4game4Game16gen_action_space
FN:29,_RNvMNtCsfztrlbScSWy_10balatro_rs9generatorNtNtB4_4game4Game16gen_actions_play
FN:47,_RNvMNtCsfztrlbScSWy_10balatro_rs9generatorNtNtB4_4game4Game19gen_actions_discard
FN:137,_RNvMNtCsfztrlbScSWy_10balatro_rs9generatorNtNtB4_4game4Game20gen_actions_buy_pack
FN:92,_RNvMNtCsfztrlbScSWy_10balatro_rs9generatorNtNtB4_4game4Game20gen_actions_cash_out
FN:123,_RNvMNtCsfztrlbScSWy_10balatro_rs9generatorNtNtB4_4game4Game21gen_actions_buy_joker
FN:65,_RNvMNtCsfztrlbScSWy_10balatro_rs9generatorNtNtB4_4game4Game21gen_actions_move_card
FN:154,_RNvMNtCsfztrlbScSWy_10balatro_rs9generatorNtNtB4_4game4Game21gen_actions_open_pack
FN:179,_RNvMNtCsfztrlbScSWy_10balatro_rs9generatorNtNtB4_4game4Game21gen_actions_skip_pack
FN:101,_RNvMNtCsfztrlbScSWy_10balatro_rs9generatorNtNtB4_4game4Game22gen_actions_next_round
FN:10,_RNvMNtCsfztrlbScSWy_10balatro_rs9generatorNtNtB4_4game4Game23gen_actions_select_card
FN:110,_RNvMNtCsfztrlbScSWy_10balatro_rs9generatorNtNtB4_4game4Game24gen_actions_select_blind
FN:164,_RNvMNtCsfztrlbScSWy_10balatro_rs9generatorNtNtB4_4game4Game28gen_actions_select_from_pack
FN:295,_RNvMNtCsfztrlbScSWy_10balatro_rs9generatorNtNtB4_4game4Game28unmask_action_space_cash_out
FN:316,_RNvMNtCsfztrlbScSWy_10balatro_rs9generatorNtNtB4_4game4Game29unmask_action_space_buy_joker
FN:263,_RNvMNtCsfztrlbScSWy_10balatro_rs9generatorNtNtB4_4game4Game30unmask_action_space_move_cards
FN:302,_RNvMNtCsfztrlbScSWy_10balatro_rs9generatorNtNtB4_4game4Game30unmask_action_space_next_round
FN:309,_RNvMNtCsfztrlbScSWy_10balatro_rs9generatorNtNtB4_4game4Game32unmask_action_space_select_blind
FN:226,_RNvMNtCsfztrlbScSWy_10balatro_rs9generatorNtNtB4_4game4Game32unmask_action_space_select_cards
FN:246,_RNvMNtCsfztrlbScSWy_10balatro_rs9generatorNtNtB4_4game4Game36unmask_action_space_play_and_discard
FN:149,_RNCNvMNtCsfztrlbScSWy_10balatro_rs9generatorNtNtB6_4game4Game20gen_actions_buy_pack0B6_
FN:76,_RNCNvMNtCsfztrlbScSWy_10balatro_rs9generatorNtNtB6_4game4Game21gen_actions_move_card0B6_
FN:85,_RNCNvMNtCsfztrlbScSWy_10balatro_rs9generatorNtNtB6_4game4Game21gen_actions_move_cards_0B6_
FN:160,_RNCNvMNtCsfztrlbScSWy_10balatro_rs9generatorNtNtB6_4game4Game21gen_actions_open_pack0B6_
FN:169,_RNCNvMNtCsfztrlbScSWy_10balatro_rs9generatorNtNtB6_4game4Game28gen_actions_select_from_pack0B6_
FN:324,_RNCNvMNtCsfztrlbScSWy_10balatro_rs9generatorNtNtB6_4game4Game29unmask_action_space_buy_joker0B6_
FN:325,_RNCNvMNtCsfztrlbScSWy_10balatro_rs9generatorNtNtB6_4game4Game29unmask_action_space_buy_jokers_0B6_
FN:274,_RNCNvMNtCsfztrlbScSWy_10balatro_rs9generatorNtNtB6_4game4Game30unmask_action_space_move_cards0B6_
FN:288,_RNCNvMNtCsfztrlbScSWy_10balatro_rs9generatorNtNtB6_4game4Game30unmask_action_space_move_cardss_0B6_
FN:238,_RNCNvMNtCsfztrlbScSWy_10balatro_rs9generatorNtNtB6_4game4Game32unmask_action_space_select_cards0B6_
FN:239,_RNCNvMNtCsfztrlbScSWy_10balatro_rs9generatorNtNtB6_4game4Game32unmask_action_space_select_cardss_0B6_
FN:149,_RNCNvMNtCsfztrlbScSWy_10balatro_rs9generatorNtNtB6_4game4Game20gen_actions_buy_pack0Cs1B1BE9wOEi6_17pack_system_tests
FN:76,_RNCNvMNtCsfztrlbScSWy_10balatro_rs9generatorNtNtB6_4game4Game21gen_actions_move_card0Cs1B1BE9wOEi6_17pack_system_tests
FN:85,_RNCNvMNtCsfztrlbScSWy_10balatro_rs9generatorNtNtB6_4game4Game21gen_actions_move_cards_0Cs1B1BE9wOEi6_17pack_system_tests
FN:160,_RNCNvMNtCsfztrlbScSWy_10balatro_rs9generatorNtNtB6_4game4Game21gen_actions_open_pack0Cs1B1BE9wOEi6_17pack_system_tests
FN:169,_RNCNvMNtCsfztrlbScSWy_10balatro_rs9generatorNtNtB6_4game4Game28gen_actions_select_from_pack0Cs1B1BE9wOEi6_17pack_system_tests
FN:149,_RNCNvMNtCsfztrlbScSWy_10balatro_rs9generatorNtNtB6_4game4Game20gen_actions_buy_pack0CseGzXqsw551o_9pyo3_test
FN:76,_RNCNvMNtCsfztrlbScSWy_10balatro_rs9generatorNtNtB6_4game4Game21gen_actions_move_card0CseGzXqsw551o_9pyo3_test
FN:85,_RNCNvMNtCsfztrlbScSWy_10balatro_rs9generatorNtNtB6_4game4Game21gen_actions_move_cards_0CseGzXqsw551o_9pyo3_test
FN:160,_RNCNvMNtCsfztrlbScSWy_10balatro_rs9generatorNtNtB6_4game4Game21gen_actions_open_pack0CseGzXqsw551o_9pyo3_test
FN:169,_RNCNvMNtCsfztrlbScSWy_10balatro_rs9generatorNtNtB6_4game4Game28gen_actions_select_from_pack0CseGzXqsw551o_9pyo3_test
FN:149,_RNCNvMNtCsfztrlbScSWy_10balatro_rs9generatorNtNtB6_4game4Game20gen_actions_buy_pack0CskO8rLr2X72i_4test
FN:76,_RNCNvMNtCsfztrlbScSWy_10balatro_rs9generatorNtNtB6_4game4Game21gen_actions_move_card0CskO8rLr2X72i_4test
FN:85,_RNCNvMNtCsfztrlbScSWy_10balatro_rs9generatorNtNtB6_4game4Game21gen_actions_move_cards_0CskO8rLr2X72i_4test
FN:160,_RNCNvMNtCsfztrlbScSWy_10balatro_rs9generatorNtNtB6_4game4Game21gen_actions_open_pack0CskO8rLr2X72i_4test
FN:169,_RNCNvMNtCsfztrlbScSWy_10balatro_rs9generatorNtNtB6_4game4Game28gen_actions_select_from_pack0CskO8rLr2X72i_4test
FNDA:200,_RNvMNtCs6ewEfsi5izM_10balatro_rs9generatorNtNtB4_4game4Game11gen_actions
FNDA:108,_RNvMNtCs6ewEfsi5izM_10balatro_rs9generatorNtNtB4_4game4Game16gen_action_space
FNDA:202,_RNvMNtCs6ewEfsi5izM_10balatro_rs9generatorNtNtB4_4game4Game16gen_actions_play
FNDA:203,_RNvMNtCs6ewEfsi5izM_10balatro_rs9generatorNtNtB4_4game4Game19gen_actions_discard
FNDA:200,_RNvMNtCs6ewEfsi5izM_10balatro_rs9generatorNtNtB4_4game4Game20gen_actions_buy_pack
FNDA:200,_RNvMNtCs6ewEfsi5izM_10balatro_rs9generatorNtNtB4_4game4Game20gen_actions_cash_out
FNDA:200,_RNvMNtCs6ewEfsi5izM_10balatro_rs9generatorNtNtB4_4game4Game21gen_actions_buy_joker
FNDA:200,_RNvMNtCs6ewEfsi5izM_10balatro_rs9generatorNtNtB4_4game4Game21gen_actions_move_card
FNDA:200,_RNvMNtCs6ewEfsi5izM_10balatro_rs9generatorNtNtB4_4game4Game21gen_actions_open_pack
FNDA:200,_RNvMNtCs6ewEfsi5izM_10balatro_rs9generatorNtNtB4_4game4Game21gen_actions_skip_pack
FNDA:200,_RNvMNtCs6ewEfsi5izM_10balatro_rs9generatorNtNtB4_4game4Game22gen_actions_next_round
FNDA:200,_RNvMNtCs6ewEfsi5izM_10balatro_rs9generatorNtNtB4_4game4Game23gen_actions_select_card
FNDA:200,_RNvMNtCs6ewEfsi5izM_10balatro_rs9generatorNtNtB4_4game4Game24gen_actions_select_blind
FNDA:200,_RNvMNtCs6ewEfsi5izM_10balatro_rs9generatorNtNtB4_4game4Game28gen_actions_select_from_pack
FNDA:108,_RNvMNtCs6ewEfsi5izM_10balatro_rs9generatorNtNtB4_4game4Game28unmask_action_space_cash_out
FNDA:108,_RNvMNtCs6ewEfsi5izM_10balatro_rs9generatorNtNtB4_4game4Game29unmask_action_space_buy_joker
FNDA:110,_RNvMNtCs6ewEfsi5izM_10balatro_rs9generatorNtNtB4_4game4Game30unmask_action_space_move_cards
FNDA:108,_RNvMNtCs6ewEfsi5izM_10balatro_rs9generatorNtNtB4_4game4Game30unmask_action_space_next_round
FNDA:108,_RNvMNtCs6ewEfsi5izM_10balatro_rs9generatorNtNtB4_4game4Game32unmask_action_space_select_blind
FNDA:113,_RNvMNtCs6ewEfsi5izM_10balatro_rs9generatorNtNtB4_4game4Game32unmask_action_space_select_cards
FNDA:109,_RNvMNtCs6ewEfsi5izM_10balatro_rs9generatorNtNtB4_4game4Game36unmask_action_space_play_and_discard
FNDA:1,_RNvNtNtCs6ewEfsi5izM_10balatro_rs9generator5testss_19test_gen_moves_play
FNDA:1,_RNvNtNtCs6ewEfsi5izM_10balatro_rs9generator5testss_22test_gen_moves_discard
FNDA:1,_RNvNtNtCs6ewEfsi5izM_10balatro_rs9generator5testss_35test_unmask_action_space_move_cards
FNDA:1,_RNvNtNtCs6ewEfsi5izM_10balatro_rs9generator5testss_37test_unmask_action_space_select_cards
FNDA:1,_RNvNtNtCs6ewEfsi5izM_10balatro_rs9generator5testss_41test_unmask_action_space_play_and_discard
FNDA:1,_RNvNtNtCs6ewEfsi5izM_10balatro_rs9generator5testss_41test_unmask_action_space_select_cards_max
FNDA:0,_RNCNvMNtCs6ewEfsi5izM_10balatro_rs9generatorNtNtB6_4game4Game20gen_actions_buy_pack0B6_
FNDA:1393,_RNCNvMNtCs6ewEfsi5izM_10balatro_rs9generatorNtNtB6_4game4Game21gen_actions_move_card0B6_
FNDA:1393,_RNCNvMNtCs6ewEfsi5izM_10balatro_rs9generatorNtNtB6_4game4Game21gen_actions_move_cards_0B6_
FNDA:0,_RNCNvMNtCs6ewEfsi5izM_10balatro_rs9generatorNtNtB6_4game4Game21gen_actions_open_pack0B6_
FNDA:0,_RNCNvMNtCs6ewEfsi5izM_10balatro_rs9generatorNtNtB6_4game4Game28gen_actions_select_from_pack0B6_
FNDA:0,_RNCNvMNtCs6ewEfsi5izM_10balatro_rs9generatorNtNtB6_4game4Game29unmask_action_space_buy_joker0B6_
FNDA:0,_RNCNvMNtCs6ewEfsi5izM_10balatro_rs9generatorNtNtB6_4game4Game29unmask_action_space_buy_jokers_0B6_
FNDA:749,_RNCNvMNtCs6ewEfsi5izM_10balatro_rs9generatorNtNtB6_4game4Game30unmask_action_space_move_cards0B6_
FNDA:749,_RNCNvMNtCs6ewEfsi5izM_10balatro_rs9generatorNtNtB6_4game4Game30unmask_action_space_move_cardss_0B6_
FNDA:776,_RNCNvMNtCs6ewEfsi5izM_10balatro_rs9generatorNtNtB6_4game4Game32unmask_action_space_select_cards0B6_
FNDA:641,_RNCNvMNtCs6ewEfsi5izM_10balatro_rs9generatorNtNtB6_4game4Game32unmask_action_space_select_cardss_0B6_
FNDA:68,_RNvMNtCsfztrlbScSWy_10balatro_rs9generatorNtNtB4_4game4Game11gen_actions
FNDA:70,_RNvMNtCsfztrlbScSWy_10balatro_rs9generatorNtNtB4_4game4Game16gen_action_space
FNDA:68,_RNvMNtCsfztrlbScSWy_10balatro_rs9generatorNtNtB4_4game4Game16gen_actions_play
FNDA:68,_RNvMNtCsfztrlbScSWy_10balatro_rs9generatorNtNtB4_4game4Game19gen_actions_discard
FNDA:68,_RNvMNtCsfztrlbScSWy_10balatro_rs9generatorNtNtB4_4game4Game20gen_actions_buy_pack
FNDA:68,_RNvMNtCsfztrlbScSWy_10balatro_rs9generatorNtNtB4_4game4Game20gen_actions_cash_out
FNDA:68,_RNvMNtCsfztrlbScSWy_10balatro_rs9generatorNtNtB4_4game4Game21gen_actions_buy_joker
FNDA:68,_RNvMNtCsfztrlbScSWy_10balatro_rs9generatorNtNtB4_4game4Game21gen_actions_move_card
FNDA:68,_RNvMNtCsfztrlbScSWy_10balatro_rs9generatorNtNtB4_4game4Game21gen_actions_open_pack
FNDA:68,_RNvMNtCsfztrlbScSWy_10balatro_rs9generatorNtNtB4_4game4Game21gen_actions_skip_pack
FNDA:68,_RNvMNtCsfztrlbScSWy_10balatro_rs9generatorNtNtB4_4game4Game22gen_actions_next_round
FNDA:68,_RNvMNtCsfztrlbScSWy_10balatro_rs9generatorNtNtB4_4game4Game23gen_actions_select_card
FNDA:68,_RNvMNtCsfztrlbScSWy_10balatro_rs9generatorNtNtB4_4game4Game24gen_actions_select_blind
FNDA:68,_RNvMNtCsfztrlbScSWy_10balatro_rs9generatorNtNtB4_4game4Game28gen_actions_select_from_pack
FNDA:70,_RNvMNtCsfztrlbScSWy_10balatro_rs9generatorNtNtB4_4game4Game28unmask_action_space_cash_out
FNDA:70,_RNvMNtCsfztrlbScSWy_10balatro_rs9generatorNtNtB4_4game4Game29unmask_action_space_buy_joker
FNDA:70,_RNvMNtCsfztrlbScSWy_10balatro_rs9generatorNtNtB4_4game4Game30unmask_action_space_move_cards
FNDA:70,_RNvMNtCsfztrlbScSWy_10balatro_rs9generatorNtNtB4_4game4Game30unmask_action_space_next_round
FNDA:70,_RNvMNtCsfztrlbScSWy_10balatro_rs9generatorNtNtB4_4game4Game32unmask_action_space_select_blind
FNDA:70,_RNvMNtCsfztrlbScSWy_10balatro_rs9generatorNtNtB4_4game4Game32unmask_action_space_select_cards
FNDA:70,_RNvMNtCsfztrlbScSWy_10balatro_rs9generatorNtNtB4_4game4Game36unmask_action_space_play_and_discard
FNDA:0,_RNCNvMNtCsfztrlbScSWy_10balatro_rs9generatorNtNtB6_4game4Game20gen_actions_buy_pack0B6_
FNDA:0,_RNCNvMNtCsfztrlbScSWy_10balatro_rs9generatorNtNtB6_4game4Game21gen_actions_move_card0B6_
FNDA:0,_RNCNvMNtCsfztrlbScSWy_10balatro_rs9generatorNtNtB6_4game4Game21gen_actions_move_cards_0B6_
FNDA:0,_RNCNvMNtCsfztrlbScSWy_10balatro_rs9generatorNtNtB6_4game4Game21gen_actions_open_pack0B6_
FNDA:0,_RNCNvMNtCsfztrlbScSWy_10balatro_rs9generatorNtNtB6_4game4Game28gen_actions_select_from_pack0B6_
FNDA:0,_RNCNvMNtCsfztrlbScSWy_10balatro_rs9generatorNtNtB6_4game4Game29unmask_action_space_buy_joker0B6_
FNDA:0,_RNCNvMNtCsfztrlbScSWy_10balatro_rs9generatorNtNtB6_4game4Game29unmask_action_space_buy_jokers_0B6_
FNDA:476,_RNCNvMNtCsfztrlbScSWy_10balatro_rs9generatorNtNtB6_4game4Game30unmask_action_space_move_cards0B6_
FNDA:476,_RNCNvMNtCsfztrlbScSWy_10balatro_rs9generatorNtNtB6_4game4Game30unmask_action_space_move_cardss_0B6_
FNDA:424,_RNCNvMNtCsfztrlbScSWy_10balatro_rs9generatorNtNtB6_4game4Game32unmask_action_space_select_cards0B6_
FNDA:370,_RNCNvMNtCsfztrlbScSWy_10balatro_rs9generatorNtNtB6_4game4Game32unmask_action_space_select_cardss_0B6_
FNDA:72,_RNCNvMNtCsfztrlbScSWy_10balatro_rs9generatorNtNtB6_4game4Game20gen_actions_buy_pack0Cs1B1BE9wOEi6_17pack_system_tests
FNDA:0,_RNCNvMNtCsfztrlbScSWy_10balatro_rs9generatorNtNtB6_4game4Game21gen_actions_move_card0Cs1B1BE9wOEi6_17pack_system_tests
FNDA:0,_RNCNvMNtCsfztrlbScSWy_10balatro_rs9generatorNtNtB6_4game4Game21gen_actions_move_cards_0Cs1B1BE9wOEi6_17pack_system_tests
FNDA:0,_RNCNvMNtCsfztrlbScSWy_10balatro_rs9generatorNtNtB6_4game4Game21gen_actions_open_pack0Cs1B1BE9wOEi6_17pack_system_tests
FNDA:0,_RNCNvMNtCsfztrlbScSWy_10balatro_rs9generatorNtNtB6_4game4Game28gen_actions_select_from_pack0Cs1B1BE9wOEi6_17pack_system_tests
FNDA:0,_RNCNvMNtCsfztrlbScSWy_10balatro_rs9generatorNtNtB6_4game4Game20gen_actions_buy_pack0CseGzXqsw551o_9pyo3_test
FNDA:0,_RNCNvMNtCsfztrlbScSWy_10balatro_rs9generatorNtNtB6_4game4Game21gen_actions_move_card0CseGzXqsw551o_9pyo3_test
FNDA:0,_RNCNvMNtCsfztrlbScSWy_10balatro_rs9generatorNtNtB6_4game4Game21gen_actions_move_cards_0CseGzXqsw551o_9pyo3_test
FNDA:0,_RNCNvMNtCsfztrlbScSWy_10balatro_rs9generatorNtNtB6_4game4Game21gen_actions_open_pack0CseGzXqsw551o_9pyo3_test
FNDA:0,_RNCNvMNtCsfztrlbScSWy_10balatro_rs9generatorNtNtB6_4game4Game28gen_actions_select_from_pack0CseGzXqsw551o_9pyo3_test
FNDA:0,_RNCNvMNtCsfztrlbScSWy_10balatro_rs9generatorNtNtB6_4game4Game20gen_actions_buy_pack0CskO8rLr2X72i_4test
FNDA:406,_RNCNvMNtCsfztrlbScSWy_10balatro_rs9generatorNtNtB6_4game4Game21gen_actions_move_card0CskO8rLr2X72i_4test
FNDA:406,_RNCNvMNtCsfztrlbScSWy_10balatro_rs9generatorNtNtB6_4game4Game21gen_actions_move_cards_0CskO8rLr2X72i_4test
FNDA:0,_RNCNvMNtCsfztrlbScSWy_10balatro_rs9generatorNtNtB6_4game4Game21gen_actions_open_pack0CskO8rLr2X72i_4test
FNDA:0,_RNCNvMNtCsfztrlbScSWy_10balatro_rs9generatorNtNtB6_4game4Game28gen_actions_select_from_pack0CskO8rLr2X72i_4test
FNF:38
FNH:34
DA:10,268
DA:12,268
DA:13,11
DA:14,257
DA:16,257
DA:17,124
DA:18,133
DA:19,133
DA:20,133
DA:21,133
DA:22,133
DA:23,133
DA:24,133
DA:25,133
DA:26,268
DA:29,270
DA:31,270
DA:32,11
DA:33,259
DA:35,259
DA:36,0
DA:37,259
DA:39,259
DA:40,30
DA:41,229
DA:42,229
DA:43,229
DA:44,270
DA:47,271
DA:49,271
DA:50,11
DA:51,260
DA:53,260
DA:54,132
DA:55,128
DA:57,128
DA:58,26
DA:59,102
DA:60,102
DA:61,102
DA:62,271
DA:65,268
DA:67,268
DA:68,11
DA:69,257
DA:70,257
DA:71,257
DA:72,257
DA:73,257
DA:74,257
DA:75,257
DA:76,1799
DA:77,257
DA:78,257
DA:79,257
DA:80,257
DA:81,257
DA:82,257
DA:83,257
DA:84,257
DA:85,1799
DA:87,257
DA:88,257
DA:89,268
DA:92,268
DA:94,268
DA:95,268
DA:96,0
DA:97,0
DA:98,268
DA:101,268
DA:103,268
DA:104,260
DA:105,8
DA:106,8
DA:107,268
DA:110,268
DA:112,268
DA:113,265
DA:114,3
DA:115,3
DA:116,0
DA:118,3
DA:120,268
DA:123,268
DA:125,268
DA:126,260
DA:127,8
DA:129,8
DA:130,0
DA:131,8
DA:132,8
DA:133,8
DA:134,268
DA:137,268
DA:139,268
DA:140,260
DA:141,8
DA:143,8
DA:144,8
DA:147,8
DA:148,8
DA:149,72
DA:151,268
DA:154,268
DA:156,268
DA:157,268
DA:158,0
DA:160,0
DA:161,268
DA:164,268
DA:166,268
DA:169,0
DA:170,0
DA:171,0
DA:172,0
DA:173,0
DA:174,0
DA:176,268
DA:179,268
DA:181,268
DA:183,0
DA:184,0
DA:185,0
DA:187,0
DA:188,0
DA:189,0
DA:190,0
DA:191,0
DA:192,0
DA:193,268
DA:196,268
DA:197,268
DA:198,268
DA:199,268
DA:200,268
DA:201,268
DA:202,268
DA:203,268
DA:204,268
DA:205,268
DA:206,268
DA:207,268
DA:208,268
DA:210,268
DA:211,268
DA:212,268
DA:213,268
DA:214,268
DA:215,268
DA:216,268
DA:217,268
DA:218,268
DA:219,268
DA:220,268
DA:221,268
DA:222,268
DA:223,268
DA:224,268
DA:226,183
DA:227,183
DA:228,6
DA:229,177
DA:231,177
DA:232,27
DA:233,150
DA:234,150
DA:235,150
DA:236,150
DA:237,150
DA:238,1200
DA:239,1011
DA:240,1011
DA:241,1011
DA:242,1011
DA:243,1011
DA:244,183
DA:246,179
DA:247,179
DA:248,5
DA:249,174
DA:251,174
DA:252,55
DA:253,119
DA:255,119
DA:256,119
DA:257,119
DA:258,119
DA:259,105
DA:260,105
DA:261,179
DA:263,180
DA:264,180
DA:265,5
DA:266,175
DA:269,175
DA:270,175
DA:271,175
DA:272,175
DA:273,175
DA:274,1225
DA:275,1225
DA:276,1225
DA:277,1225
DA:278,1225
DA:281,175
DA:282,175
DA:283,175
DA:284,175
DA:285,175
DA:286,175
DA:287,175
DA:288,1225
DA:289,1225
DA:290,1225
DA:291,1225
DA:292,1225
DA:293,180
DA:295,178
DA:296,178
DA:297,178
DA:298,0
DA:299,0
DA:300,178
DA:302,178
DA:303,178
DA:304,178
DA:305,0
DA:306,0
DA:307,178
DA:309,178
DA:310,178
DA:311,173
DA:312,5
DA:313,5
DA:314,178
DA:316,178
DA:317,178
DA:318,178
DA:319,0
DA:320,0
DA:321,0
DA:322,0
DA:323,0
DA:324,0
DA:325,0
DA:326,0
DA:327,0
DA:328,0
DA:329,0
DA:330,178
DA:333,178
DA:334,178
DA:335,178
DA:336,178
DA:337,178
DA:338,178
DA:339,178
DA:340,178
DA:341,178
DA:342,178
DA:343,178
DA:352,1
DA:353,1
DA:354,1
DA:356,1
DA:357,1
DA:360,1
DA:362,1
DA:363,1
DA:364,1
DA:365,1
DA:367,1
DA:368,1
DA:369,1
DA:370,1
DA:371,1
DA:372,1
DA:375,1
DA:376,1
DA:377,1
DA:379,1
DA:380,1
DA:383,1
DA:385,1
DA:386,1
DA:387,1
DA:388,1
DA:389,1
DA:390,1
DA:393,1
DA:394,1
DA:395,1
DA:396,1
DA:397,1
DA:400,1
DA:403,1
DA:404,1
DA:407,1
DA:409,3
DA:410,2
DA:411,2
DA:412,2
DA:413,1
DA:415,1
DA:416,1
DA:417,1
DA:418,1
DA:421,1
DA:422,1
DA:423,1
DA:424,1
DA:425,1
DA:428,1
DA:431,1
DA:432,1
DA:435,1
DA:437,5
DA:438,5
DA:439,5
DA:440,5
DA:441,1
DA:442,23
DA:443,23
DA:447,1
DA:448,1
DA:449,1
DA:450,1
DA:451,1
DA:452,1
DA:453,1
DA:456,1
DA:457,1
DA:458,1
DA:459,1
DA:460,1
DA:463,1
DA:464,1
DA:466,5
DA:467,5
DA:468,5
DA:470,1
DA:471,1
DA:472,1
DA:473,1
DA:476,1
DA:477,1
DA:478,1
DA:479,1
DA:482,1
DA:483,23
DA:484,23
DA:486,23
DA:487,23
DA:491,1
DA:493,1
DA:496,1
DA:497,7
DA:498,7
DA:500,7
DA:501,7
DA:505,1
DA:506,5
DA:507,5
DA:508,5
DA:511,1
DA:512,1
DA:513,7
DA:514,7
DA:516,7
DA:517,7
DA:519,1
BRF:0
BRH:0
LF:383
LH:342
end_of_record
SF:/home/spduncan/balatro-rs-ws/fix-issue-184-cicd-pipeline/core/src/hand.rs
FN:41,_RINvXNvXNvNtCs6ewEfsi5izM_10balatro_rs4hands3_1__NtB8_10SelectHandNtNtCsWuCv7H75Ac_5serde2de11Deserialize11deserializeNtB3_9___VisitorNtB14_7Visitor20visit_newtype_structpEBa_
FN:41,_RINvXNvXNvNtCs6ewEfsi5izM_10balatro_rs4hands3_1__NtB8_10SelectHandNtNtCsWuCv7H75Ac_5serde2de11Deserialize11deserializeNtB3_9___VisitorNtB14_7Visitor9visit_seqpEBa_
FN:20,_RINvXNvXNvNtCs6ewEfsi5izM_10balatro_rs4hands_1__NtB8_4HandNtNtCsWuCv7H75Ac_5serde2de11Deserialize11deserializeNtB3_9___VisitorNtBW_7Visitor20visit_newtype_structpEBa_
FN:20,_RINvXNvXNvNtCs6ewEfsi5izM_10balatro_rs4hands_1__NtB8_4HandNtNtCsWuCv7H75Ac_5serde2de11Deserialize11deserializeNtB3_9___VisitorNtBW_7Visitor9visit_seqpEBa_
FN:32,_RINvXs0_NvXNvNtCs6ewEfsi5izM_10balatro_rs4hands1_1__NtBb_8MadeHandNtNtCsWuCv7H75Ac_5serde2de11Deserialize11deserializeNtB6_9___VisitorNtB14_7Visitor9visit_mappEBd_
FN:32,_RINvXs0_NvXNvNtCs6ewEfsi5izM_10balatro_rs4hands1_1__NtBb_8MadeHandNtNtCsWuCv7H75Ac_5serde2de11Deserialize11deserializeNtB6_9___VisitorNtB14_7Visitor9visit_seqpEBd_
FN:83,_RNvMs_NtCs6ewEfsi5izM_10balatro_rs4handNtB4_10SelectHand5suits
FN:473,_RNvXs0_NtCs6ewEfsi5izM_10balatro_rs4handNtB5_10SelectHandNtNtCs1p5UDGgVI4d_4core7default7Default7default
FN:480,_RNvXs1_NtCs6ewEfsi5izM_10balatro_rs4handNtB5_10SelectHandNtNtCs1p5UDGgVI4d_4core3fmt7Display3fmt
FN:26,_RNvMNtCs6ewEfsi5izM_10balatro_rs4handNtB2_4Hand3new
FN:89,_RNvMs_NtCs6ewEfsi5izM_10balatro_rs4handNtB4_10SelectHand10suits_freq
FN:232,_RNvMs_NtCs6ewEfsi5izM_10balatro_rs4handNtB4_10SelectHand11is_highcard
FN:330,_RNvMs_NtCs6ewEfsi5izM_10balatro_rs4handNtB4_10SelectHand11is_straight
FN:282,_RNvMs_NtCs6ewEfsi5izM_10balatro_rs4handNtB4_10SelectHand11is_two_pair
FN:63,_RNvMs_NtCs6ewEfsi5izM_10balatro_rs4handNtB4_10SelectHand11values_freq
FN:372,_RNvMs_NtCs6ewEfsi5izM_10balatro_rs4handNtB4_10SelectHand12is_fullhouse
FN:464,_RNvMs_NtCs6ewEfsi5izM_10balatro_rs4handNtB4_10SelectHand13is_flush_five
FN:457,_RNvMs_NtCs6ewEfsi5izM_10balatro_rs4handNtB4_10SelectHand14is_flush_house
FN:427,_RNvMs_NtCs6ewEfsi5izM_10balatro_rs4handNtB4_10SelectHand14is_royal_flush
FN:442,_RNvMs_NtCs6ewEfsi5izM_10balatro_rs4handNtB4_10SelectHand15is_five_of_kind
FN:405,_RNvMs_NtCs6ewEfsi5izM_10balatro_rs4handNtB4_10SelectHand15is_four_of_kind
FN:315,_RNvMs_NtCs6ewEfsi5izM_10balatro_rs4handNtB4_10SelectHand16is_three_of_kind
FN:420,_RNvMs_NtCs6ewEfsi5izM_10balatro_rs4handNtB4_10SelectHand17is_straight_flush
FN:50,_RNvMs_NtCs6ewEfsi5izM_10balatro_rs4handNtB4_10SelectHand3len
FN:47,_RNvMs_NtCs6ewEfsi5izM_10balatro_rs4handNtB4_10SelectHand3new
FN:57,_RNvMs_NtCs6ewEfsi5izM_10balatro_rs4handNtB4_10SelectHand5cards
FN:54,_RNvMs_NtCs6ewEfsi5izM_10balatro_rs4handNtB4_10SelectHand6values
FN:267,_RNvMs_NtCs6ewEfsi5izM_10balatro_rs4handNtB4_10SelectHand7is_pair
FN:357,_RNvMs_NtCs6ewEfsi5izM_10balatro_rs4handNtB4_10SelectHand8is_flush
FN:127,_RNvMs_NtCs6ewEfsi5izM_10balatro_rs4handNtB4_10SelectHand9best_hand
FN:840,_RNvNtNtCs6ewEfsi5izM_10balatro_rs4hand5testss_10test_flush
FN:495,_RNvNtNtCs6ewEfsi5izM_10balatro_rs4hand5testss_11test_values
FN:613,_RNvNtNtCs6ewEfsi5izM_10balatro_rs4hand5testss_13test_highcard
FN:804,_RNvNtNtCs6ewEfsi5izM_10balatro_rs4hand5testss_13test_straight
FN:720,_RNvNtNtCs6ewEfsi5izM_10balatro_rs4hand5testss_13test_two_pair
FN:582,_RNvNtNtCs6ewEfsi5izM_10balatro_rs4hand5testss_14test_best_hand
FN:870,_RNvNtNtCs6ewEfsi5izM_10balatro_rs4hand5testss_14test_fullhouse
FN:1069,_RNvNtNtCs6ewEfsi5izM_10balatro_rs4hand5testss_15test_flush_five
FN:552,_RNvNtNtCs6ewEfsi5izM_10balatro_rs4hand5testss_15test_suits_freq
FN:1038,_RNvNtNtCs6ewEfsi5izM_10balatro_rs4hand5testss_16test_flush_house
FN:972,_RNvNtNtCs6ewEfsi5izM_10balatro_rs4hand5testss_16test_royal_flush
FN:517,_RNvNtNtCs6ewEfsi5izM_10balatro_rs4hand5testss_16test_values_freq
FN:1008,_RNvNtNtCs6ewEfsi5izM_10balatro_rs4hand5testss_17test_five_of_kind
FN:906,_RNvNtNtCs6ewEfsi5izM_10balatro_rs4hand5testss_17test_four_of_kind
FN:760,_RNvNtNtCs6ewEfsi5izM_10balatro_rs4hand5testss_18test_three_of_kind
FN:935,_RNvNtNtCs6ewEfsi5izM_10balatro_rs4hand5testss_19test_straight_flush
FN:665,_RNvNtNtCs6ewEfsi5izM_10balatro_rs4hand5testss_9test_pair
FN:103,_RNCNvMs_NtCs6ewEfsi5izM_10balatro_rs4handNtB6_10SelectHand10suits_freq0B8_
FN:259,_RNCNvMs_NtCs6ewEfsi5izM_10balatro_rs4handNtB6_10SelectHand11is_highcard0B8_
FN:336,_RNCNvMs_NtCs6ewEfsi5izM_10balatro_rs4handNtB6_10SelectHand11is_straight0B8_
FN:349,_RNCNvMs_NtCs6ewEfsi5izM_10balatro_rs4handNtB6_10SelectHand11is_straights_0B8_
FN:291,_RNCNvMs_NtCs6ewEfsi5izM_10balatro_rs4handNtB6_10SelectHand11is_two_pair0B8_
FN:305,_RNCNvMs_NtCs6ewEfsi5izM_10balatro_rs4handNtB6_10SelectHand11is_two_pairs_0B8_
FN:77,_RNCNvMs_NtCs6ewEfsi5izM_10balatro_rs4handNtB6_10SelectHand11values_freq0B8_
FN:381,_RNCNvMs_NtCs6ewEfsi5izM_10balatro_rs4handNtB6_10SelectHand12is_fullhouse0B8_
FN:395,_RNCNvMs_NtCs6ewEfsi5izM_10balatro_rs4handNtB6_10SelectHand12is_fullhouses_0B8_
FN:449,_RNCNvMs_NtCs6ewEfsi5izM_10balatro_rs4handNtB6_10SelectHand15is_five_of_kind0B8_
FN:412,_RNCNvMs_NtCs6ewEfsi5izM_10balatro_rs4handNtB6_10SelectHand15is_four_of_kind0B8_
FN:322,_RNCNvMs_NtCs6ewEfsi5izM_10balatro_rs4handNtB6_10SelectHand16is_three_of_kind0B8_
FN:274,_RNCNvMs_NtCs6ewEfsi5izM_10balatro_rs4handNtB6_10SelectHand7is_pair0B8_
FN:364,_RNCNvMs_NtCs6ewEfsi5izM_10balatro_rs4handNtB6_10SelectHand8is_flush0B8_
FN:26,_RNvMNtCsfztrlbScSWy_10balatro_rs4handNtB2_4Hand3new
FN:89,_RNvMs_NtCsfztrlbScSWy_10balatro_rs4handNtB4_10SelectHand10suits_freq
FN:232,_RNvMs_NtCsfztrlbScSWy_10balatro_rs4handNtB4_10SelectHand11is_highcard
FN:330,_RNvMs_NtCsfztrlbScSWy_10balatro_rs4handNtB4_10SelectHand11is_straight
FN:282,_RNvMs_NtCsfztrlbScSWy_10balatro_rs4handNtB4_10SelectHand11is_two_pair
FN:63,_RNvMs_NtCsfztrlbScSWy_10balatro_rs4handNtB4_10SelectHand11values_freq
FN:372,_RNvMs_NtCsfztrlbScSWy_10balatro_rs4handNtB4_10SelectHand12is_fullhouse
FN:464,_RNvMs_NtCsfztrlbScSWy_10balatro_rs4handNtB4_10SelectHand13is_flush_five
FN:457,_RNvMs_NtCsfztrlbScSWy_10balatro_rs4handNtB4_10SelectHand14is_flush_house
FN:427,_RNvMs_NtCsfztrlbScSWy_10balatro_rs4handNtB4_10SelectHand14is_royal_flush
FN:442,_RNvMs_NtCsfztrlbScSWy_10balatro_rs4handNtB4_10SelectHand15is_five_of_kind
FN:405,_RNvMs_NtCsfztrlbScSWy_10balatro_rs4handNtB4_10SelectHand15is_four_of_kind
FN:315,_RNvMs_NtCsfztrlbScSWy_10balatro_rs4handNtB4_10SelectHand16is_three_of_kind
FN:420,_RNvMs_NtCsfztrlbScSWy_10balatro_rs4handNtB4_10SelectHand17is_straight_flush
FN:50,_RNvMs_NtCsfztrlbScSWy_10balatro_rs4handNtB4_10SelectHand3len
FN:47,_RNvMs_NtCsfztrlbScSWy_10balatro_rs4handNtB4_10SelectHand3new
FN:57,_RNvMs_NtCsfztrlbScSWy_10balatro_rs4handNtB4_10SelectHand5cards
FN:54,_RNvMs_NtCsfztrlbScSWy_10balatro_rs4handNtB4_10SelectHand6values
FN:267,_RNvMs_NtCsfztrlbScSWy_10balatro_rs4handNtB4_10SelectHand7is_pair
FN:357,_RNvMs_NtCsfztrlbScSWy_10balatro_rs4handNtB4_10SelectHand8is_flush
FN:127,_RNvMs_NtCsfztrlbScSWy_10balatro_rs4handNtB4_10SelectHand9best_hand
FN:473,_RNvXs0_NtCsfztrlbScSWy_10balatro_rs4handNtB5_10SelectHandNtNtCs1p5UDGgVI4d_4core7default7Default7default
FN:480,_RNvXs1_NtCsfztrlbScSWy_10balatro_rs4handNtB5_10SelectHandNtNtCs1p5UDGgVI4d_4core3fmt7Display3fmt
FN:41,_RINvXNvXNvNtCsfztrlbScSWy_10balatro_rs4hands3_1__NtB8_10SelectHandNtNtCsWuCv7H75Ac_5serde2de11Deserialize11deserializeNtB3_9___VisitorNtB14_7Visitor20visit_newtype_structpEBa_
FN:41,_RINvXNvXNvNtCsfztrlbScSWy_10balatro_rs4hands3_1__NtB8_10SelectHandNtNtCsWuCv7H75Ac_5serde2de11Deserialize11deserializeNtB3_9___VisitorNtB14_7Visitor9visit_seqpEBa_
FN:20,_RINvXNvXNvNtCsfztrlbScSWy_10balatro_rs4hands_1__NtB8_4HandNtNtCsWuCv7H75Ac_5serde2de11Deserialize11deserializeNtB3_9___VisitorNtBW_7Visitor20visit_newtype_structpEBa_
FN:20,_RINvXNvXNvNtCsfztrlbScSWy_10balatro_rs4hands_1__NtB8_4HandNtNtCsWuCv7H75Ac_5serde2de11Deserialize11deserializeNtB3_9___VisitorNtBW_7Visitor9visit_seqpEBa_
FN:32,_RINvXs0_NvXNvNtCsfztrlbScSWy_10balatro_rs4hands1_1__NtBb_8MadeHandNtNtCsWuCv7H75Ac_5serde2de11Deserialize11deserializeNtB6_9___VisitorNtB14_7Visitor9visit_mappEBd_
FN:32,_RINvXs0_NvXNvNtCsfztrlbScSWy_10balatro_rs4hands1_1__NtBb_8MadeHandNtNtCsWuCv7H75Ac_5serde2de11Deserialize11deserializeNtB6_9___VisitorNtB14_7Visitor9visit_seqpEBd_
FN:83,_RNvMs_NtCsfztrlbScSWy_10balatro_rs4handNtB4_10SelectHand5suits
FN:103,_RNCNvMs_NtCsfztrlbScSWy_10balatro_rs4handNtB6_10SelectHand10suits_freq0B8_
FN:259,_RNCNvMs_NtCsfztrlbScSWy_10balatro_rs4handNtB6_10SelectHand11is_highcard0B8_
FN:336,_RNCNvMs_NtCsfztrlbScSWy_10balatro_rs4handNtB6_10SelectHand11is_straight0B8_
FN:349,_RNCNvMs_NtCsfztrlbScSWy_10balatro_rs4handNtB6_10SelectHand11is_straights_0B8_
FN:291,_RNCNvMs_NtCsfztrlbScSWy_10balatro_rs4handNtB6_10SelectHand11is_two_pair0B8_
FN:305,_RNCNvMs_NtCsfztrlbScSWy_10balatro_rs4handNtB6_10SelectHand11is_two_pairs_0B8_
FN:77,_RNCNvMs_NtCsfztrlbScSWy_10balatro_rs4handNtB6_10SelectHand11values_freq0B8_
FN:381,_RNCNvMs_NtCsfztrlbScSWy_10balatro_rs4handNtB6_10SelectHand12is_fullhouse0B8_
FN:395,_RNCNvMs_NtCsfztrlbScSWy_10balatro_rs4handNtB6_10SelectHand12is_fullhouses_0B8_
FN:449,_RNCNvMs_NtCsfztrlbScSWy_10balatro_rs4handNtB6_10SelectHand15is_five_of_kind0B8_
FN:412,_RNCNvMs_NtCsfztrlbScSWy_10balatro_rs4handNtB6_10SelectHand15is_four_of_kind0B8_
FN:322,_RNCNvMs_NtCsfztrlbScSWy_10balatro_rs4handNtB6_10SelectHand16is_three_of_kind0B8_
FN:274,_RNCNvMs_NtCsfztrlbScSWy_10balatro_rs4handNtB6_10SelectHand7is_pair0B8_
FN:364,_RNCNvMs_NtCsfztrlbScSWy_10balatro_rs4handNtB6_10SelectHand8is_flush0B8_
FNDA:0,_RINvXNvXNvNtCs6ewEfsi5izM_10balatro_rs4hands3_1__NtB8_10SelectHandNtNtCsWuCv7H75Ac_5serde2de11Deserialize11deserializeNtB3_9___VisitorNtB14_7Visitor20visit_newtype_structpEBa_
FNDA:0,_RINvXNvXNvNtCs6ewEfsi5izM_10balatro_rs4hands3_1__NtB8_10SelectHandNtNtCsWuCv7H75Ac_5serde2de11Deserialize11deserializeNtB3_9___VisitorNtB14_7Visitor9visit_seqpEBa_
FNDA:0,_RINvXNvXNvNtCs6ewEfsi5izM_10balatro_rs4hands_1__NtB8_4HandNtNtCsWuCv7H75Ac_5serde2de11Deserialize11deserializeNtB3_9___VisitorNtBW_7Visitor20visit_newtype_structpEBa_
FNDA:0,_RINvXNvXNvNtCs6ewEfsi5izM_10balatro_rs4hands_1__NtB8_4HandNtNtCsWuCv7H75Ac_5serde2de11Deserialize11deserializeNtB3_9___VisitorNtBW_7Visitor9visit_seqpEBa_
FNDA:0,_RINvXs0_NvXNvNtCs6ewEfsi5izM_10balatro_rs4hands1_1__NtBb_8MadeHandNtNtCsWuCv7H75Ac_5serde2de11Deserialize11deserializeNtB6_9___VisitorNtB14_7Visitor9visit_mappEBd_
FNDA:0,_RINvXs0_NvXNvNtCs6ewEfsi5izM_10balatro_rs4hands1_1__NtBb_8MadeHandNtNtCsWuCv7H75Ac_5serde2de11Deserialize11deserializeNtB6_9___VisitorNtB14_7Visitor9visit_seqpEBd_
FNDA:0,_RNvMs_NtCs6ewEfsi5izM_10balatro_rs4handNtB4_10SelectHand5suits
FNDA:0,_RNvXs0_NtCs6ewEfsi5izM_10balatro_rs4handNtB5_10SelectHandNtNtCs1p5UDGgVI4d_4core7default7Default7default
FNDA:0,_RNvXs1_NtCs6ewEfsi5izM_10balatro_rs4handNtB5_10SelectHandNtNtCs1p5UDGgVI4d_4core3fmt7Display3fmt
FNDA:24,_RNvMNtCs6ewEfsi5izM_10balatro_rs4handNtB2_4Hand3new
FNDA:155,_RNvMs_NtCs6ewEfsi5izM_10balatro_rs4handNtB4_10SelectHand10suits_freq
FNDA:32,_RNvMs_NtCs6ewEfsi5izM_10balatro_rs4handNtB4_10SelectHand11is_highcard
FNDA:107,_RNvMs_NtCs6ewEfsi5izM_10balatro_rs4handNtB4_10SelectHand11is_straight
FNDA:78,_RNvMs_NtCs6ewEfsi5izM_10balatro_rs4handNtB4_10SelectHand11is_two_pair
FNDA:306,_RNvMs_NtCs6ewEfsi5izM_10balatro_rs4handNtB4_10SelectHand11values_freq
FNDA:97,_RNvMs_NtCs6ewEfsi5izM_10balatro_rs4handNtB4_10SelectHand12is_fullhouse
FNDA:105,_RNvMs_NtCs6ewEfsi5izM_10balatro_rs4handNtB4_10SelectHand13is_flush_five
FNDA:103,_RNvMs_NtCs6ewEfsi5izM_10balatro_rs4handNtB4_10SelectHand14is_flush_house
FNDA:103,_RNvMs_NtCs6ewEfsi5izM_10balatro_rs4handNtB4_10SelectHand14is_royal_flush
FNDA:115,_RNvMs_NtCs6ewEfsi5izM_10balatro_rs4handNtB4_10SelectHand15is_five_of_kind
FNDA:103,_RNvMs_NtCs6ewEfsi5izM_10balatro_rs4handNtB4_10SelectHand15is_four_of_kind
FNDA:81,_RNvMs_NtCs6ewEfsi5izM_10balatro_rs4handNtB4_10SelectHand16is_three_of_kind
FNDA:208,_RNvMs_NtCs6ewEfsi5izM_10balatro_rs4handNtB4_10SelectHand17is_straight_flush
FNDA:1380,_RNvMs_NtCs6ewEfsi5izM_10balatro_rs4handNtB4_10SelectHand3len
FNDA:368,_RNvMs_NtCs6ewEfsi5izM_10balatro_rs4handNtB4_10SelectHand3new
FNDA:235,_RNvMs_NtCs6ewEfsi5izM_10balatro_rs4handNtB4_10SelectHand5cards
FNDA:55,_RNvMs_NtCs6ewEfsi5izM_10balatro_rs4handNtB4_10SelectHand6values
FNDA:78,_RNvMs_NtCs6ewEfsi5izM_10balatro_rs4handNtB4_10SelectHand7is_pair
FNDA:503,_RNvMs_NtCs6ewEfsi5izM_10balatro_rs4handNtB4_10SelectHand8is_flush
FNDA:67,_RNvMs_NtCs6ewEfsi5izM_10balatro_rs4handNtB4_10SelectHand9best_hand
FNDA:1,_RNvNtNtCs6ewEfsi5izM_10balatro_rs4hand5testss_10test_flush
FNDA:1,_RNvNtNtCs6ewEfsi5izM_10balatro_rs4hand5testss_11test_values
FNDA:1,_RNvNtNtCs6ewEfsi5izM_10balatro_rs4hand5testss_13test_highcard
FNDA:1,_RNvNtNtCs6ewEfsi5izM_10balatro_rs4hand5testss_13test_straight
FNDA:1,_RNvNtNtCs6ewEfsi5izM_10balatro_rs4hand5testss_13test_two_pair
FNDA:1,_RNvNtNtCs6ewEfsi5izM_10balatro_rs4hand5testss_14test_best_hand
FNDA:1,_RNvNtNtCs6ewEfsi5izM_10balatro_rs4hand5testss_14test_fullhouse
FNDA:1,_RNvNtNtCs6ewEfsi5izM_10balatro_rs4hand5testss_15test_flush_five
FNDA:1,_RNvNtNtCs6ewEfsi5izM_10balatro_rs4hand5testss_15test_suits_freq
FNDA:1,_RNvNtNtCs6ewEfsi5izM_10balatro_rs4hand5testss_16test_flush_house
FNDA:1,_RNvNtNtCs6ewEfsi5izM_10balatro_rs4hand5testss_16test_royal_flush
FNDA:1,_RNvNtNtCs6ewEfsi5izM_10balatro_rs4hand5testss_16test_values_freq
FNDA:1,_RNvNtNtCs6ewEfsi5izM_10balatro_rs4hand5testss_17test_five_of_kind
FNDA:1,_RNvNtNtCs6ewEfsi5izM_10balatro_rs4hand5testss_17test_four_of_kind
FNDA:1,_RNvNtNtCs6ewEfsi5izM_10balatro_rs4hand5testss_18test_three_of_kind
FNDA:1,_RNvNtNtCs6ewEfsi5izM_10balatro_rs4hand5testss_19test_straight_flush
FNDA:1,_RNvNtNtCs6ewEfsi5izM_10balatro_rs4hand5testss_9test_pair
FNDA:137,_RNCNvMs_NtCs6ewEfsi5izM_10balatro_rs4handNtB6_10SelectHand10suits_freq0B8_
FNDA:31,_RNCNvMs_NtCs6ewEfsi5izM_10balatro_rs4handNtB6_10SelectHand11is_highcard0B8_
FNDA:150,_RNCNvMs_NtCs6ewEfsi5izM_10balatro_rs4handNtB6_10SelectHand11is_straight0B8_
FNDA:12,_RNCNvMs_NtCs6ewEfsi5izM_10balatro_rs4handNtB6_10SelectHand11is_straights_0B8_
FNDA:79,_RNCNvMs_NtCs6ewEfsi5izM_10balatro_rs4handNtB6_10SelectHand11is_two_pair0B8_
FNDA:52,_RNCNvMs_NtCs6ewEfsi5izM_10balatro_rs4handNtB6_10SelectHand11is_two_pairs_0B8_
FNDA:1249,_RNCNvMs_NtCs6ewEfsi5izM_10balatro_rs4handNtB6_10SelectHand11values_freq0B8_
FNDA:157,_RNCNvMs_NtCs6ewEfsi5izM_10balatro_rs4handNtB6_10SelectHand12is_fullhouse0B8_
FNDA:19,_RNCNvMs_NtCs6ewEfsi5izM_10balatro_rs4handNtB6_10SelectHand12is_fullhouses_0B8_
FNDA:160,_RNCNvMs_NtCs6ewEfsi5izM_10balatro_rs4handNtB6_10SelectHand15is_five_of_kind0B8_
FNDA:157,_RNCNvMs_NtCs6ewEfsi5izM_10balatro_rs4handNtB6_10SelectHand15is_four_of_kind0B8_
FNDA:113,_RNCNvMs_NtCs6ewEfsi5izM_10balatro_rs4handNtB6_10SelectHand16is_three_of_kind0B8_
FNDA:115,_RNCNvMs_NtCs6ewEfsi5izM_10balatro_rs4handNtB6_10SelectHand7is_pair0B8_
FNDA:283,_RNCNvMs_NtCs6ewEfsi5izM_10balatro_rs4handNtB6_10SelectHand8is_flush0B8_
FNDA:15,_RNvMNtCsfztrlbScSWy_10balatro_rs4handNtB2_4Hand3new
FNDA:48,_RNvMs_NtCsfztrlbScSWy_10balatro_rs4handNtB4_10SelectHand10suits_freq
FNDA:14,_RNvMs_NtCsfztrlbScSWy_10balatro_rs4handNtB4_10SelectHand11is_highcard
FNDA:33,_RNvMs_NtCsfztrlbScSWy_10balatro_rs4handNtB4_10SelectHand11is_straight
FNDA:30,_RNvMs_NtCsfztrlbScSWy_10balatro_rs4handNtB4_10SelectHand11is_two_pair
FNDA:82,_RNvMs_NtCsfztrlbScSWy_10balatro_rs4handNtB4_10SelectHand11values_freq
FNDA:33,_RNvMs_NtCsfztrlbScSWy_10balatro_rs4handNtB4_10SelectHand12is_fullhouse
FNDA:33,_RNvMs_NtCsfztrlbScSWy_10balatro_rs4handNtB4_10SelectHand13is_flush_five
FNDA:33,_RNvMs_NtCsfztrlbScSWy_10balatro_rs4handNtB4_10SelectHand14is_flush_house
FNDA:33,_RNvMs_NtCsfztrlbScSWy_10balatro_rs4handNtB4_10SelectHand14is_royal_flush
FNDA:34,_RNvMs_NtCsfztrlbScSWy_10balatro_rs4handNtB4_10SelectHand15is_five_of_kind
FNDA:32,_RNvMs_NtCsfztrlbScSWy_10balatro_rs4handNtB4_10SelectHand15is_four_of_kind
FNDA:30,_RNvMs_NtCsfztrlbScSWy_10balatro_rs4handNtB4_10SelectHand16is_three_of_kind
FNDA:65,_RNvMs_NtCsfztrlbScSWy_10balatro_rs4handNtB4_10SelectHand17is_straight_flush
FNDA:437,_RNvMs_NtCsfztrlbScSWy_10balatro_rs4handNtB4_10SelectHand3len
FNDA:63,_RNvMs_NtCsfztrlbScSWy_10balatro_rs4handNtB4_10SelectHand3new
FNDA:79,_RNvMs_NtCsfztrlbScSWy_10balatro_rs4handNtB4_10SelectHand5cards
FNDA:11,_RNvMs_NtCsfztrlbScSWy_10balatro_rs4handNtB4_10SelectHand6values
FNDA:30,_RNvMs_NtCsfztrlbScSWy_10balatro_rs4handNtB4_10SelectHand7is_pair
FNDA:163,_RNvMs_NtCsfztrlbScSWy_10balatro_rs4handNtB4_10SelectHand8is_flush
FNDA:19,_RNvMs_NtCsfztrlbScSWy_10balatro_rs4handNtB4_10SelectHand9best_hand
FNDA:0,_RNvXs0_NtCsfztrlbScSWy_10balatro_rs4handNtB5_10SelectHandNtNtCs1p5UDGgVI4d_4core7default7Default7default
FNDA:0,_RNvXs1_NtCsfztrlbScSWy_10balatro_rs4handNtB5_10SelectHandNtNtCs1p5UDGgVI4d_4core3fmt7Display3fmt
FNDA:0,_RINvXNvXNvNtCsfztrlbScSWy_10balatro_rs4hands3_1__NtB8_10SelectHandNtNtCsWuCv7H75Ac_5serde2de11Deserialize11deserializeNtB3_9___VisitorNtB14_7Visitor20visit_newtype_structpEBa_
FNDA:0,_RINvXNvXNvNtCsfztrlbScSWy_10balatro_rs4hands3_1__NtB8_10SelectHandNtNtCsWuCv7H75Ac_5serde2de11Deserialize11deserializeNtB3_9___VisitorNtB14_7Visitor9visit_seqpEBa_
FNDA:0,_RINvXNvXNvNtCsfztrlbScSWy_10balatro_rs4hands_1__NtB8_4HandNtNtCsWuCv7H75Ac_5serde2de11Deserialize11deserializeNtB3_9___VisitorNtBW_7Visitor20visit_newtype_structpEBa_
FNDA:0,_RINvXNvXNvNtCsfztrlbScSWy_10balatro_rs4hands_1__NtB8_4HandNtNtCsWuCv7H75Ac_5serde2de11Deserialize11deserializeNtB3_9___VisitorNtBW_7Visitor9visit_seqpEBa_
FNDA:0,_RINvXs0_NvXNvNtCsfztrlbScSWy_10balatro_rs4hands1_1__NtBb_8MadeHandNtNtCsWuCv7H75Ac_5serde2de11Deserialize11deserializeNtB6_9___VisitorNtB14_7Visitor9visit_mappEBd_
FNDA:0,_RINvXs0_NvXNvNtCsfztrlbScSWy_10balatro_rs4hands1_1__NtBb_8MadeHandNtNtCsWuCv7H75Ac_5serde2de11Deserialize11deserializeNtB6_9___VisitorNtB14_7Visitor9visit_seqpEBd_
FNDA:0,_RNvMs_NtCsfztrlbScSWy_10balatro_rs4handNtB4_10SelectHand5suits
FNDA:180,_RNCNvMs_NtCsfztrlbScSWy_10balatro_rs4handNtB6_10SelectHand10suits_freq0B8_
FNDA:14,_RNCNvMs_NtCsfztrlbScSWy_10balatro_rs4handNtB6_10SelectHand11is_highcard0B8_
FNDA:19,_RNCNvMs_NtCsfztrlbScSWy_10balatro_rs4handNtB6_10SelectHand11is_straight0B8_
FNDA:2,_RNCNvMs_NtCsfztrlbScSWy_10balatro_rs4handNtB6_10SelectHand11is_straights_0B8_
FNDA:32,_RNCNvMs_NtCsfztrlbScSWy_10balatro_rs4handNtB6_10SelectHand11is_two_pair0B8_
FNDA:4,_RNCNvMs_NtCsfztrlbScSWy_10balatro_rs4handNtB6_10SelectHand11is_two_pairs_0B8_
FNDA:288,_RNCNvMs_NtCsfztrlbScSWy_10balatro_rs4handNtB6_10SelectHand11values_freq0B8_
FNDA:49,_RNCNvMs_NtCsfztrlbScSWy_10balatro_rs4handNtB6_10SelectHand12is_fullhouse0B8_
FNDA:0,_RNCNvMs_NtCsfztrlbScSWy_10balatro_rs4handNtB6_10SelectHand12is_fullhouses_0B8_
FNDA:54,_RNCNvMs_NtCsfztrlbScSWy_10balatro_rs4handNtB6_10SelectHand15is_five_of_kind0B8_
FNDA:44,_RNCNvMs_NtCsfztrlbScSWy_10balatro_rs4handNtB6_10SelectHand15is_four_of_kind0B8_
FNDA:36,_RNCNvMs_NtCsfztrlbScSWy_10balatro_rs4handNtB6_10SelectHand16is_three_of_kind0B8_
FNDA:62,_RNCNvMs_NtCsfztrlbScSWy_10balatro_rs4handNtB6_10SelectHand7is_pair0B8_
FNDA:173,_RNCNvMs_NtCsfztrlbScSWy_10balatro_rs4handNtB6_10SelectHand8is_flush0B8_
FNF:58
FNH:52
DA:20,0
DA:26,39
DA:27,39
DA:28,39
DA:32,0
DA:41,0
DA:47,431
DA:48,431
DA:49,431
DA:50,1817
DA:51,1817
DA:52,1817
DA:54,66
DA:55,66
DA:56,66
DA:57,314
DA:58,314
DA:59,314
DA:63,388
DA:64,388
DA:65,1651
DA:66,1651
DA:67,343
DA:68,343
DA:69,343
DA:70,1308
DA:71,1308
DA:72,1308
DA:75,388
DA:76,388
DA:77,1537
DA:78,388
DA:79,388
DA:83,0
DA:84,0
DA:85,0
DA:89,203
DA:90,203
DA:91,1017
DA:92,1017
DA:93,558
DA:94,558
DA:95,558
DA:96,558
DA:97,459
DA:98,459
DA:101,203
DA:102,203
DA:103,317
DA:104,203
DA:105,203
DA:127,86
DA:128,86
DA:129,0
DA:130,86
DA:131,86
DA:132,0
DA:133,86
DA:137,86
DA:138,2
DA:139,2
DA:140,2
DA:141,2
DA:142,2
DA:143,84
DA:144,84
DA:145,0
DA:146,0
DA:147,0
DA:148,0
DA:149,0
DA:150,84
DA:151,84
DA:152,0
DA:153,0
DA:154,0
DA:155,0
DA:156,0
DA:157,84
DA:158,84
DA:159,1
DA:160,1
DA:161,1
DA:162,1
DA:163,1
DA:164,83
DA:165,83
DA:166,0
DA:167,0
DA:168,0
DA:169,0
DA:170,0
DA:171,83
DA:172,83
DA:173,18
DA:174,18
DA:175,18
DA:176,18
DA:177,18
DA:178,65
DA:179,65
DA:180,0
DA:181,0
DA:182,0
DA:183,0
DA:184,0
DA:185,65
DA:186,65
DA:187,6
DA:188,6
DA:189,6
DA:190,6
DA:191,6
DA:192,59
DA:193,59
DA:194,6
DA:195,6
DA:196,6
DA:197,6
DA:198,6
DA:199,53
DA:200,53
DA:201,1
DA:202,1
DA:203,1
DA:204,1
DA:205,1
DA:206,52
DA:207,52
DA:208,5
DA:209,5
DA:210,5
DA:211,5
DA:212,5
DA:213,47
DA:214,47
DA:215,10
DA:216,10
DA:217,10
DA:218,10
DA:219,10
DA:220,37
DA:221,37
DA:222,37
DA:223,37
DA:224,37
DA:225,37
DA:226,37
DA:227,0
DA:229,0
DA:230,86
DA:232,46
DA:233,46
DA:234,0
DA:235,46
DA:239,46
DA:240,45
DA:241,45
DA:242,45
DA:243,45
DA:244,45
DA:245,45
DA:246,45
DA:247,45
DA:248,45
DA:249,45
DA:250,45
DA:252,1
DA:253,45
DA:256,45
DA:257,45
DA:258,45
DA:259,45
DA:261,45
DA:263,0
DA:265,46
DA:267,108
DA:268,108
DA:269,44
DA:270,64
DA:271,64
DA:272,64
DA:273,64
DA:274,177
DA:276,20
DA:278,44
DA:280,108
DA:282,108
DA:283,108
DA:284,71
DA:285,37
DA:288,37
DA:289,37
DA:290,37
DA:291,111
DA:292,37
DA:293,20
DA:294,20
DA:295,20
DA:296,20
DA:297,20
DA:298,20
DA:299,20
DA:302,20
DA:303,20
DA:304,20
DA:305,56
DA:306,20
DA:309,11
DA:310,11
DA:311,11
DA:312,11
DA:313,108
DA:315,111
DA:316,111
DA:317,65
DA:318,46
DA:319,46
DA:320,46
DA:321,46
DA:322,149
DA:324,9
DA:326,37
DA:328,111
DA:330,140
DA:331,140
DA:332,80
DA:333,60
DA:335,60
DA:336,169
DA:337,19
DA:338,41
DA:345,41
DA:346,8
DA:347,8
DA:348,8
DA:349,14
DA:351,2
DA:352,6
DA:353,33
DA:354,39
DA:355,140
DA:357,666
DA:358,666
DA:359,464
DA:360,202
DA:361,202
DA:362,202
DA:363,202
DA:364,456
DA:366,64
DA:368,138
DA:370,666
DA:372,130
DA:373,130
DA:374,80
DA:375,50
DA:378,50
DA:379,50
DA:380,50
DA:381,206
DA:382,50
DA:383,9
DA:384,9
DA:385,9
DA:386,9
DA:387,9
DA:388,9
DA:389,9
DA:392,9
DA:393,9
DA:394,9
DA:395,19
DA:396,9
DA:399,5
DA:400,5
DA:401,5
DA:402,5
DA:403,130
DA:405,135
DA:406,135
DA:407,72
DA:408,63
DA:409,63
DA:410,63
DA:411,63
DA:412,201
DA:414,22
DA:416,41
DA:418,135
DA:420,273
DA:421,273
DA:422,9
DA:423,264
DA:424,264
DA:425,273
DA:427,136
DA:428,136
DA:429,5
DA:430,5
DA:431,5
DA:432,5
DA:433,5
DA:434,5
DA:437,4
DA:438,132
DA:439,132
DA:440,136
DA:442,149
DA:443,149
DA:444,96
DA:445,53
DA:446,53
DA:447,53
DA:448,53
DA:449,214
DA:451,7
DA:453,46
DA:455,149
DA:457,136
DA:458,136
DA:459,2
DA:460,134
DA:461,134
DA:462,136
DA:464,138
DA:465,138
DA:466,4
DA:467,134
DA:468,134
DA:469,138
DA:473,0
DA:474,0
DA:475,0
DA:476,0
DA:480,0
DA:481,0
DA:482,0
DA:483,0
DA:485,0
DA:486,0
DA:487,0
DA:495,1
DA:496,1
DA:497,1
DA:498,1
DA:499,1
DA:500,1
DA:502,1
DA:503,1
DA:506,1
DA:509,1
DA:510,1
DA:511,1
DA:512,1
DA:513,1
DA:514,1
DA:517,1
DA:518,1
DA:519,1
DA:520,1
DA:521,1
DA:522,1
DA:524,1
DA:525,1
DA:528,1
DA:531,1
DA:532,1
DA:533,1
DA:534,1
DA:537,1
DA:538,1
DA:541,1
DA:542,1
DA:543,1
DA:544,1
DA:545,1
DA:548,1
DA:549,1
DA:552,1
DA:553,1
DA:554,1
DA:555,1
DA:556,1
DA:557,1
DA:559,1
DA:560,1
DA:563,1
DA:566,1
DA:567,1
DA:568,1
DA:571,1
DA:574,1
DA:575,1
DA:576,1
DA:577,1
DA:578,1
DA:579,1
DA:582,1
DA:583,1
DA:584,1
DA:585,1
DA:588,1
DA:589,1
DA:590,1
DA:591,1
DA:594,1
DA:595,1
DA:596,1
DA:597,1
DA:600,1
DA:601,1
DA:602,1
DA:603,1
DA:606,1
DA:607,1
DA:608,1
DA:609,1
DA:610,1
DA:613,1
DA:614,1
DA:615,1
DA:616,1
DA:617,1
DA:618,1
DA:619,1
DA:622,1
DA:623,1
DA:624,1
DA:625,1
DA:628,1
DA:629,1
DA:630,1
DA:631,1
DA:634,1
DA:635,1
DA:636,1
DA:637,1
DA:640,1
DA:641,1
DA:642,1
DA:643,1
DA:646,1
DA:647,1
DA:648,1
DA:649,1
DA:652,1
DA:653,1
DA:654,1
DA:655,1
DA:658,1
DA:659,1
DA:660,1
DA:661,1
DA:662,1
DA:665,1
DA:666,1
DA:667,1
DA:668,1
DA:669,1
DA:670,1
DA:671,1
DA:674,1
DA:675,1
DA:676,1
DA:679,1
DA:680,1
DA:681,1
DA:684,1
DA:685,1
DA:686,1
DA:689,1
DA:690,1
DA:691,1
DA:694,1
DA:695,1
DA:696,1
DA:699,1
DA:700,1
DA:701,1
DA:704,1
DA:705,1
DA:706,1
DA:709,1
DA:710,1
DA:711,1
DA:714,1
DA:715,1
DA:716,1
DA:717,1
DA:720,1
DA:721,1
DA:722,1
DA:723,1
DA:724,1
DA:725,1
DA:726,1
DA:729,1
DA:730,1
DA:731,1
DA:734,1
DA:735,1
DA:736,1
DA:739,1
DA:740,1
DA:741,1
DA:744,1
DA:745,1
DA:746,1
DA:749,1
DA:750,1
DA:751,1
DA:754,1
DA:755,1
DA:756,1
DA:757,1
DA:760,1
DA:761,1
DA:762,1
DA:763,1
DA:764,1
DA:765,1
DA:768,1
DA:769,1
DA:770,1
DA:773,1
DA:774,1
DA:775,1
DA:778,1
DA:779,1
DA:780,1
DA:783,1
DA:784,1
DA:785,1
DA:788,1
DA:789,1
DA:790,1
DA:793,1
DA:794,1
DA:795,1
DA:798,1
DA:799,1
DA:800,1
DA:801,1
DA:804,1
DA:805,1
DA:806,1
DA:807,1
DA:808,1
DA:809,1
DA:810,1
DA:811,1
DA:814,1
DA:815,1
DA:816,1
DA:819,1
DA:820,1
DA:821,1
DA:824,1
DA:825,1
DA:826,1
DA:829,1
DA:830,1
DA:831,1
DA:834,1
DA:835,1
DA:836,1
DA:837,1
DA:840,1
DA:841,1
DA:842,1
DA:843,1
DA:844,1
DA:845,1
DA:846,1
DA:849,1
DA:850,1
DA:851,1
DA:854,1
DA:855,1
DA:856,1
DA:859,1
DA:860,1
DA:861,1
DA:864,1
DA:865,1
DA:866,1
DA:867,1
DA:870,1
DA:871,1
DA:872,1
DA:873,1
DA:874,1
DA:875,1
DA:876,1
DA:877,1
DA:880,1
DA:881,1
DA:882,1
DA:885,1
DA:886,1
DA:887,1
DA:890,1
DA:891,1
DA:892,1
DA:895,1
DA:896,1
DA:897,1
DA:900,1
DA:901,1
DA:902,1
DA:903,1
DA:906,1
DA:907,1
DA:908,1
DA:909,1
DA:910,1
DA:911,1
DA:914,1
DA:915,1
DA:916,1
DA:919,1
DA:920,1
DA:921,1
DA:924,1
DA:925,1
DA:926,1
DA:929,1
DA:930,1
DA:931,1
DA:932,1
DA:935,1
DA:936,1
DA:937,1
DA:938,1
DA:939,1
DA:940,1
DA:941,1
DA:942,1
DA:943,1
DA:946,1
DA:947,1
DA:948,1
DA:951,1
DA:952,1
DA:953,1
DA:956,1
DA:957,1
DA:958,1
DA:961,1
DA:962,1
DA:963,1
DA:966,1
DA:967,1
DA:968,1
DA:969,1
DA:972,1
DA:973,1
DA:974,1
DA:975,1
DA:976,1
DA:977,1
DA:978,1
DA:979,1
DA:982,1
DA:983,1
DA:984,1
DA:987,1
DA:988,1
DA:989,1
DA:992,1
DA:993,1
DA:994,1
DA:997,1
DA:998,1
DA:999,1
DA:1002,1
DA:1003,1
DA:1004,1
DA:1005,1
DA:1008,1
DA:1009,1
DA:1010,1
DA:1011,1
DA:1012,1
DA:1013,1
DA:1014,1
DA:1017,1
DA:1018,1
DA:1019,1
DA:1022,1
DA:1023,1
DA:1024,1
DA:1027,1
DA:1028,1
DA:1029,1
DA:1032,1
DA:1033,1
DA:1034,1
DA:1035,1
DA:1038,1
DA:1039,1
DA:1040,1
DA:1041,1
DA:1042,1
DA:1043,1
DA:1044,1
DA:1045,1
DA:1048,1
DA:1049,1
DA:1050,1
DA:1053,1
DA:1054,1
DA:1055,1
DA:1058,1
DA:1059,1
DA:1060,1
DA:1063,1
DA:1064,1
DA:1065,1
DA:1066,1
DA:1069,1
DA:1070,1
DA:1071,1
DA:1072,1
DA:1073,1
DA:1074,1
DA:1075,1
DA:1076,1
DA:1079,1
DA:1080,1
DA:1081,1
DA:1084,1
DA:1085,1
DA:1086,1
DA:1089,1
DA:1090,1
DA:1091,1
DA:1094,1
DA:1095,1
DA:1096,1
DA:1097,1
BRF:0
BRH:0
LF:756
LH:708
end_of_record
SF:/home/spduncan/balatro-rs-ws/fix-issue-184-cicd-pipeline/core/src/joker/compat.rs
FN:26,_RINvXs0_NvXNvNtNtCs6ewEfsi5izM_10balatro_rs5joker6compats2_1__NtBb_11GreedyJokerNtNtCsWuCv7H75Ac_5serde2de11Deserialize11deserializeNtB6_9___VisitorNtB1i_7Visitor9visit_mappEBf_
FN:26,_RINvXs0_NvXNvNtNtCs6ewEfsi5izM_10balatro_rs5joker6compats5_1__NtBb_10LustyJokerNtNtCsWuCv7H75Ac_5serde2de11Deserialize11deserializeNtB6_9___VisitorNtB1h_7Visitor9visit_mappEBf_
FN:26,_RINvXs0_NvXNvNtNtCs6ewEfsi5izM_10balatro_rs5joker6compats8_1__NtBb_13WrathfulJokerNtNtCsWuCv7H75Ac_5serde2de11Deserialize11deserializeNtB6_9___VisitorNtB1k_7Visitor9visit_mappEBf_
FN:26,_RINvXs0_NvXNvNtNtCs6ewEfsi5izM_10balatro_rs5joker6compatsC_1__NtBb_12DeviousJokerNtNtCsWuCv7H75Ac_5serde2de11Deserialize11deserializeNtB6_9___VisitorNtB1j_7Visitor9visit_mappEBf_
FN:26,_RINvXs0_NvXNvNtNtCs6ewEfsi5izM_10balatro_rs5joker6compatsF_1__NtBb_11CraftyJokerNtNtCsWuCv7H75Ac_5serde2de11Deserialize11deserializeNtB6_9___VisitorNtB1i_7Visitor9visit_mappEBf_
FN:225,_RINvXs0_NvXNvNtNtCs6ewEfsi5izM_10balatro_rs5joker6compatsI_1__NtBb_13IceCreamJokerNtNtCsWuCv7H75Ac_5serde2de11Deserialize11deserializeNtB6_9___VisitorNtB1k_7Visitor9visit_mappEBf_
FN:225,_RINvXs0_NvXNvNtNtCs6ewEfsi5izM_10balatro_rs5joker6compatsI_1__NtBb_13IceCreamJokerNtNtCsWuCv7H75Ac_5serde2de11Deserialize11deserializeNtB6_9___VisitorNtB1k_7Visitor9visit_seqpEBf_
FN:282,_RINvXs0_NvXNvNtNtCs6ewEfsi5izM_10balatro_rs5joker6compatsL_1__NtBb_6JokersNtNtCsWuCv7H75Ac_5serde2de11Deserialize11deserializeNtB6_9___VisitorNtB1c_7Visitor10visit_enumpEBf_
FN:26,_RINvXs0_NvXNvNtNtCs6ewEfsi5izM_10balatro_rs5joker6compats_1__NtBb_8TheJokerNtNtCsWuCv7H75Ac_5serde2de11Deserialize11deserializeNtB6_9___VisitorNtB1d_7Visitor9visit_mappEBf_
FN:26,_RINvXs0_NvXNvNtNtCs6ewEfsi5izM_10balatro_rs5joker6compatsb_1__NtBb_15GluttonousJokerNtNtCsWuCv7H75Ac_5serde2de11Deserialize11deserializeNtB6_9___VisitorNtB1m_7Visitor9visit_mappEBf_
FN:26,_RINvXs0_NvXNvNtNtCs6ewEfsi5izM_10balatro_rs5joker6compatse_1__NtBb_10JollyJokerNtNtCsWuCv7H75Ac_5serde2de11Deserialize11deserializeNtB6_9___VisitorNtB1h_7Visitor9visit_mappEBf_
FN:26,_RINvXs0_NvXNvNtNtCs6ewEfsi5izM_10balatro_rs5joker6compatsh_1__NtBb_9ZanyJokerNtNtCsWuCv7H75Ac_5serde2de11Deserialize11deserializeNtB6_9___VisitorNtB1f_7Visitor9visit_mappEBf_
FN:26,_RINvXs0_NvXNvNtNtCs6ewEfsi5izM_10balatro_rs5joker6compatsk_1__NtBb_8MadJokerNtNtCsWuCv7H75Ac_5serde2de11Deserialize11deserializeNtB6_9___VisitorNtB1e_7Visitor9visit_mappEBf_
FN:26,_RINvXs0_NvXNvNtNtCs6ewEfsi5izM_10balatro_rs5joker6compatsn_1__NtBb_10CrazyJokerNtNtCsWuCv7H75Ac_5serde2de11Deserialize11deserializeNtB6_9___VisitorNtB1h_7Visitor9visit_mappEBf_
FN:26,_RINvXs0_NvXNvNtNtCs6ewEfsi5izM_10balatro_rs5joker6compatsq_1__NtBb_10DrollJokerNtNtCsWuCv7H75Ac_5serde2de11Deserialize11deserializeNtB6_9___VisitorNtB1h_7Visitor9visit_mappEBf_
FN:26,_RINvXs0_NvXNvNtNtCs6ewEfsi5izM_10balatro_rs5joker6compatst_1__NtBb_8SlyJokerNtNtCsWuCv7H75Ac_5serde2de11Deserialize11deserializeNtB6_9___VisitorNtB1e_7Visitor9visit_mappEBf_
FN:26,_RINvXs0_NvXNvNtNtCs6ewEfsi5izM_10balatro_rs5joker6compatsw_1__NtBb_9WilyJokerNtNtCsWuCv7H75Ac_5serde2de11Deserialize11deserializeNtB6_9___VisitorNtB1f_7Visitor9visit_mappEBf_
FN:26,_RINvXs0_NvXNvNtNtCs6ewEfsi5izM_10balatro_rs5joker6compatsz_1__NtBb_11CleverJokerNtNtCsWuCv7H75Ac_5serde2de11Deserialize11deserializeNtB6_9___VisitorNtB1i_7Visitor9visit_mappEBf_
FN:47,_RNvXs1S_NtNtCs6ewEfsi5izM_10balatro_rs5joker6compatNtB6_9ZanyJokerNtB6_5Joker10categories
FN:35,_RNvXs1S_NtNtCs6ewEfsi5izM_10balatro_rs5joker6compatNtB6_9ZanyJokerNtB6_5Joker4desc
FN:31,_RNvXs1S_NtNtCs6ewEfsi5izM_10balatro_rs5joker6compatNtB6_9ZanyJokerNtB6_5Joker4name
FN:50,_RNvXs1S_NtNtCs6ewEfsi5izM_10balatro_rs5joker6compatNtB6_9ZanyJokerNtB6_5Joker7effects
FN:410,_RNvXs1_NtNtCs6ewEfsi5izM_10balatro_rs5joker6compatNtB5_6JokersNtNtCs1p5UDGgVI4d_4core3fmt7Display3fmt
FN:47,_RNvXs1g_NtNtCs6ewEfsi5izM_10balatro_rs5joker6compatNtB6_15GluttonousJokerNtB6_5Joker10categories
FN:35,_RNvXs1g_NtNtCs6ewEfsi5izM_10balatro_rs5joker6compatNtB6_15GluttonousJokerNtB6_5Joker4desc
FN:31,_RNvXs1g_NtNtCs6ewEfsi5izM_10balatro_rs5joker6compatNtB6_15GluttonousJokerNtB6_5Joker4name
FN:50,_RNvXs1g_NtNtCs6ewEfsi5izM_10balatro_rs5joker6compatNtB6_15GluttonousJokerNtB6_5Joker7effects
FN:47,_RNvXs1z_NtNtCs6ewEfsi5izM_10balatro_rs5joker6compatNtB6_10JollyJokerNtB6_5Joker10categories
FN:35,_RNvXs1z_NtNtCs6ewEfsi5izM_10balatro_rs5joker6compatNtB6_10JollyJokerNtB6_5Joker4desc
FN:31,_RNvXs1z_NtNtCs6ewEfsi5izM_10balatro_rs5joker6compatNtB6_10JollyJokerNtB6_5Joker4name
FN:50,_RNvXs1z_NtNtCs6ewEfsi5izM_10balatro_rs5joker6compatNtB6_10JollyJokerNtB6_5Joker7effects
FN:47,_RNvXs2N_NtNtCs6ewEfsi5izM_10balatro_rs5joker6compatNtB6_10DrollJokerNtB6_5Joker10categories
FN:35,_RNvXs2N_NtNtCs6ewEfsi5izM_10balatro_rs5joker6compatNtB6_10DrollJokerNtB6_5Joker4desc
FN:31,_RNvXs2N_NtNtCs6ewEfsi5izM_10balatro_rs5joker6compatNtB6_10DrollJokerNtB6_5Joker4name
FN:50,_RNvXs2N_NtNtCs6ewEfsi5izM_10balatro_rs5joker6compatNtB6_10DrollJokerNtB6_5Joker7effects
FN:47,_RNvXs2_NtNtCs6ewEfsi5izM_10balatro_rs5joker6compatNtB5_8TheJokerNtB5_5Joker10categories
FN:35,_RNvXs2_NtNtCs6ewEfsi5izM_10balatro_rs5joker6compatNtB5_8TheJokerNtB5_5Joker4desc
FN:31,_RNvXs2_NtNtCs6ewEfsi5izM_10balatro_rs5joker6compatNtB5_8TheJokerNtB5_5Joker4name
FN:50,_RNvXs2_NtNtCs6ewEfsi5izM_10balatro_rs5joker6compatNtB5_8TheJokerNtB5_5Joker7effects
FN:47,_RNvXs2b_NtNtCs6ewEfsi5izM_10balatro_rs5joker6compatNtB6_8MadJokerNtB6_5Joker10categories
FN:35,_RNvXs2b_NtNtCs6ewEfsi5izM_10balatro_rs5joker6compatNtB6_8MadJokerNtB6_5Joker4desc
FN:31,_RNvXs2b_NtNtCs6ewEfsi5izM_10balatro_rs5joker6compatNtB6_8MadJokerNtB6_5Joker4name
FN:50,_RNvXs2b_NtNtCs6ewEfsi5izM_10balatro_rs5joker6compatNtB6_8MadJokerNtB6_5Joker7effects
FN:47,_RNvXs2u_NtNtCs6ewEfsi5izM_10balatro_rs5joker6compatNtB6_10CrazyJokerNtB6_5Joker10categories
FN:35,_RNvXs2u_NtNtCs6ewEfsi5izM_10balatro_rs5joker6compatNtB6_10CrazyJokerNtB6_5Joker4desc
FN:31,_RNvXs2u_NtNtCs6ewEfsi5izM_10balatro_rs5joker6compatNtB6_10CrazyJokerNtB6_5Joker4name
FN:50,_RNvXs2u_NtNtCs6ewEfsi5izM_10balatro_rs5joker6compatNtB6_10CrazyJokerNtB6_5Joker7effects
FN:47,_RNvXs36_NtNtCs6ewEfsi5izM_10balatro_rs5joker6compatNtB6_8SlyJokerNtB6_5Joker10categories
FN:35,_RNvXs36_NtNtCs6ewEfsi5izM_10balatro_rs5joker6compatNtB6_8SlyJokerNtB6_5Joker4desc
FN:31,_RNvXs36_NtNtCs6ewEfsi5izM_10balatro_rs5joker6compatNtB6_8SlyJokerNtB6_5Joker4name
FN:50,_RNvXs36_NtNtCs6ewEfsi5izM_10balatro_rs5joker6compatNtB6_8SlyJokerNtB6_5Joker7effects
FN:47,_RNvXs3I_NtNtCs6ewEfsi5izM_10balatro_rs5joker6compatNtB6_11CleverJokerNtB6_5Joker10categories
FN:35,_RNvXs3I_NtNtCs6ewEfsi5izM_10balatro_rs5joker6compatNtB6_11CleverJokerNtB6_5Joker4desc
FN:31,_RNvXs3I_NtNtCs6ewEfsi5izM_10balatro_rs5joker6compatNtB6_11CleverJokerNtB6_5Joker4name
FN:50,_RNvXs3I_NtNtCs6ewEfsi5izM_10balatro_rs5joker6compatNtB6_11CleverJokerNtB6_5Joker7effects
FN:47,_RNvXs3p_NtNtCs6ewEfsi5izM_10balatro_rs5joker6compatNtB6_9WilyJokerNtB6_5Joker10categories
FN:35,_RNvXs3p_NtNtCs6ewEfsi5izM_10balatro_rs5joker6compatNtB6_9WilyJokerNtB6_5Joker4desc
FN:31,_RNvXs3p_NtNtCs6ewEfsi5izM_10balatro_rs5joker6compatNtB6_9WilyJokerNtB6_5Joker4name
FN:50,_RNvXs3p_NtNtCs6ewEfsi5izM_10balatro_rs5joker6compatNtB6_9WilyJokerNtB6_5Joker7effects
FN:47,_RNvXs41_NtNtCs6ewEfsi5izM_10balatro_rs5joker6compatNtB6_12DeviousJokerNtB6_5Joker10categories
FN:35,_RNvXs41_NtNtCs6ewEfsi5izM_10balatro_rs5joker6compatNtB6_12DeviousJokerNtB6_5Joker4desc
FN:31,_RNvXs41_NtNtCs6ewEfsi5izM_10balatro_rs5joker6compatNtB6_12DeviousJokerNtB6_5Joker4name
FN:50,_RNvXs41_NtNtCs6ewEfsi5izM_10balatro_rs5joker6compatNtB6_12DeviousJokerNtB6_5Joker7effects
FN:320,_RNvXs4V_NtNtCs6ewEfsi5izM_10balatro_rs5joker6compatNtB6_6JokersNtB6_5Joker10categories
FN:299,_RNvXs4V_NtNtCs6ewEfsi5izM_10balatro_rs5joker6compatNtB6_6JokersNtB6_5Joker4desc
FN:292,_RNvXs4V_NtNtCs6ewEfsi5izM_10balatro_rs5joker6compatNtB6_6JokersNtB6_5Joker4name
FN:327,_RNvXs4V_NtNtCs6ewEfsi5izM_10balatro_rs5joker6compatNtB6_6JokersNtB6_5Joker7effects
FN:47,_RNvXs4k_NtNtCs6ewEfsi5izM_10balatro_rs5joker6compatNtB6_11CraftyJokerNtB6_5Joker10categories
FN:35,_RNvXs4k_NtNtCs6ewEfsi5izM_10balatro_rs5joker6compatNtB6_11CraftyJokerNtB6_5Joker4desc
FN:31,_RNvXs4k_NtNtCs6ewEfsi5izM_10balatro_rs5joker6compatNtB6_11CraftyJokerNtB6_5Joker4name
FN:50,_RNvXs4k_NtNtCs6ewEfsi5izM_10balatro_rs5joker6compatNtB6_11CraftyJokerNtB6_5Joker7effects
FN:47,_RNvXsE_NtNtCs6ewEfsi5izM_10balatro_rs5joker6compatNtB5_10LustyJokerNtB5_5Joker10categories
FN:35,_RNvXsE_NtNtCs6ewEfsi5izM_10balatro_rs5joker6compatNtB5_10LustyJokerNtB5_5Joker4desc
FN:31,_RNvXsE_NtNtCs6ewEfsi5izM_10balatro_rs5joker6compatNtB5_10LustyJokerNtB5_5Joker4name
FN:50,_RNvXsE_NtNtCs6ewEfsi5izM_10balatro_rs5joker6compatNtB5_10LustyJokerNtB5_5Joker7effects
FN:47,_RNvXsX_NtNtCs6ewEfsi5izM_10balatro_rs5joker6compatNtB5_13WrathfulJokerNtB5_5Joker10categories
FN:35,_RNvXsX_NtNtCs6ewEfsi5izM_10balatro_rs5joker6compatNtB5_13WrathfulJokerNtB5_5Joker4desc
FN:31,_RNvXsX_NtNtCs6ewEfsi5izM_10balatro_rs5joker6compatNtB5_13WrathfulJokerNtB5_5Joker4name
FN:50,_RNvXsX_NtNtCs6ewEfsi5izM_10balatro_rs5joker6compatNtB5_13WrathfulJokerNtB5_5Joker7effects
FN:268,_RNvXs_NtNtCs6ewEfsi5izM_10balatro_rs5joker6compatNtB4_13IceCreamJokerNtB4_5Joker10categories
FN:272,_RNvXs_NtNtCs6ewEfsi5izM_10balatro_rs5joker6compatNtB4_13IceCreamJokerNtB4_5Joker7effects
FN:47,_RNvXsl_NtNtCs6ewEfsi5izM_10balatro_rs5joker6compatNtB5_11GreedyJokerNtB5_5Joker10categories
FN:35,_RNvXsl_NtNtCs6ewEfsi5izM_10balatro_rs5joker6compatNtB5_11GreedyJokerNtB5_5Joker4desc
FN:31,_RNvXsl_NtNtCs6ewEfsi5izM_10balatro_rs5joker6compatNtB5_11GreedyJokerNtB5_5Joker4name
FN:50,_RNvXsl_NtNtCs6ewEfsi5izM_10balatro_rs5joker6compatNtB5_11GreedyJokerNtB5_5Joker7effects
FN:16,_RNvYpNtNtNtCs6ewEfsi5izM_10balatro_rs5joker6compat5Joker7effectsB9_
FN:358,_RNCNvMs0_NtNtCs6ewEfsi5izM_10balatro_rs5joker6compatNtB7_6Jokers9by_rarity0Bb_
FN:243,_RNvMNtNtCs6ewEfsi5izM_10balatro_rs5joker6compatNtB2_13IceCreamJoker12is_destroyed
FN:233,_RNvMNtNtCs6ewEfsi5izM_10balatro_rs5joker6compatNtB2_13IceCreamJoker3new
FN:239,_RNvMNtNtCs6ewEfsi5izM_10balatro_rs5joker6compatNtB2_13IceCreamJoker5decay
FN:362,_RNvMs0_NtNtCs6ewEfsi5izM_10balatro_rs5joker6compatNtB5_6Jokers11to_joker_id
FN:385,_RNvMs0_NtNtCs6ewEfsi5izM_10balatro_rs5joker6compatNtB5_6Jokers16matches_joker_id
FN:357,_RNvMs0_NtNtCs6ewEfsi5izM_10balatro_rs5joker6compatNtB5_6Jokers9by_rarity
FN:283,_RNvMs5E_NtNtCs6ewEfsi5izM_10balatro_rs5joker6compatNtB6_20Jokers_WrathfulJoker19___pymethod_get__0__
FN:283,_RNvMs5J_NtNtCs6ewEfsi5izM_10balatro_rs5joker6compatNtB6_22Jokers_GluttonousJoker19___pymethod_get__0__
FN:283,_RNvMs5O_NtNtCs6ewEfsi5izM_10balatro_rs5joker6compatNtB6_17Jokers_JollyJoker19___pymethod_get__0__
FN:283,_RNvMs5T_NtNtCs6ewEfsi5izM_10balatro_rs5joker6compatNtB6_16Jokers_ZanyJoker19___pymethod_get__0__
FN:283,_RNvMs5Y_NtNtCs6ewEfsi5izM_10balatro_rs5joker6compatNtB6_15Jokers_MadJoker19___pymethod_get__0__
FN:283,_RNvMs5p_NtNtCs6ewEfsi5izM_10balatro_rs5joker6compatNtB6_15Jokers_TheJoker19___pymethod_get__0__
FN:283,_RNvMs5u_NtNtCs6ewEfsi5izM_10balatro_rs5joker6compatNtB6_18Jokers_GreedyJoker19___pymethod_get__0__
FN:283,_RNvMs5z_NtNtCs6ewEfsi5izM_10balatro_rs5joker6compatNtB6_17Jokers_LustyJoker19___pymethod_get__0__
FN:283,_RNvMs63_NtNtCs6ewEfsi5izM_10balatro_rs5joker6compatNtB6_17Jokers_CrazyJoker19___pymethod_get__0__
FN:283,_RNvMs68_NtNtCs6ewEfsi5izM_10balatro_rs5joker6compatNtB6_17Jokers_DrollJoker19___pymethod_get__0__
FN:283,_RNvMs6C_NtNtCs6ewEfsi5izM_10balatro_rs5joker6compatNtB6_20Jokers_IceCreamJoker19___pymethod_get__0__
FN:283,_RNvMs6d_NtNtCs6ewEfsi5izM_10balatro_rs5joker6compatNtB6_15Jokers_SlyJoker19___pymethod_get__0__
FN:283,_RNvMs6i_NtNtCs6ewEfsi5izM_10balatro_rs5joker6compatNtB6_16Jokers_WilyJoker19___pymethod_get__0__
FN:283,_RNvMs6n_NtNtCs6ewEfsi5izM_10balatro_rs5joker6compatNtB6_18Jokers_CleverJoker19___pymethod_get__0__
FN:283,_RNvMs6s_NtNtCs6ewEfsi5izM_10balatro_rs5joker6compatNtB6_19Jokers_DeviousJoker19___pymethod_get__0__
FN:283,_RNvMs6x_NtNtCs6ewEfsi5izM_10balatro_rs5joker6compatNtB6_18Jokers_CraftyJoker19___pymethod_get__0__
FN:39,_RNvXs1S_NtNtCs6ewEfsi5izM_10balatro_rs5joker6compatNtB6_9ZanyJokerNtB6_5Joker4cost
FN:43,_RNvXs1S_NtNtCs6ewEfsi5izM_10balatro_rs5joker6compatNtB6_9ZanyJokerNtB6_5Joker6rarity
FN:39,_RNvXs1g_NtNtCs6ewEfsi5izM_10balatro_rs5joker6compatNtB6_15GluttonousJokerNtB6_5Joker4cost
FN:43,_RNvXs1g_NtNtCs6ewEfsi5izM_10balatro_rs5joker6compatNtB6_15GluttonousJokerNtB6_5Joker6rarity
FN:39,_RNvXs1z_NtNtCs6ewEfsi5izM_10balatro_rs5joker6compatNtB6_10JollyJokerNtB6_5Joker4cost
FN:43,_RNvXs1z_NtNtCs6ewEfsi5izM_10balatro_rs5joker6compatNtB6_10JollyJokerNtB6_5Joker6rarity
FN:39,_RNvXs2N_NtNtCs6ewEfsi5izM_10balatro_rs5joker6compatNtB6_10DrollJokerNtB6_5Joker4cost
FN:43,_RNvXs2N_NtNtCs6ewEfsi5izM_10balatro_rs5joker6compatNtB6_10DrollJokerNtB6_5Joker6rarity
FN:39,_RNvXs2_NtNtCs6ewEfsi5izM_10balatro_rs5joker6compatNtB5_8TheJokerNtB5_5Joker4cost
FN:43,_RNvXs2_NtNtCs6ewEfsi5izM_10balatro_rs5joker6compatNtB5_8TheJokerNtB5_5Joker6rarity
FN:39,_RNvXs2b_NtNtCs6ewEfsi5izM_10balatro_rs5joker6compatNtB6_8MadJokerNtB6_5Joker4cost
FN:43,_RNvXs2b_NtNtCs6ewEfsi5izM_10balatro_rs5joker6compatNtB6_8MadJokerNtB6_5Joker6rarity
FN:39,_RNvXs2u_NtNtCs6ewEfsi5izM_10balatro_rs5joker6compatNtB6_10CrazyJokerNtB6_5Joker4cost
FN:43,_RNvXs2u_NtNtCs6ewEfsi5izM_10balatro_rs5joker6compatNtB6_10CrazyJokerNtB6_5Joker6rarity
FN:39,_RNvXs36_NtNtCs6ewEfsi5izM_10balatro_rs5joker6compatNtB6_8SlyJokerNtB6_5Joker4cost
FN:43,_RNvXs36_NtNtCs6ewEfsi5izM_10balatro_rs5joker6compatNtB6_8SlyJokerNtB6_5Joker6rarity
FN:39,_RNvXs3I_NtNtCs6ewEfsi5izM_10balatro_rs5joker6compatNtB6_11CleverJokerNtB6_5Joker4cost
FN:43,_RNvXs3I_NtNtCs6ewEfsi5izM_10balatro_rs5joker6compatNtB6_11CleverJokerNtB6_5Joker6rarity
FN:39,_RNvXs3p_NtNtCs6ewEfsi5izM_10balatro_rs5joker6compatNtB6_9WilyJokerNtB6_5Joker4cost
FN:43,_RNvXs3p_NtNtCs6ewEfsi5izM_10balatro_rs5joker6compatNtB6_9WilyJokerNtB6_5Joker6rarity
FN:39,_RNvXs41_NtNtCs6ewEfsi5izM_10balatro_rs5joker6compatNtB6_12DeviousJokerNtB6_5Joker4cost
FN:43,_RNvXs41_NtNtCs6ewEfsi5izM_10balatro_rs5joker6compatNtB6_12DeviousJokerNtB6_5Joker6rarity
FN:306,_RNvXs4V_NtNtCs6ewEfsi5izM_10balatro_rs5joker6compatNtB6_6JokersNtB6_5Joker4cost
FN:313,_RNvXs4V_NtNtCs6ewEfsi5izM_10balatro_rs5joker6compatNtB6_6JokersNtB6_5Joker6rarity
FN:39,_RNvXs4k_NtNtCs6ewEfsi5izM_10balatro_rs5joker6compatNtB6_11CraftyJokerNtB6_5Joker4cost
FN:43,_RNvXs4k_NtNtCs6ewEfsi5izM_10balatro_rs5joker6compatNtB6_11CraftyJokerNtB6_5Joker6rarity
FN:39,_RNvXsE_NtNtCs6ewEfsi5izM_10balatro_rs5joker6compatNtB5_10LustyJokerNtB5_5Joker4cost
FN:43,_RNvXsE_NtNtCs6ewEfsi5izM_10balatro_rs5joker6compatNtB5_10LustyJokerNtB5_5Joker6rarity
FN:39,_RNvXsX_NtNtCs6ewEfsi5izM_10balatro_rs5joker6compatNtB5_13WrathfulJokerNtB5_5Joker4cost
FN:43,_RNvXsX_NtNtCs6ewEfsi5izM_10balatro_rs5joker6compatNtB5_13WrathfulJokerNtB5_5Joker6rarity
FN:260,_RNvXs_NtNtCs6ewEfsi5izM_10balatro_rs5joker6compatNtB4_13IceCreamJokerNtB4_5Joker4cost
FN:253,_RNvXs_NtNtCs6ewEfsi5izM_10balatro_rs5joker6compatNtB4_13IceCreamJokerNtB4_5Joker4desc
FN:249,_RNvXs_NtNtCs6ewEfsi5izM_10balatro_rs5joker6compatNtB4_13IceCreamJokerNtB4_5Joker4name
FN:264,_RNvXs_NtNtCs6ewEfsi5izM_10balatro_rs5joker6compatNtB4_13IceCreamJokerNtB4_5Joker6rarity
FN:39,_RNvXsl_NtNtCs6ewEfsi5izM_10balatro_rs5joker6compatNtB5_11GreedyJokerNtB5_5Joker4cost
FN:43,_RNvXsl_NtNtCs6ewEfsi5izM_10balatro_rs5joker6compatNtB5_11GreedyJokerNtB5_5Joker6rarity
FN:433,_RNvNtNtNtCs6ewEfsi5izM_10balatro_rs5joker6compat5tests24score_before_after_joker
FN:452,_RNvNtNtNtCs6ewEfsi5izM_10balatro_rs5joker6compat5tests39score_before_after_ice_cream_with_chips
FN:639,_RNvNtNtNtCs6ewEfsi5izM_10balatro_rs5joker6compat5testss_14test_mad_joker
FN:711,_RNvNtNtNtCs6ewEfsi5izM_10balatro_rs5joker6compat5testss_14test_sly_joker
FN:488,_RNvNtNtNtCs6ewEfsi5izM_10balatro_rs5joker6compat5testss_14test_the_joker
FN:732,_RNvNtNtNtCs6ewEfsi5izM_10balatro_rs5joker6compat5testss_15test_wily_joker
FN:618,_RNvNtNtNtCs6ewEfsi5izM_10balatro_rs5joker6compat5testss_15test_zany_joker
FN:661,_RNvNtNtNtCs6ewEfsi5izM_10balatro_rs5joker6compat5testss_16test_crazy_joker
FN:686,_RNvNtNtNtCs6ewEfsi5izM_10balatro_rs5joker6compat5testss_16test_droll_joker
FN:597,_RNvNtNtNtCs6ewEfsi5izM_10balatro_rs5joker6compat5testss_16test_jolly_joker
FN:509,_RNvNtNtNtCs6ewEfsi5izM_10balatro_rs5joker6compat5testss_16test_lusty_joker
FN:753,_RNvNtNtNtCs6ewEfsi5izM_10balatro_rs5joker6compat5testss_17test_clever_joker
FN:800,_RNvNtNtNtCs6ewEfsi5izM_10balatro_rs5joker6compat5testss_17test_crafty_joker
FN:532,_RNvNtNtNtCs6ewEfsi5izM_10balatro_rs5joker6compat5testss_17test_greedy_joker
FN:775,_RNvNtNtNtCs6ewEfsi5izM_10balatro_rs5joker6compat5testss_18test_devious_joker
FN:554,_RNvNtNtNtCs6ewEfsi5izM_10balatro_rs5joker6compat5testss_19test_wrathful_joker
FN:576,_RNvNtNtNtCs6ewEfsi5izM_10balatro_rs5joker6compat5testss_21test_gluttonous_joker
FN:831,_RNvNtNtNtCs6ewEfsi5izM_10balatro_rs5joker6compat5testss_37test_issue_85_ice_cream_initial_state
FN:857,_RNvNtNtNtCs6ewEfsi5izM_10balatro_rs5joker6compat5testss_39test_issue_85_ice_cream_decay_mechanics
FN:978,_RNvNtNtNtCs6ewEfsi5izM_10balatro_rs5joker6compat5testss_45test_issue_87_basic_joker_acceptance_criteria
FN:914,_RNvNtNtNtCs6ewEfsi5izM_10balatro_rs5joker6compat5testss_49test_issue_85_ice_cream_negative_chips_protection
FN:932,_RNvNtNtNtCs6ewEfsi5izM_10balatro_rs5joker6compat5testss_52test_issue_85_ice_cream_integration_with_other_hands
FN:887,_RNvNtNtNtCs6ewEfsi5izM_10balatro_rs5joker6compat5testss_58test_issue_85_ice_cream_scoring_with_different_chip_values
FN:475,_RNCNvNtNtNtCs6ewEfsi5izM_10balatro_rs5joker6compat5tests39score_before_after_ice_cream_with_chips0B9_
FN:243,_RNvMNtNtCsfztrlbScSWy_10balatro_rs5joker6compatNtB2_13IceCreamJoker12is_destroyed
FN:233,_RNvMNtNtCsfztrlbScSWy_10balatro_rs5joker6compatNtB2_13IceCreamJoker3new
FN:239,_RNvMNtNtCsfztrlbScSWy_10balatro_rs5joker6compatNtB2_13IceCreamJoker5decay
FN:362,_RNvMs0_NtNtCsfztrlbScSWy_10balatro_rs5joker6compatNtB5_6Jokers11to_joker_id
FN:385,_RNvMs0_NtNtCsfztrlbScSWy_10balatro_rs5joker6compatNtB5_6Jokers16matches_joker_id
FN:357,_RNvMs0_NtNtCsfztrlbScSWy_10balatro_rs5joker6compatNtB5_6Jokers9by_rarity
FN:283,_RNvMs5E_NtNtCsfztrlbScSWy_10balatro_rs5joker6compatNtB6_20Jokers_WrathfulJoker19___pymethod_get__0__
FN:283,_RNvMs5J_NtNtCsfztrlbScSWy_10balatro_rs5joker6compatNtB6_22Jokers_GluttonousJoker19___pymethod_get__0__
FN:283,_RNvMs5O_NtNtCsfztrlbScSWy_10balatro_rs5joker6compatNtB6_17Jokers_JollyJoker19___pymethod_get__0__
FN:283,_RNvMs5T_NtNtCsfztrlbScSWy_10balatro_rs5joker6compatNtB6_16Jokers_ZanyJoker19___pymethod_get__0__
FN:283,_RNvMs5Y_NtNtCsfztrlbScSWy_10balatro_rs5joker6compatNtB6_15Jokers_MadJoker19___pymethod_get__0__
FN:283,_RNvMs5p_NtNtCsfztrlbScSWy_10balatro_rs5joker6compatNtB6_15Jokers_TheJoker19___pymethod_get__0__
FN:283,_RNvMs5u_NtNtCsfztrlbScSWy_10balatro_rs5joker6compatNtB6_18Jokers_GreedyJoker19___pymethod_get__0__
FN:283,_RNvMs5z_NtNtCsfztrlbScSWy_10balatro_rs5joker6compatNtB6_17Jokers_LustyJoker19___pymethod_get__0__
FN:283,_RNvMs63_NtNtCsfztrlbScSWy_10balatro_rs5joker6compatNtB6_17Jokers_CrazyJoker19___pymethod_get__0__
FN:283,_RNvMs68_NtNtCsfztrlbScSWy_10balatro_rs5joker6compatNtB6_17Jokers_DrollJoker19___pymethod_get__0__
FN:283,_RNvMs6C_NtNtCsfztrlbScSWy_10balatro_rs5joker6compatNtB6_20Jokers_IceCreamJoker19___pymethod_get__0__
FN:283,_RNvMs6d_NtNtCsfztrlbScSWy_10balatro_rs5joker6compatNtB6_15Jokers_SlyJoker19___pymethod_get__0__
FN:283,_RNvMs6i_NtNtCsfztrlbScSWy_10balatro_rs5joker6compatNtB6_16Jokers_WilyJoker19___pymethod_get__0__
FN:283,_RNvMs6n_NtNtCsfztrlbScSWy_10balatro_rs5joker6compatNtB6_18Jokers_CleverJoker19___pymethod_get__0__
FN:283,_RNvMs6s_NtNtCsfztrlbScSWy_10balatro_rs5joker6compatNtB6_19Jokers_DeviousJoker19___pymethod_get__0__
FN:283,_RNvMs6x_NtNtCsfztrlbScSWy_10balatro_rs5joker6compatNtB6_18Jokers_CraftyJoker19___pymethod_get__0__
FN:47,_RNvXs1S_NtNtCsfztrlbScSWy_10balatro_rs5joker6compatNtB6_9ZanyJokerNtB6_5Joker10categories
FN:39,_RNvXs1S_NtNtCsfztrlbScSWy_10balatro_rs5joker6compatNtB6_9ZanyJokerNtB6_5Joker4cost
FN:35,_RNvXs1S_NtNtCsfztrlbScSWy_10balatro_rs5joker6compatNtB6_9ZanyJokerNtB6_5Joker4desc
FN:31,_RNvXs1S_NtNtCsfztrlbScSWy_10balatro_rs5joker6compatNtB6_9ZanyJokerNtB6_5Joker4name
FN:43,_RNvXs1S_NtNtCsfztrlbScSWy_10balatro_rs5joker6compatNtB6_9ZanyJokerNtB6_5Joker6rarity
FN:50,_RNvXs1S_NtNtCsfztrlbScSWy_10balatro_rs5joker6compatNtB6_9ZanyJokerNtB6_5Joker7effects
FN:410,_RNvXs1_NtNtCsfztrlbScSWy_10balatro_rs5joker6compatNtB5_6JokersNtNtCs1p5UDGgVI4d_4core3fmt7Display3fmt
FN:47,_RNvXs1g_NtNtCsfztrlbScSWy_10balatro_rs5joker6compatNtB6_15GluttonousJokerNtB6_5Joker10categories
FN:39,_RNvXs1g_NtNtCsfztrlbScSWy_10balatro_rs5joker6compatNtB6_15GluttonousJokerNtB6_5Joker4cost
FN:35,_RNvXs1g_NtNtCsfztrlbScSWy_10balatro_rs5joker6compatNtB6_15GluttonousJokerNtB6_5Joker4desc
FN:31,_RNvXs1g_NtNtCsfztrlbScSWy_10balatro_rs5joker6compatNtB6_15GluttonousJokerNtB6_5Joker4name
FN:43,_RNvXs1g_NtNtCsfztrlbScSWy_10balatro_rs5joker6compatNtB6_15GluttonousJokerNtB6_5Joker6rarity
FN:50,_RNvXs1g_NtNtCsfztrlbScSWy_10balatro_rs5joker6compatNtB6_15GluttonousJokerNtB6_5Joker7effects
FN:47,_RNvXs1z_NtNtCsfztrlbScSWy_10balatro_rs5joker6compatNtB6_10JollyJokerNtB6_5Joker10categories
FN:39,_RNvXs1z_NtNtCsfztrlbScSWy_10balatro_rs5joker6compatNtB6_10JollyJokerNtB6_5Joker4cost
FN:35,_RNvXs1z_NtNtCsfztrlbScSWy_10balatro_rs5joker6compatNtB6_10JollyJokerNtB6_5Joker4desc
FN:31,_RNvXs1z_NtNtCsfztrlbScSWy_10balatro_rs5joker6compatNtB6_10JollyJokerNtB6_5Joker4name
FN:43,_RNvXs1z_NtNtCsfztrlbScSWy_10balatro_rs5joker6compatNtB6_10JollyJokerNtB6_5Joker6rarity
FN:50,_RNvXs1z_NtNtCsfztrlbScSWy_10balatro_rs5joker6compatNtB6_10JollyJokerNtB6_5Joker7effects
FN:47,_RNvXs2N_NtNtCsfztrlbScSWy_10balatro_rs5joker6compatNtB6_10DrollJokerNtB6_5Joker10categories
FN:39,_RNvXs2N_NtNtCsfztrlbScSWy_10balatro_rs5joker6compatNtB6_10DrollJokerNtB6_5Joker4cost
FN:35,_RNvXs2N_NtNtCsfztrlbScSWy_10balatro_rs5joker6compatNtB6_10DrollJokerNtB6_5Joker4desc
FN:31,_RNvXs2N_NtNtCsfztrlbScSWy_10balatro_rs5joker6compatNtB6_10DrollJokerNtB6_5Joker4name
FN:43,_RNvXs2N_NtNtCsfztrlbScSWy_10balatro_rs5joker6compatNtB6_10DrollJokerNtB6_5Joker6rarity
FN:50,_RNvXs2N_NtNtCsfztrlbScSWy_10balatro_rs5joker6compatNtB6_10DrollJokerNtB6_5Joker7effects
FN:47,_RNvXs2_NtNtCsfztrlbScSWy_10balatro_rs5joker6compatNtB5_8TheJokerNtB5_5Joker10categories
FN:39,_RNvXs2_NtNtCsfztrlbScSWy_10balatro_rs5joker6compatNtB5_8TheJokerNtB5_5Joker4cost
FN:35,_RNvXs2_NtNtCsfztrlbScSWy_10balatro_rs5joker6compatNtB5_8TheJokerNtB5_5Joker4desc
FN:31,_RNvXs2_NtNtCsfztrlbScSWy_10balatro_rs5joker6compatNtB5_8TheJokerNtB5_5Joker4name
FN:43,_RNvXs2_NtNtCsfztrlbScSWy_10balatro_rs5joker6compatNtB5_8TheJokerNtB5_5Joker6rarity
FN:50,_RNvXs2_NtNtCsfztrlbScSWy_10balatro_rs5joker6compatNtB5_8TheJokerNtB5_5Joker7effects
FN:47,_RNvXs2b_NtNtCsfztrlbScSWy_10balatro_rs5joker6compatNtB6_8MadJokerNtB6_5Joker10categories
FN:39,_RNvXs2b_NtNtCsfztrlbScSWy_10balatro_rs5joker6compatNtB6_8MadJokerNtB6_5Joker4cost
FN:35,_RNvXs2b_NtNtCsfztrlbScSWy_10balatro_rs5joker6compatNtB6_8MadJokerNtB6_5Joker4desc
FN:31,_RNvXs2b_NtNtCsfztrlbScSWy_10balatro_rs5joker6compatNtB6_8MadJokerNtB6_5Joker4name
FN:43,_RNvXs2b_NtNtCsfztrlbScSWy_10balatro_rs5joker6compatNtB6_8MadJokerNtB6_5Joker6rarity
FN:50,_RNvXs2b_NtNtCsfztrlbScSWy_10balatro_rs5joker6compatNtB6_8MadJokerNtB6_5Joker7effects
FN:47,_RNvXs2u_NtNtCsfztrlbScSWy_10balatro_rs5joker6compatNtB6_10CrazyJokerNtB6_5Joker10categories
FN:39,_RNvXs2u_NtNtCsfztrlbScSWy_10balatro_rs5joker6compatNtB6_10CrazyJokerNtB6_5Joker4cost
FN:35,_RNvXs2u_NtNtCsfztrlbScSWy_10balatro_rs5joker6compatNtB6_10CrazyJokerNtB6_5Joker4desc
FN:31,_RNvXs2u_NtNtCsfztrlbScSWy_10balatro_rs5joker6compatNtB6_10CrazyJokerNtB6_5Joker4name
FN:43,_RNvXs2u_NtNtCsfztrlbScSWy_10balatro_rs5joker6compatNtB6_10CrazyJokerNtB6_5Joker6rarity
FN:50,_RNvXs2u_NtNtCsfztrlbScSWy_10balatro_rs5joker6compatNtB6_10CrazyJokerNtB6_5Joker7effects
FN:47,_RNvXs36_NtNtCsfztrlbScSWy_10balatro_rs5joker6compatNtB6_8SlyJokerNtB6_5Joker10categories
FN:39,_RNvXs36_NtNtCsfztrlbScSWy_10balatro_rs5joker6compatNtB6_8SlyJokerNtB6_5Joker4cost
FN:35,_RNvXs36_NtNtCsfztrlbScSWy_10balatro_rs5joker6compatNtB6_8SlyJokerNtB6_5Joker4desc
FN:31,_RNvXs36_NtNtCsfztrlbScSWy_10balatro_rs5joker6compatNtB6_8SlyJokerNtB6_5Joker4name
FN:43,_RNvXs36_NtNtCsfztrlbScSWy_10balatro_rs5joker6compatNtB6_8SlyJokerNtB6_5Joker6rarity
FN:50,_RNvXs36_NtNtCsfztrlbScSWy_10balatro_rs5joker6compatNtB6_8SlyJokerNtB6_5Joker7effects
FN:47,_RNvXs3I_NtNtCsfztrlbScSWy_10balatro_rs5joker6compatNtB6_11CleverJokerNtB6_5Joker10categories
FN:39,_RNvXs3I_NtNtCsfztrlbScSWy_10balatro_rs5joker6compatNtB6_11CleverJokerNtB6_5Joker4cost
FN:35,_RNvXs3I_NtNtCsfztrlbScSWy_10balatro_rs5joker6compatNtB6_11CleverJokerNtB6_5Joker4desc
FN:31,_RNvXs3I_NtNtCsfztrlbScSWy_10balatro_rs5joker6compatNtB6_11CleverJokerNtB6_5Joker4name
FN:43,_RNvXs3I_NtNtCsfztrlbScSWy_10balatro_rs5joker6compatNtB6_11CleverJokerNtB6_5Joker6rarity
FN:50,_RNvXs3I_NtNtCsfztrlbScSWy_10balatro_rs5joker6compatNtB6_11CleverJokerNtB6_5Joker7effects
FN:47,_RNvXs3p_NtNtCsfztrlbScSWy_10balatro_rs5joker6compatNtB6_9WilyJokerNtB6_5Joker10categories
FN:39,_RNvXs3p_NtNtCsfztrlbScSWy_10balatro_rs5joker6compatNtB6_9WilyJokerNtB6_5Joker4cost
FN:35,_RNvXs3p_NtNtCsfztrlbScSWy_10balatro_rs5joker6compatNtB6_9WilyJokerNtB6_5Joker4desc
FN:31,_RNvXs3p_NtNtCsfztrlbScSWy_10balatro_rs5joker6compatNtB6_9WilyJokerNtB6_5Joker4name
FN:43,_RNvXs3p_NtNtCsfztrlbScSWy_10balatro_rs5joker6compatNtB6_9WilyJokerNtB6_5Joker6rarity
FN:50,_RNvXs3p_NtNtCsfztrlbScSWy_10balatro_rs5joker6compatNtB6_9WilyJokerNtB6_5Joker7effects
FN:47,_RNvXs41_NtNtCsfztrlbScSWy_10balatro_rs5joker6compatNtB6_12DeviousJokerNtB6_5Joker10categories
FN:39,_RNvXs41_NtNtCsfztrlbScSWy_10balatro_rs5joker6compatNtB6_12DeviousJokerNtB6_5Joker4cost
FN:35,_RNvXs41_NtNtCsfztrlbScSWy_10balatro_rs5joker6compatNtB6_12DeviousJokerNtB6_5Joker4desc
FN:31,_RNvXs41_NtNtCsfztrlbScSWy_10balatro_rs5joker6compatNtB6_12DeviousJokerNtB6_5Joker4name
FN:43,_RNvXs41_NtNtCsfztrlbScSWy_10balatro_rs5joker6compatNtB6_12DeviousJokerNtB6_5Joker6rarity
FN:50,_RNvXs41_NtNtCsfztrlbScSWy_10balatro_rs5joker6compatNtB6_12DeviousJokerNtB6_5Joker7effects
FN:320,_RNvXs4V_NtNtCsfztrlbScSWy_10balatro_rs5joker6compatNtB6_6JokersNtB6_5Joker10categories
FN:306,_RNvXs4V_NtNtCsfztrlbScSWy_10balatro_rs5joker6compatNtB6_6JokersNtB6_5Joker4cost
FN:299,_RNvXs4V_NtNtCsfztrlbScSWy_10balatro_rs5joker6compatNtB6_6JokersNtB6_5Joker4desc
FN:292,_RNvXs4V_NtNtCsfztrlbScSWy_10balatro_rs5joker6compatNtB6_6JokersNtB6_5Joker4name
FN:313,_RNvXs4V_NtNtCsfztrlbScSWy_10balatro_rs5joker6compatNtB6_6JokersNtB6_5Joker6rarity
FN:327,_RNvXs4V_NtNtCsfztrlbScSWy_10balatro_rs5joker6compatNtB6_6JokersNtB6_5Joker7effects
FN:47,_RNvXs4k_NtNtCsfztrlbScSWy_10balatro_rs5joker6compatNtB6_11CraftyJokerNtB6_5Joker10categories
FN:39,_RNvXs4k_NtNtCsfztrlbScSWy_10balatro_rs5joker6compatNtB6_11CraftyJokerNtB6_5Joker4cost
FN:35,_RNvXs4k_NtNtCsfztrlbScSWy_10balatro_rs5joker6compatNtB6_11CraftyJokerNtB6_5Joker4desc
FN:31,_RNvXs4k_NtNtCsfztrlbScSWy_10balatro_rs5joker6compatNtB6_11CraftyJokerNtB6_5Joker4name
FN:43,_RNvXs4k_NtNtCsfztrlbScSWy_10balatro_rs5joker6compatNtB6_11CraftyJokerNtB6_5Joker6rarity
FN:50,_RNvXs4k_NtNtCsfztrlbScSWy_10balatro_rs5joker6compatNtB6_11CraftyJokerNtB6_5Joker7effects
FN:47,_RNvXsE_NtNtCsfztrlbScSWy_10balatro_rs5joker6compatNtB5_10LustyJokerNtB5_5Joker10categories
FN:39,_RNvXsE_NtNtCsfztrlbScSWy_10balatro_rs5joker6compatNtB5_10LustyJokerNtB5_5Joker4cost
FN:35,_RNvXsE_NtNtCsfztrlbScSWy_10balatro_rs5joker6compatNtB5_10LustyJokerNtB5_5Joker4desc
FN:31,_RNvXsE_NtNtCsfztrlbScSWy_10balatro_rs5joker6compatNtB5_10LustyJokerNtB5_5Joker4name
FN:43,_RNvXsE_NtNtCsfztrlbScSWy_10balatro_rs5joker6compatNtB5_10LustyJokerNtB5_5Joker6rarity
FN:50,_RNvXsE_NtNtCsfztrlbScSWy_10balatro_rs5joker6compatNtB5_10LustyJokerNtB5_5Joker7effects
FN:47,_RNvXsX_NtNtCsfztrlbScSWy_10balatro_rs5joker6compatNtB5_13WrathfulJokerNtB5_5Joker10categories
FN:39,_RNvXsX_NtNtCsfztrlbScSWy_10balatro_rs5joker6compatNtB5_13WrathfulJokerNtB5_5Joker4cost
FN:35,_RNvXsX_NtNtCsfztrlbScSWy_10balatro_rs5joker6compatNtB5_13WrathfulJokerNtB5_5Joker4desc
FN:31,_RNvXsX_NtNtCsfztrlbScSWy_10balatro_rs5joker6compatNtB5_13WrathfulJokerNtB5_5Joker4name
FN:43,_RNvXsX_NtNtCsfztrlbScSWy_10balatro_rs5joker6compatNtB5_13WrathfulJokerNtB5_5Joker6rarity
FN:50,_RNvXsX_NtNtCsfztrlbScSWy_10balatro_rs5joker6compatNtB5_13WrathfulJokerNtB5_5Joker7effects
FN:268,_RNvXs_NtNtCsfztrlbScSWy_10balatro_rs5joker6compatNtB4_13IceCreamJokerNtB4_5Joker10categories
FN:260,_RNvXs_NtNtCsfztrlbScSWy_10balatro_rs5joker6compatNtB4_13IceCreamJokerNtB4_5Joker4cost
FN:253,_RNvXs_NtNtCsfztrlbScSWy_10balatro_rs5joker6compatNtB4_13IceCreamJokerNtB4_5Joker4desc
FN:249,_RNvXs_NtNtCsfztrlbScSWy_10balatro_rs5joker6compatNtB4_13IceCreamJokerNtB4_5Joker4name
FN:264,_RNvXs_NtNtCsfztrlbScSWy_10balatro_rs5joker6compatNtB4_13IceCreamJokerNtB4_5Joker6rarity
FN:272,_RNvXs_NtNtCsfztrlbScSWy_10balatro_rs5joker6compatNtB4_13IceCreamJokerNtB4_5Joker7effects
FN:47,_RNvXsl_NtNtCsfztrlbScSWy_10balatro_rs5joker6compatNtB5_11GreedyJokerNtB5_5Joker10categories
FN:39,_RNvXsl_NtNtCsfztrlbScSWy_10balatro_rs5joker6compatNtB5_11GreedyJokerNtB5_5Joker4cost
FN:35,_RNvXsl_NtNtCsfztrlbScSWy_10balatro_rs5joker6compatNtB5_11GreedyJokerNtB5_5Joker4desc
FN:31,_RNvXsl_NtNtCsfztrlbScSWy_10balatro_rs5joker6compatNtB5_11GreedyJokerNtB5_5Joker4name
FN:43,_RNvXsl_NtNtCsfztrlbScSWy_10balatro_rs5joker6compatNtB5_11GreedyJokerNtB5_5Joker6rarity
FN:50,_RNvXsl_NtNtCsfztrlbScSWy_10balatro_rs5joker6compatNtB5_11GreedyJokerNtB5_5Joker7effects
FN:16,_RNvYpNtNtNtCsfztrlbScSWy_10balatro_rs5joker6compat5Joker7effectsB9_
FN:26,_RINvXs0_NvXNvNtNtCsfztrlbScSWy_10balatro_rs5joker6compats2_1__NtBb_11GreedyJokerNtNtCsWuCv7H75Ac_5serde2de11Deserialize11deserializeNtB6_9___VisitorNtB1i_7Visitor9visit_mapINtNtCs9DWYcYz1PvJ_10serde_json2de9MapAccessNtNtB2P_4read7StrReadEEBf_
FN:26,_RINvXs0_NvXNvNtNtCsfztrlbScSWy_10balatro_rs5joker6compats5_1__NtBb_10LustyJokerNtNtCsWuCv7H75Ac_5serde2de11Deserialize11deserializeNtB6_9___VisitorNtB1h_7Visitor9visit_mapINtNtCs9DWYcYz1PvJ_10serde_json2de9MapAccessNtNtB2O_4read7StrReadEEBf_
FN:26,_RINvXs0_NvXNvNtNtCsfztrlbScSWy_10balatro_rs5joker6compats8_1__NtBb_13WrathfulJokerNtNtCsWuCv7H75Ac_5serde2de11Deserialize11deserializeNtB6_9___VisitorNtB1k_7Visitor9visit_mapINtNtCs9DWYcYz1PvJ_10serde_json2de9MapAccessNtNtB2R_4read7StrReadEEBf_
FN:26,_RINvXs0_NvXNvNtNtCsfztrlbScSWy_10balatro_rs5joker6compatsC_1__NtBb_12DeviousJokerNtNtCsWuCv7H75Ac_5serde2de11Deserialize11deserializeNtB6_9___VisitorNtB1j_7Visitor9visit_mapINtNtCs9DWYcYz1PvJ_10serde_json2de9MapAccessNtNtB2Q_4read7StrReadEEBf_
FN:26,_RINvXs0_NvXNvNtNtCsfztrlbScSWy_10balatro_rs5joker6compatsF_1__NtBb_11CraftyJokerNtNtCsWuCv7H75Ac_5serde2de11Deserialize11deserializeNtB6_9___VisitorNtB1i_7Visitor9visit_mapINtNtCs9DWYcYz1PvJ_10serde_json2de9MapAccessNtNtB2P_4read7StrReadEEBf_
FN:225,_RINvXs0_NvXNvNtNtCsfztrlbScSWy_10balatro_rs5joker6compatsI_1__NtBb_13IceCreamJokerNtNtCsWuCv7H75Ac_5serde2de11Deserialize11deserializeNtB6_9___VisitorNtB1k_7Visitor9visit_mapINtNtCs9DWYcYz1PvJ_10serde_json2de9MapAccessNtNtB2R_4read7StrReadEEBf_
FN:225,_RINvXs0_NvXNvNtNtCsfztrlbScSWy_10balatro_rs5joker6compatsI_1__NtBb_13IceCreamJokerNtNtCsWuCv7H75Ac_5serde2de11Deserialize11deserializeNtB6_9___VisitorNtB1k_7Visitor9visit_seqINtNtCs9DWYcYz1PvJ_10serde_json2de9SeqAccessNtNtB2R_4read7StrReadEEBf_
FN:282,_RINvXs0_NvXNvNtNtCsfztrlbScSWy_10balatro_rs5joker6compatsL_1__NtBb_6JokersNtNtCsWuCv7H75Ac_5serde2de11Deserialize11deserializeNtB6_9___VisitorNtB1c_7Visitor10visit_enumINtNtCs9DWYcYz1PvJ_10serde_json2de13VariantAccessNtNtB2L_4read7StrReadEEBf_
FN:282,_RINvXs0_NvXNvNtNtCsfztrlbScSWy_10balatro_rs5joker6compatsL_1__NtBb_6JokersNtNtCsWuCv7H75Ac_5serde2de11Deserialize11deserializeNtB6_9___VisitorNtB1c_7Visitor10visit_enumINtNtCs9DWYcYz1PvJ_10serde_json2de17UnitVariantAccessNtNtB2L_4read7StrReadEEBf_
FN:26,_RINvXs0_NvXNvNtNtCsfztrlbScSWy_10balatro_rs5joker6compats_1__NtBb_8TheJokerNtNtCsWuCv7H75Ac_5serde2de11Deserialize11deserializeNtB6_9___VisitorNtB1d_7Visitor9visit_mapINtNtCs9DWYcYz1PvJ_10serde_json2de9MapAccessNtNtB2K_4read7StrReadEEBf_
FN:26,_RINvXs0_NvXNvNtNtCsfztrlbScSWy_10balatro_rs5joker6compatsb_1__NtBb_15GluttonousJokerNtNtCsWuCv7H75Ac_5serde2de11Deserialize11deserializeNtB6_9___VisitorNtB1m_7Visitor9visit_mapINtNtCs9DWYcYz1PvJ_10serde_json2de9MapAccessNtNtB2T_4read7StrReadEEBf_
FN:26,_RINvXs0_NvXNvNtNtCsfztrlbScSWy_10balatro_rs5joker6compatse_1__NtBb_10JollyJokerNtNtCsWuCv7H75Ac_5serde2de11Deserialize11deserializeNtB6_9___VisitorNtB1h_7Visitor9visit_mapINtNtCs9DWYcYz1PvJ_10serde_json2de9MapAccessNtNtB2O_4read7StrReadEEBf_
FN:26,_RINvXs0_NvXNvNtNtCsfztrlbScSWy_10balatro_rs5joker6compatsh_1__NtBb_9ZanyJokerNtNtCsWuCv7H75Ac_5serde2de11Deserialize11deserializeNtB6_9___VisitorNtB1f_7Visitor9visit_mapINtNtCs9DWYcYz1PvJ_10serde_json2de9MapAccessNtNtB2M_4read7StrReadEEBf_
FN:26,_RINvXs0_NvXNvNtNtCsfztrlbScSWy_10balatro_rs5joker6compatsk_1__NtBb_8MadJokerNtNtCsWuCv7H75Ac_5serde2de11Deserialize11deserializeNtB6_9___VisitorNtB1e_7Visitor9visit_mapINtNtCs9DWYcYz1PvJ_10serde_json2de9MapAccessNtNtB2L_4read7StrReadEEBf_
FN:26,_RINvXs0_NvXNvNtNtCsfztrlbScSWy_10balatro_rs5joker6compatsn_1__NtBb_10CrazyJokerNtNtCsWuCv7H75Ac_5serde2de11Deserialize11deserializeNtB6_9___VisitorNtB1h_7Visitor9visit_mapINtNtCs9DWYcYz1PvJ_10serde_json2de9MapAccessNtNtB2O_4read7StrReadEEBf_
FN:26,_RINvXs0_NvXNvNtNtCsfztrlbScSWy_10balatro_rs5joker6compatsq_1__NtBb_10DrollJokerNtNtCsWuCv7H75Ac_5serde2de11Deserialize11deserializeNtB6_9___VisitorNtB1h_7Visitor9visit_mapINtNtCs9DWYcYz1PvJ_10serde_json2de9MapAccessNtNtB2O_4read7StrReadEEBf_
FN:26,_RINvXs0_NvXNvNtNtCsfztrlbScSWy_10balatro_rs5joker6compatst_1__NtBb_8SlyJokerNtNtCsWuCv7H75Ac_5serde2de11Deserialize11deserializeNtB6_9___VisitorNtB1e_7Visitor9visit_mapINtNtCs9DWYcYz1PvJ_10serde_json2de9MapAccessNtNtB2L_4read7StrReadEEBf_
FN:26,_RINvXs0_NvXNvNtNtCsfztrlbScSWy_10balatro_rs5joker6compatsw_1__NtBb_9WilyJokerNtNtCsWuCv7H75Ac_5serde2de11Deserialize11deserializeNtB6_9___VisitorNtB1f_7Visitor9visit_mapINtNtCs9DWYcYz1PvJ_10serde_json2de9MapAccessNtNtB2M_4read7StrReadEEBf_
FN:26,_RINvXs0_NvXNvNtNtCsfztrlbScSWy_10balatro_rs5joker6compatsz_1__NtBb_11CleverJokerNtNtCsWuCv7H75Ac_5serde2de11Deserialize11deserializeNtB6_9___VisitorNtB1i_7Visitor9visit_mapINtNtCs9DWYcYz1PvJ_10serde_json2de9MapAccessNtNtB2P_4read7StrReadEEBf_
FN:358,_RNCNvMs0_NtNtCsfztrlbScSWy_10balatro_rs5joker6compatNtB7_6Jokers9by_rarity0Bb_
FNDA:0,_RINvXs0_NvXNvNtNtCs6ewEfsi5izM_10balatro_rs5joker6compats2_1__NtBb_11GreedyJokerNtNtCsWuCv7H75Ac_5serde2de11Deserialize11deserializeNtB6_9___VisitorNtB1i_7Visitor9visit_mappEBf_
FNDA:0,_RINvXs0_NvXNvNtNtCs6ewEfsi5izM_10balatro_rs5joker6compats5_1__NtBb_10LustyJokerNtNtCsWuCv7H75Ac_5serde2de11Deserialize11deserializeNtB6_9___VisitorNtB1h_7Visitor9visit_mappEBf_
FNDA:0,_RINvXs0_NvXNvNtNtCs6ewEfsi5izM_10balatro_rs5joker6compats8_1__NtBb_13WrathfulJokerNtNtCsWuCv7H75Ac_5serde2de11Deserialize11deserializeNtB6_9___VisitorNtB1k_7Visitor9visit_mappEBf_
FNDA:0,_RINvXs0_NvXNvNtNtCs6ewEfsi5izM_10balatro_rs5joker6compatsC_1__NtBb_12DeviousJokerNtNtCsWuCv7H75Ac_5serde2de11Deserialize11deserializeNtB6_9___VisitorNtB1j_7Visitor9visit_mappEBf_
FNDA:0,_RINvXs0_NvXNvNtNtCs6ewEfsi5izM_10balatro_rs5joker6compatsF_1__NtBb_11CraftyJokerNtNtCsWuCv7H75Ac_5serde2de11Deserialize11deserializeNtB6_9___VisitorNtB1i_7Visitor9visit_mappEBf_
FNDA:0,_RINvXs0_NvXNvNtNtCs6ewEfsi5izM_10balatro_rs5joker6compatsI_1__NtBb_13IceCreamJokerNtNtCsWuCv7H75Ac_5serde2de11Deserialize11deserializeNtB6_9___VisitorNtB1k_7Visitor9visit_mappEBf_
FNDA:0,_RINvXs0_NvXNvNtNtCs6ewEfsi5izM_10balatro_rs5joker6compatsI_1__NtBb_13IceCreamJokerNtNtCsWuCv7H75Ac_5serde2de11Deserialize11deserializeNtB6_9___VisitorNtB1k_7Visitor9visit_seqpEBf_
FNDA:0,_RINvXs0_NvXNvNtNtCs6ewEfsi5izM_10balatro_rs5joker6compatsL_1__NtBb_6JokersNtNtCsWuCv7H75Ac_5serde2de11Deserialize11deserializeNtB6_9___VisitorNtB1c_7Visitor10visit_enumpEBf_
FNDA:0,_RINvXs0_NvXNvNtNtCs6ewEfsi5izM_10balatro_rs5joker6compats_1__NtBb_8TheJokerNtNtCsWuCv7H75Ac_5serde2de11Deserialize11deserializeNtB6_9___VisitorNtB1d_7Visitor9visit_mappEBf_
FNDA:0,_RINvXs0_NvXNvNtNtCs6ewEfsi5izM_10balatro_rs5joker6compatsb_1__NtBb_15GluttonousJokerNtNtCsWuCv7H75Ac_5serde2de11Deserialize11deserializeNtB6_9___VisitorNtB1m_7Visitor9visit_mappEBf_
FNDA:0,_RINvXs0_NvXNvNtNtCs6ewEfsi5izM_10balatro_rs5joker6compatse_1__NtBb_10JollyJokerNtNtCsWuCv7H75Ac_5serde2de11Deserialize11deserializeNtB6_9___VisitorNtB1h_7Visitor9visit_mappEBf_
FNDA:0,_RINvXs0_NvXNvNtNtCs6ewEfsi5izM_10balatro_rs5joker6compatsh_1__NtBb_9ZanyJokerNtNtCsWuCv7H75Ac_5serde2de11Deserialize11deserializeNtB6_9___VisitorNtB1f_7Visitor9visit_mappEBf_
FNDA:0,_RINvXs0_NvXNvNtNtCs6ewEfsi5izM_10balatro_rs5joker6compatsk_1__NtBb_8MadJokerNtNtCsWuCv7H75Ac_5serde2de11Deserialize11deserializeNtB6_9___VisitorNtB1e_7Visitor9visit_mappEBf_
FNDA:0,_RINvXs0_NvXNvNtNtCs6ewEfsi5izM_10balatro_rs5joker6compatsn_1__NtBb_10CrazyJokerNtNtCsWuCv7H75Ac_5serde2de11Deserialize11deserializeNtB6_9___VisitorNtB1h_7Visitor9visit_mappEBf_
FNDA:0,_RINvXs0_NvXNvNtNtCs6ewEfsi5izM_10balatro_rs5joker6compatsq_1__NtBb_10DrollJokerNtNtCsWuCv7H75Ac_5serde2de11Deserialize11deserializeNtB6_9___VisitorNtB1h_7Visitor9visit_mappEBf_
FNDA:0,_RINvXs0_NvXNvNtNtCs6ewEfsi5izM_10balatro_rs5joker6compatst_1__NtBb_8SlyJokerNtNtCsWuCv7H75Ac_5serde2de11Deserialize11deserializeNtB6_9___VisitorNtB1e_7Visitor9visit_mappEBf_
FNDA:0,_RINvXs0_NvXNvNtNtCs6ewEfsi5izM_10balatro_rs5joker6compatsw_1__NtBb_9WilyJokerNtNtCsWuCv7H75Ac_5serde2de11Deserialize11deserializeNtB6_9___VisitorNtB1f_7Visitor9visit_mappEBf_
FNDA:0,_RINvXs0_NvXNvNtNtCs6ewEfsi5izM_10balatro_rs5joker6compatsz_1__NtBb_11CleverJokerNtNtCsWuCv7H75Ac_5serde2de11Deserialize11deserializeNtB6_9___VisitorNtB1i_7Visitor9visit_mappEBf_
FNDA:0,_RNvXs1S_NtNtCs6ewEfsi5izM_10balatro_rs5joker6compatNtB6_9ZanyJokerNtB6_5Joker10categories
FNDA:0,_RNvXs1S_NtNtCs6ewEfsi5izM_10balatro_rs5joker6compatNtB6_9ZanyJokerNtB6_5Joker4desc
FNDA:0,_RNvXs1S_NtNtCs6ewEfsi5izM_10balatro_rs5joker6compatNtB6_9ZanyJokerNtB6_5Joker4name
FNDA:0,_RNvXs1S_NtNtCs6ewEfsi5izM_10balatro_rs5joker6compatNtB6_9ZanyJokerNtB6_5Joker7effects
FNDA:0,_RNvXs1_NtNtCs6ewEfsi5izM_10balatro_rs5joker6compatNtB5_6JokersNtNtCs1p5UDGgVI4d_4core3fmt7Display3fmt
FNDA:0,_RNvXs1g_NtNtCs6ewEfsi5izM_10balatro_rs5joker6compatNtB6_15GluttonousJokerNtB6_5Joker10categories
FNDA:0,_RNvXs1g_NtNtCs6ewEfsi5izM_10balatro_rs5joker6compatNtB6_15GluttonousJokerNtB6_5Joker4desc
FNDA:0,_RNvXs1g_NtNtCs6ewEfsi5izM_10balatro_rs5joker6compatNtB6_15GluttonousJokerNtB6_5Joker4name
FNDA:0,_RNvXs1g_NtNtCs6ewEfsi5izM_10balatro_rs5joker6compatNtB6_15GluttonousJokerNtB6_5Joker7effects
FNDA:0,_RNvXs1z_NtNtCs6ewEfsi5izM_10balatro_rs5joker6compatNtB6_10JollyJokerNtB6_5Joker10categories
FNDA:0,_RNvXs1z_NtNtCs6ewEfsi5izM_10balatro_rs5joker6compatNtB6_10JollyJokerNtB6_5Joker4desc
FNDA:0,_RNvXs1z_NtNtCs6ewEfsi5izM_10balatro_rs5joker6compatNtB6_10JollyJokerNtB6_5Joker4name
FNDA:0,_RNvXs1z_NtNtCs6ewEfsi5izM_10balatro_rs5joker6compatNtB6_10JollyJokerNtB6_5Joker7effects
FNDA:0,_RNvXs2N_NtNtCs6ewEfsi5izM_10balatro_rs5joker6compatNtB6_10DrollJokerNtB6_5Joker10categories
FNDA:0,_RNvXs2N_NtNtCs6ewEfsi5izM_10balatro_rs5joker6compatNtB6_10DrollJokerNtB6_5Joker4desc
FNDA:0,_RNvXs2N_NtNtCs6ewEfsi5izM_10balatro_rs5joker6compatNtB6_10DrollJokerNtB6_5Joker4name
FNDA:0,_RNvXs2N_NtNtCs6ewEfsi5izM_10balatro_rs5joker6compatNtB6_10DrollJokerNtB6_5Joker7effects
FNDA:0,_RNvXs2_NtNtCs6ewEfsi5izM_10balatro_rs5joker6compatNtB5_8TheJokerNtB5_5Joker10categories
FNDA:0,_RNvXs2_NtNtCs6ewEfsi5izM_10balatro_rs5joker6compatNtB5_8TheJokerNtB5_5Joker4desc
FNDA:0,_RNvXs2_NtNtCs6ewEfsi5izM_10balatro_rs5joker6compatNtB5_8TheJokerNtB5_5Joker4name
FNDA:0,_RNvXs2_NtNtCs6ewEfsi5izM_10balatro_rs5joker6compatNtB5_8TheJokerNtB5_5Joker7effects
FNDA:0,_RNvXs2b_NtNtCs6ewEfsi5izM_10balatro_rs5joker6compatNtB6_8MadJokerNtB6_5Joker10categories
FNDA:0,_RNvXs2b_NtNtCs6ewEfsi5izM_10balatro_rs5joker6compatNtB6_8MadJokerNtB6_5Joker4desc
FNDA:0,_RNvXs2b_NtNtCs6ewEfsi5izM_10balatro_rs5joker6compatNtB6_8MadJokerNtB6_5Joker4name
FNDA:0,_RNvXs2b_NtNtCs6ewEfsi5izM_10balatro_rs5joker6compatNtB6_8MadJokerNtB6_5Joker7effects
FNDA:0,_RNvXs2u_NtNtCs6ewEfsi5izM_10balatro_rs5joker6compatNtB6_10CrazyJokerNtB6_5Joker10categories
FNDA:0,_RNvXs2u_NtNtCs6ewEfsi5izM_10balatro_rs5joker6compatNtB6_10CrazyJokerNtB6_5Joker4desc
FNDA:0,_RNvXs2u_NtNtCs6ewEfsi5izM_10balatro_rs5joker6compatNtB6_10CrazyJokerNtB6_5Joker4name
FNDA:0,_RNvXs2u_NtNtCs6ewEfsi5izM_10balatro_rs5joker6compatNtB6_10CrazyJokerNtB6_5Joker7effects
FNDA:0,_RNvXs36_NtNtCs6ewEfsi5izM_10balatro_rs5joker6compatNtB6_8SlyJokerNtB6_5Joker10categories
FNDA:0,_RNvXs36_NtNtCs6ewEfsi5izM_10balatro_rs5joker6compatNtB6_8SlyJokerNtB6_5Joker4desc
FNDA:0,_RNvXs36_NtNtCs6ewEfsi5izM_10balatro_rs5joker6compatNtB6_8SlyJokerNtB6_5Joker4name
FNDA:0,_RNvXs36_NtNtCs6ewEfsi5izM_10balatro_rs5joker6compatNtB6_8SlyJokerNtB6_5Joker7effects
FNDA:0,_RNvXs3I_NtNtCs6ewEfsi5izM_10balatro_rs5joker6compatNtB6_11CleverJokerNtB6_5Joker10categories
FNDA:0,_RNvXs3I_NtNtCs6ewEfsi5izM_10balatro_rs5joker6compatNtB6_11CleverJokerNtB6_5Joker4desc
FNDA:0,_RNvXs3I_NtNtCs6ewEfsi5izM_10balatro_rs5joker6compatNtB6_11CleverJokerNtB6_5Joker4name
FNDA:0,_RNvXs3I_NtNtCs6ewEfsi5izM_10balatro_rs5joker6compatNtB6_11CleverJokerNtB6_5Joker7effects
FNDA:0,_RNvXs3p_NtNtCs6ewEfsi5izM_10balatro_rs5joker6compatNtB6_9WilyJokerNtB6_5Joker10categories
FNDA:0,_RNvXs3p_NtNtCs6ewEfsi5izM_10balatro_rs5joker6compatNtB6_9WilyJokerNtB6_5Joker4desc
FNDA:0,_RNvXs3p_NtNtCs6ewEfsi5izM_10balatro_rs5joker6compatNtB6_9WilyJokerNtB6_5Joker4name
FNDA:0,_RNvXs3p_NtNtCs6ewEfsi5izM_10balatro_rs5joker6compatNtB6_9WilyJokerNtB6_5Joker7effects
FNDA:0,_RNvXs41_NtNtCs6ewEfsi5izM_10balatro_rs5joker6compatNtB6_12DeviousJokerNtB6_5Joker10categories
FNDA:0,_RNvXs41_NtNtCs6ewEfsi5izM_10balatro_rs5joker6compatNtB6_12DeviousJokerNtB6_5Joker4desc
FNDA:0,_RNvXs41_NtNtCs6ewEfsi5izM_10balatro_rs5joker6compatNtB6_12DeviousJokerNtB6_5Joker4name
FNDA:0,_RNvXs41_NtNtCs6ewEfsi5izM_10balatro_rs5joker6compatNtB6_12DeviousJokerNtB6_5Joker7effects
FNDA:0,_RNvXs4V_NtNtCs6ewEfsi5izM_10balatro_rs5joker6compatNtB6_6JokersNtB6_5Joker10categories
FNDA:0,_RNvXs4V_NtNtCs6ewEfsi5izM_10balatro_rs5joker6compatNtB6_6JokersNtB6_5Joker4desc
FNDA:0,_RNvXs4V_NtNtCs6ewEfsi5izM_10balatro_rs5joker6compatNtB6_6JokersNtB6_5Joker4name
FNDA:0,_RNvXs4V_NtNtCs6ewEfsi5izM_10balatro_rs5joker6compatNtB6_6JokersNtB6_5Joker7effects
FNDA:0,_RNvXs4k_NtNtCs6ewEfsi5izM_10balatro_rs5joker6compatNtB6_11CraftyJokerNtB6_5Joker10categories
FNDA:0,_RNvXs4k_NtNtCs6ewEfsi5izM_10balatro_rs5joker6compatNtB6_11CraftyJokerNtB6_5Joker4desc
FNDA:0,_RNvXs4k_NtNtCs6ewEfsi5izM_10balatro_rs5joker6compatNtB6_11CraftyJokerNtB6_5Joker4name
FNDA:0,_RNvXs4k_NtNtCs6ewEfsi5izM_10balatro_rs5joker6compatNtB6_11CraftyJokerNtB6_5Joker7effects
FNDA:0,_RNvXsE_NtNtCs6ewEfsi5izM_10balatro_rs5joker6compatNtB5_10LustyJokerNtB5_5Joker10categories
FNDA:0,_RNvXsE_NtNtCs6ewEfsi5izM_10balatro_rs5joker6compatNtB5_10LustyJokerNtB5_5Joker4desc
FNDA:0,_RNvXsE_NtNtCs6ewEfsi5izM_10balatro_rs5joker6compatNtB5_10LustyJokerNtB5_5Joker4name
FNDA:0,_RNvXsE_NtNtCs6ewEfsi5izM_10balatro_rs5joker6compatNtB5_10LustyJokerNtB5_5Joker7effects
FNDA:0,_RNvXsX_NtNtCs6ewEfsi5izM_10balatro_rs5joker6compatNtB5_13WrathfulJokerNtB5_5Joker10categories
FNDA:0,_RNvXsX_NtNtCs6ewEfsi5izM_10balatro_rs5joker6compatNtB5_13WrathfulJokerNtB5_5Joker4desc
FNDA:0,_RNvXsX_NtNtCs6ewEfsi5izM_10balatro_rs5joker6compatNtB5_13WrathfulJokerNtB5_5Joker4name
FNDA:0,_RNvXsX_NtNtCs6ewEfsi5izM_10balatro_rs5joker6compatNtB5_13WrathfulJokerNtB5_5Joker7effects
FNDA:0,_RNvXs_NtNtCs6ewEfsi5izM_10balatro_rs5joker6compatNtB4_13IceCreamJokerNtB4_5Joker10categories
FNDA:0,_RNvXs_NtNtCs6ewEfsi5izM_10balatro_rs5joker6compatNtB4_13IceCreamJokerNtB4_5Joker7effects
FNDA:0,_RNvXsl_NtNtCs6ewEfsi5izM_10balatro_rs5joker6compatNtB5_11GreedyJokerNtB5_5Joker10categories
FNDA:0,_RNvXsl_NtNtCs6ewEfsi5izM_10balatro_rs5joker6compatNtB5_11GreedyJokerNtB5_5Joker4desc
FNDA:0,_RNvXsl_NtNtCs6ewEfsi5izM_10balatro_rs5joker6compatNtB5_11GreedyJokerNtB5_5Joker4name
FNDA:0,_RNvXsl_NtNtCs6ewEfsi5izM_10balatro_rs5joker6compatNtB5_11GreedyJokerNtB5_5Joker7effects
FNDA:0,_RNvYpNtNtNtCs6ewEfsi5izM_10balatro_rs5joker6compat5Joker7effectsB9_
FNDA:160,_RNCNvMs0_NtNtCs6ewEfsi5izM_10balatro_rs5joker6compatNtB7_6Jokers9by_rarity0Bb_
FNDA:4,_RNvMNtNtCs6ewEfsi5izM_10balatro_rs5joker6compatNtB2_13IceCreamJoker12is_destroyed
FNDA:13,_RNvMNtNtCs6ewEfsi5izM_10balatro_rs5joker6compatNtB2_13IceCreamJoker3new
FNDA:21,_RNvMNtNtCs6ewEfsi5izM_10balatro_rs5joker6compatNtB2_13IceCreamJoker5decay
FNDA:25,_RNvMs0_NtNtCs6ewEfsi5izM_10balatro_rs5joker6compatNtB5_6Jokers11to_joker_id
FNDA:12,_RNvMs0_NtNtCs6ewEfsi5izM_10balatro_rs5joker6compatNtB5_6Jokers16matches_joker_id
FNDA:10,_RNvMs0_NtNtCs6ewEfsi5izM_10balatro_rs5joker6compatNtB5_6Jokers9by_rarity
FNDA:0,_RNvMs5E_NtNtCs6ewEfsi5izM_10balatro_rs5joker6compatNtB6_20Jokers_WrathfulJoker19___pymethod_get__0__
FNDA:0,_RNvMs5J_NtNtCs6ewEfsi5izM_10balatro_rs5joker6compatNtB6_22Jokers_GluttonousJoker19___pymethod_get__0__
FNDA:0,_RNvMs5O_NtNtCs6ewEfsi5izM_10balatro_rs5joker6compatNtB6_17Jokers_JollyJoker19___pymethod_get__0__
FNDA:0,_RNvMs5T_NtNtCs6ewEfsi5izM_10balatro_rs5joker6compatNtB6_16Jokers_ZanyJoker19___pymethod_get__0__
FNDA:0,_RNvMs5Y_NtNtCs6ewEfsi5izM_10balatro_rs5joker6compatNtB6_15Jokers_MadJoker19___pymethod_get__0__
FNDA:0,_RNvMs5p_NtNtCs6ewEfsi5izM_10balatro_rs5joker6compatNtB6_15Jokers_TheJoker19___pymethod_get__0__
FNDA:0,_RNvMs5u_NtNtCs6ewEfsi5izM_10balatro_rs5joker6compatNtB6_18Jokers_GreedyJoker19___pymethod_get__0__
FNDA:0,_RNvMs5z_NtNtCs6ewEfsi5izM_10balatro_rs5joker6compatNtB6_17Jokers_LustyJoker19___pymethod_get__0__
FNDA:0,_RNvMs63_NtNtCs6ewEfsi5izM_10balatro_rs5joker6compatNtB6_17Jokers_CrazyJoker19___pymethod_get__0__
FNDA:0,_RNvMs68_NtNtCs6ewEfsi5izM_10balatro_rs5joker6compatNtB6_17Jokers_DrollJoker19___pymethod_get__0__
FNDA:0,_RNvMs6C_NtNtCs6ewEfsi5izM_10balatro_rs5joker6compatNtB6_20Jokers_IceCreamJoker19___pymethod_get__0__
FNDA:0,_RNvMs6d_NtNtCs6ewEfsi5izM_10balatro_rs5joker6compatNtB6_15Jokers_SlyJoker19___pymethod_get__0__
FNDA:0,_RNvMs6i_NtNtCs6ewEfsi5izM_10balatro_rs5joker6compatNtB6_16Jokers_WilyJoker19___pymethod_get__0__
FNDA:0,_RNvMs6n_NtNtCs6ewEfsi5izM_10balatro_rs5joker6compatNtB6_18Jokers_CleverJoker19___pymethod_get__0__
FNDA:0,_RNvMs6s_NtNtCs6ewEfsi5izM_10balatro_rs5joker6compatNtB6_19Jokers_DeviousJoker19___pymethod_get__0__
FNDA:0,_RNvMs6x_NtNtCs6ewEfsi5izM_10balatro_rs5joker6compatNtB6_18Jokers_CraftyJoker19___pymethod_get__0__
FNDA:5,_RNvXs1S_NtNtCs6ewEfsi5izM_10balatro_rs5joker6compatNtB6_9ZanyJokerNtB6_5Joker4cost
FNDA:10,_RNvXs1S_NtNtCs6ewEfsi5izM_10balatro_rs5joker6compatNtB6_9ZanyJokerNtB6_5Joker6rarity
FNDA:2,_RNvXs1g_NtNtCs6ewEfsi5izM_10balatro_rs5joker6compatNtB6_15GluttonousJokerNtB6_5Joker4cost
FNDA:10,_RNvXs1g_NtNtCs6ewEfsi5izM_10balatro_rs5joker6compatNtB6_15GluttonousJokerNtB6_5Joker6rarity
FNDA:2,_RNvXs1z_NtNtCs6ewEfsi5izM_10balatro_rs5joker6compatNtB6_10JollyJokerNtB6_5Joker4cost
FNDA:10,_RNvXs1z_NtNtCs6ewEfsi5izM_10balatro_rs5joker6compatNtB6_10JollyJokerNtB6_5Joker6rarity
FNDA:2,_RNvXs2N_NtNtCs6ewEfsi5izM_10balatro_rs5joker6compatNtB6_10DrollJokerNtB6_5Joker4cost
FNDA:10,_RNvXs2N_NtNtCs6ewEfsi5izM_10balatro_rs5joker6compatNtB6_10DrollJokerNtB6_5Joker6rarity
FNDA:13,_RNvXs2_NtNtCs6ewEfsi5izM_10balatro_rs5joker6compatNtB5_8TheJokerNtB5_5Joker4cost
FNDA:10,_RNvXs2_NtNtCs6ewEfsi5izM_10balatro_rs5joker6compatNtB5_8TheJokerNtB5_5Joker6rarity
FNDA:2,_RNvXs2b_NtNtCs6ewEfsi5izM_10balatro_rs5joker6compatNtB6_8MadJokerNtB6_5Joker4cost
FNDA:10,_RNvXs2b_NtNtCs6ewEfsi5izM_10balatro_rs5joker6compatNtB6_8MadJokerNtB6_5Joker6rarity
FNDA:2,_RNvXs2u_NtNtCs6ewEfsi5izM_10balatro_rs5joker6compatNtB6_10CrazyJokerNtB6_5Joker4cost
FNDA:10,_RNvXs2u_NtNtCs6ewEfsi5izM_10balatro_rs5joker6compatNtB6_10CrazyJokerNtB6_5Joker6rarity
FNDA:2,_RNvXs36_NtNtCs6ewEfsi5izM_10balatro_rs5joker6compatNtB6_8SlyJokerNtB6_5Joker4cost
FNDA:10,_RNvXs36_NtNtCs6ewEfsi5izM_10balatro_rs5joker6compatNtB6_8SlyJokerNtB6_5Joker6rarity
FNDA:2,_RNvXs3I_NtNtCs6ewEfsi5izM_10balatro_rs5joker6compatNtB6_11CleverJokerNtB6_5Joker4cost
FNDA:10,_RNvXs3I_NtNtCs6ewEfsi5izM_10balatro_rs5joker6compatNtB6_11CleverJokerNtB6_5Joker6rarity
FNDA:2,_RNvXs3p_NtNtCs6ewEfsi5izM_10balatro_rs5joker6compatNtB6_9WilyJokerNtB6_5Joker4cost
FNDA:10,_RNvXs3p_NtNtCs6ewEfsi5izM_10balatro_rs5joker6compatNtB6_9WilyJokerNtB6_5Joker6rarity
FNDA:2,_RNvXs41_NtNtCs6ewEfsi5izM_10balatro_rs5joker6compatNtB6_12DeviousJokerNtB6_5Joker4cost
FNDA:10,_RNvXs41_NtNtCs6ewEfsi5izM_10balatro_rs5joker6compatNtB6_12DeviousJokerNtB6_5Joker6rarity
FNDA:60,_RNvXs4V_NtNtCs6ewEfsi5izM_10balatro_rs5joker6compatNtB6_6JokersNtB6_5Joker4cost
FNDA:160,_RNvXs4V_NtNtCs6ewEfsi5izM_10balatro_rs5joker6compatNtB6_6JokersNtB6_5Joker6rarity
FNDA:2,_RNvXs4k_NtNtCs6ewEfsi5izM_10balatro_rs5joker6compatNtB6_11CraftyJokerNtB6_5Joker4cost
FNDA:10,_RNvXs4k_NtNtCs6ewEfsi5izM_10balatro_rs5joker6compatNtB6_11CraftyJokerNtB6_5Joker6rarity
FNDA:2,_RNvXsE_NtNtCs6ewEfsi5izM_10balatro_rs5joker6compatNtB5_10LustyJokerNtB5_5Joker4cost
FNDA:10,_RNvXsE_NtNtCs6ewEfsi5izM_10balatro_rs5joker6compatNtB5_10LustyJokerNtB5_5Joker6rarity
FNDA:2,_RNvXsX_NtNtCs6ewEfsi5izM_10balatro_rs5joker6compatNtB5_13WrathfulJokerNtB5_5Joker4cost
FNDA:10,_RNvXsX_NtNtCs6ewEfsi5izM_10balatro_rs5joker6compatNtB5_13WrathfulJokerNtB5_5Joker6rarity
FNDA:15,_RNvXs_NtNtCs6ewEfsi5izM_10balatro_rs5joker6compatNtB4_13IceCreamJokerNtB4_5Joker4cost
FNDA:5,_RNvXs_NtNtCs6ewEfsi5izM_10balatro_rs5joker6compatNtB4_13IceCreamJokerNtB4_5Joker4desc
FNDA:1,_RNvXs_NtNtCs6ewEfsi5izM_10balatro_rs5joker6compatNtB4_13IceCreamJokerNtB4_5Joker4name
FNDA:11,_RNvXs_NtNtCs6ewEfsi5izM_10balatro_rs5joker6compatNtB4_13IceCreamJokerNtB4_5Joker6rarity
FNDA:4,_RNvXsl_NtNtCs6ewEfsi5izM_10balatro_rs5joker6compatNtB5_11GreedyJokerNtB5_5Joker4cost
FNDA:10,_RNvXsl_NtNtCs6ewEfsi5izM_10balatro_rs5joker6compatNtB5_11GreedyJokerNtB5_5Joker6rarity
FNDA:20,_RNvNtNtNtCs6ewEfsi5izM_10balatro_rs5joker6compat5tests24score_before_after_joker
FNDA:4,_RNvNtNtNtCs6ewEfsi5izM_10balatro_rs5joker6compat5tests39score_before_after_ice_cream_with_chips
FNDA:1,_RNvNtNtNtCs6ewEfsi5izM_10balatro_rs5joker6compat5testss_14test_mad_joker
FNDA:1,_RNvNtNtNtCs6ewEfsi5izM_10balatro_rs5joker6compat5testss_14test_sly_joker
FNDA:1,_RNvNtNtNtCs6ewEfsi5izM_10balatro_rs5joker6compat5testss_14test_the_joker
FNDA:1,_RNvNtNtNtCs6ewEfsi5izM_10balatro_rs5joker6compat5testss_15test_wily_joker
FNDA:1,_RNvNtNtNtCs6ewEfsi5izM_10balatro_rs5joker6compat5testss_15test_zany_joker
FNDA:1,_RNvNtNtNtCs6ewEfsi5izM_10balatro_rs5joker6compat5testss_16test_crazy_joker
FNDA:1,_RNvNtNtNtCs6ewEfsi5izM_10balatro_rs5joker6compat5testss_16test_droll_joker
FNDA:1,_RNvNtNtNtCs6ewEfsi5izM_10balatro_rs5joker6compat5testss_16test_jolly_joker
FNDA:1,_RNvNtNtNtCs6ewEfsi5izM_10balatro_rs5joker6compat5testss_16test_lusty_joker
FNDA:1,_RNvNtNtNtCs6ewEfsi5izM_10balatro_rs5joker6compat5testss_17test_clever_joker
FNDA:1,_RNvNtNtNtCs6ewEfsi5izM_10balatro_rs5joker6compat5testss_17test_crafty_joker
FNDA:1,_RNvNtNtNtCs6ewEfsi5izM_10balatro_rs5joker6compat5testss_17test_greedy_joker
FNDA:1,_RNvNtNtNtCs6ewEfsi5izM_10balatro_rs5joker6compat5testss_18test_devious_joker
FNDA:1,_RNvNtNtNtCs6ewEfsi5izM_10balatro_rs5joker6compat5testss_19test_wrathful_joker
FNDA:1,_RNvNtNtNtCs6ewEfsi5izM_10balatro_rs5joker6compat5testss_21test_gluttonous_joker
FNDA:1,_RNvNtNtNtCs6ewEfsi5izM_10balatro_rs5joker6compat5testss_37test_issue_85_ice_cream_initial_state
FNDA:1,_RNvNtNtNtCs6ewEfsi5izM_10balatro_rs5joker6compat5testss_39test_issue_85_ice_cream_decay_mechanics
FNDA:1,_RNvNtNtNtCs6ewEfsi5izM_10balatro_rs5joker6compat5testss_45test_issue_87_basic_joker_acceptance_criteria
FNDA:1,_RNvNtNtNtCs6ewEfsi5izM_10balatro_rs5joker6compat5testss_49test_issue_85_ice_cream_negative_chips_protection
FNDA:1,_RNvNtNtNtCs6ewEfsi5izM_10balatro_rs5joker6compat5testss_52test_issue_85_ice_cream_integration_with_other_hands
FNDA:1,_RNvNtNtNtCs6ewEfsi5izM_10balatro_rs5joker6compat5testss_58test_issue_85_ice_cream_scoring_with_different_chip_values
FNDA:4,_RNCNvNtNtNtCs6ewEfsi5izM_10balatro_rs5joker6compat5tests39score_before_after_ice_cream_with_chips0B9_
FNDA:0,_RNvMNtNtCsfztrlbScSWy_10balatro_rs5joker6compatNtB2_13IceCreamJoker12is_destroyed
FNDA:0,_RNvMNtNtCsfztrlbScSWy_10balatro_rs5joker6compatNtB2_13IceCreamJoker3new
FNDA:0,_RNvMNtNtCsfztrlbScSWy_10balatro_rs5joker6compatNtB2_13IceCreamJoker5decay
FNDA:0,_RNvMs0_NtNtCsfztrlbScSWy_10balatro_rs5joker6compatNtB5_6Jokers11to_joker_id
FNDA:0,_RNvMs0_NtNtCsfztrlbScSWy_10balatro_rs5joker6compatNtB5_6Jokers16matches_joker_id
FNDA:0,_RNvMs0_NtNtCsfztrlbScSWy_10balatro_rs5joker6compatNtB5_6Jokers9by_rarity
FNDA:0,_RNvMs5E_NtNtCsfztrlbScSWy_10balatro_rs5joker6compatNtB6_20Jokers_WrathfulJoker19___pymethod_get__0__
FNDA:0,_RNvMs5J_NtNtCsfztrlbScSWy_10balatro_rs5joker6compatNtB6_22Jokers_GluttonousJoker19___pymethod_get__0__
FNDA:0,_RNvMs5O_NtNtCsfztrlbScSWy_10balatro_rs5joker6compatNtB6_17Jokers_JollyJoker19___pymethod_get__0__
FNDA:0,_RNvMs5T_NtNtCsfztrlbScSWy_10balatro_rs5joker6compatNtB6_16Jokers_ZanyJoker19___pymethod_get__0__
FNDA:0,_RNvMs5Y_NtNtCsfztrlbScSWy_10balatro_rs5joker6compatNtB6_15Jokers_MadJoker19___pymethod_get__0__
FNDA:0,_RNvMs5p_NtNtCsfztrlbScSWy_10balatro_rs5joker6compatNtB6_15Jokers_TheJoker19___pymethod_get__0__
FNDA:0,_RNvMs5u_NtNtCsfztrlbScSWy_10balatro_rs5joker6compatNtB6_18Jokers_GreedyJoker19___pymethod_get__0__
FNDA:0,_RNvMs5z_NtNtCsfztrlbScSWy_10balatro_rs5joker6compatNtB6_17Jokers_LustyJoker19___pymethod_get__0__
FNDA:0,_RNvMs63_NtNtCsfztrlbScSWy_10balatro_rs5joker6compatNtB6_17Jokers_CrazyJoker19___pymethod_get__0__
FNDA:0,_RNvMs68_NtNtCsfztrlbScSWy_10balatro_rs5joker6compatNtB6_17Jokers_DrollJoker19___pymethod_get__0__
FNDA:0,_RNvMs6C_NtNtCsfztrlbScSWy_10balatro_rs5joker6compatNtB6_20Jokers_IceCreamJoker19___pymethod_get__0__
FNDA:0,_RNvMs6d_NtNtCsfztrlbScSWy_10balatro_rs5joker6compatNtB6_15Jokers_SlyJoker19___pymethod_get__0__
FNDA:0,_RNvMs6i_NtNtCsfztrlbScSWy_10balatro_rs5joker6compatNtB6_16Jokers_WilyJoker19___pymethod_get__0__
FNDA:0,_RNvMs6n_NtNtCsfztrlbScSWy_10balatro_rs5joker6compatNtB6_18Jokers_CleverJoker19___pymethod_get__0__
FNDA:0,_RNvMs6s_NtNtCsfztrlbScSWy_10balatro_rs5joker6compatNtB6_19Jokers_DeviousJoker19___pymethod_get__0__
FNDA:0,_RNvMs6x_NtNtCsfztrlbScSWy_10balatro_rs5joker6compatNtB6_18Jokers_CraftyJoker19___pymethod_get__0__
FNDA:0,_RNvXs1S_NtNtCsfztrlbScSWy_10balatro_rs5joker6compatNtB6_9ZanyJokerNtB6_5Joker10categories
FNDA:0,_RNvXs1S_NtNtCsfztrlbScSWy_10balatro_rs5joker6compatNtB6_9ZanyJokerNtB6_5Joker4cost
FNDA:0,_RNvXs1S_NtNtCsfztrlbScSWy_10balatro_rs5joker6compatNtB6_9ZanyJokerNtB6_5Joker4desc
FNDA:0,_RNvXs1S_NtNtCsfztrlbScSWy_10balatro_rs5joker6compatNtB6_9ZanyJokerNtB6_5Joker4name
FNDA:0,_RNvXs1S_NtNtCsfztrlbScSWy_10balatro_rs5joker6compatNtB6_9ZanyJokerNtB6_5Joker6rarity
FNDA:0,_RNvXs1S_NtNtCsfztrlbScSWy_10balatro_rs5joker6compatNtB6_9ZanyJokerNtB6_5Joker7effects
FNDA:0,_RNvXs1_NtNtCsfztrlbScSWy_10balatro_rs5joker6compatNtB5_6JokersNtNtCs1p5UDGgVI4d_4core3fmt7Display3fmt
FNDA:0,_RNvXs1g_NtNtCsfztrlbScSWy_10balatro_rs5joker6compatNtB6_15GluttonousJokerNtB6_5Joker10categories
FNDA:0,_RNvXs1g_NtNtCsfztrlbScSWy_10balatro_rs5joker6compatNtB6_15GluttonousJokerNtB6_5Joker4cost
FNDA:0,_RNvXs1g_NtNtCsfztrlbScSWy_10balatro_rs5joker6compatNtB6_15GluttonousJokerNtB6_5Joker4desc
FNDA:0,_RNvXs1g_NtNtCsfztrlbScSWy_10balatro_rs5joker6compatNtB6_15GluttonousJokerNtB6_5Joker4name
FNDA:0,_RNvXs1g_NtNtCsfztrlbScSWy_10balatro_rs5joker6compatNtB6_15GluttonousJokerNtB6_5Joker6rarity
FNDA:0,_RNvXs1g_NtNtCsfztrlbScSWy_10balatro_rs5joker6compatNtB6_15GluttonousJokerNtB6_5Joker7effects
FNDA:0,_RNvXs1z_NtNtCsfztrlbScSWy_10balatro_rs5joker6compatNtB6_10JollyJokerNtB6_5Joker10categories
FNDA:0,_RNvXs1z_NtNtCsfztrlbScSWy_10balatro_rs5joker6compatNtB6_10JollyJokerNtB6_5Joker4cost
FNDA:0,_RNvXs1z_NtNtCsfztrlbScSWy_10balatro_rs5joker6compatNtB6_10JollyJokerNtB6_5Joker4desc
FNDA:0,_RNvXs1z_NtNtCsfztrlbScSWy_10balatro_rs5joker6compatNtB6_10JollyJokerNtB6_5Joker4name
FNDA:0,_RNvXs1z_NtNtCsfztrlbScSWy_10balatro_rs5joker6compatNtB6_10JollyJokerNtB6_5Joker6rarity
FNDA:0,_RNvXs1z_NtNtCsfztrlbScSWy_10balatro_rs5joker6compatNtB6_10JollyJokerNtB6_5Joker7effects
FNDA:0,_RNvXs2N_NtNtCsfztrlbScSWy_10balatro_rs5joker6compatNtB6_10DrollJokerNtB6_5Joker10categories
FNDA:0,_RNvXs2N_NtNtCsfztrlbScSWy_10balatro_rs5joker6compatNtB6_10DrollJokerNtB6_5Joker4cost
FNDA:0,_RNvXs2N_NtNtCsfztrlbScSWy_10balatro_rs5joker6compatNtB6_10DrollJokerNtB6_5Joker4desc
FNDA:0,_RNvXs2N_NtNtCsfztrlbScSWy_10balatro_rs5joker6compatNtB6_10DrollJokerNtB6_5Joker4name
FNDA:0,_RNvXs2N_NtNtCsfztrlbScSWy_10balatro_rs5joker6compatNtB6_10DrollJokerNtB6_5Joker6rarity
FNDA:0,_RNvXs2N_NtNtCsfztrlbScSWy_10balatro_rs5joker6compatNtB6_10DrollJokerNtB6_5Joker7effects
FNDA:0,_RNvXs2_NtNtCsfztrlbScSWy_10balatro_rs5joker6compatNtB5_8TheJokerNtB5_5Joker10categories
FNDA:0,_RNvXs2_NtNtCsfztrlbScSWy_10balatro_rs5joker6compatNtB5_8TheJokerNtB5_5Joker4cost
FNDA:0,_RNvXs2_NtNtCsfztrlbScSWy_10balatro_rs5joker6compatNtB5_8TheJokerNtB5_5Joker4desc
FNDA:0,_RNvXs2_NtNtCsfztrlbScSWy_10balatro_rs5joker6compatNtB5_8TheJokerNtB5_5Joker4name
FNDA:0,_RNvXs2_NtNtCsfztrlbScSWy_10balatro_rs5joker6compatNtB5_8TheJokerNtB5_5Joker6rarity
FNDA:0,_RNvXs2_NtNtCsfztrlbScSWy_10balatro_rs5joker6compatNtB5_8TheJokerNtB5_5Joker7effects
FNDA:0,_RNvXs2b_NtNtCsfztrlbScSWy_10balatro_rs5joker6compatNtB6_8MadJokerNtB6_5Joker10categories
FNDA:0,_RNvXs2b_NtNtCsfztrlbScSWy_10balatro_rs5joker6compatNtB6_8MadJokerNtB6_5Joker4cost
FNDA:0,_RNvXs2b_NtNtCsfztrlbScSWy_10balatro_rs5joker6compatNtB6_8MadJokerNtB6_5Joker4desc
FNDA:0,_RNvXs2b_NtNtCsfztrlbScSWy_10balatro_rs5joker6compatNtB6_8MadJokerNtB6_5Joker4name
FNDA:0,_RNvXs2b_NtNtCsfztrlbScSWy_10balatro_rs5joker6compatNtB6_8MadJokerNtB6_5Joker6rarity
FNDA:0,_RNvXs2b_NtNtCsfztrlbScSWy_10balatro_rs5joker6compatNtB6_8MadJokerNtB6_5Joker7effects
FNDA:0,_RNvXs2u_NtNtCsfztrlbScSWy_10balatro_rs5joker6compatNtB6_10CrazyJokerNtB6_5Joker10categories
FNDA:0,_RNvXs2u_NtNtCsfztrlbScSWy_10balatro_rs5joker6compatNtB6_10CrazyJokerNtB6_5Joker4cost
FNDA:0,_RNvXs2u_NtNtCsfztrlbScSWy_10balatro_rs5joker6compatNtB6_10CrazyJokerNtB6_5Joker4desc
FNDA:0,_RNvXs2u_NtNtCsfztrlbScSWy_10balatro_rs5joker6compatNtB6_10CrazyJokerNtB6_5Joker4name
FNDA:0,_RNvXs2u_NtNtCsfztrlbScSWy_10balatro_rs5joker6compatNtB6_10CrazyJokerNtB6_5Joker6rarity
FNDA:0,_RNvXs2u_NtNtCsfztrlbScSWy_10balatro_rs5joker6compatNtB6_10CrazyJokerNtB6_5Joker7effects
FNDA:0,_RNvXs36_NtNtCsfztrlbScSWy_10balatro_rs5joker6compatNtB6_8SlyJokerNtB6_5Joker10categories
FNDA:0,_RNvXs36_NtNtCsfztrlbScSWy_10balatro_rs5joker6compatNtB6_8SlyJokerNtB6_5Joker4cost
FNDA:0,_RNvXs36_NtNtCsfztrlbScSWy_10balatro_rs5joker6compatNtB6_8SlyJokerNtB6_5Joker4desc
FNDA:0,_RNvXs36_NtNtCsfztrlbScSWy_10balatro_rs5joker6compatNtB6_8SlyJokerNtB6_5Joker4name
FNDA:0,_RNvXs36_NtNtCsfztrlbScSWy_10balatro_rs5joker6compatNtB6_8SlyJokerNtB6_5Joker6rarity
FNDA:0,_RNvXs36_NtNtCsfztrlbScSWy_10balatro_rs5joker6compatNtB6_8SlyJokerNtB6_5Joker7effects
FNDA:0,_RNvXs3I_NtNtCsfztrlbScSWy_10balatro_rs5joker6compatNtB6_11CleverJokerNtB6_5Joker10categories
FNDA:0,_RNvXs3I_NtNtCsfztrlbScSWy_10balatro_rs5joker6compatNtB6_11CleverJokerNtB6_5Joker4cost
FNDA:0,_RNvXs3I_NtNtCsfztrlbScSWy_10balatro_rs5joker6compatNtB6_11CleverJokerNtB6_5Joker4desc
FNDA:0,_RNvXs3I_NtNtCsfztrlbScSWy_10balatro_rs5joker6compatNtB6_11CleverJokerNtB6_5Joker4name
FNDA:0,_RNvXs3I_NtNtCsfztrlbScSWy_10balatro_rs5joker6compatNtB6_11CleverJokerNtB6_5Joker6rarity
FNDA:0,_RNvXs3I_NtNtCsfztrlbScSWy_10balatro_rs5joker6compatNtB6_11CleverJokerNtB6_5Joker7effects
FNDA:0,_RNvXs3p_NtNtCsfztrlbScSWy_10balatro_rs5joker6compatNtB6_9WilyJokerNtB6_5Joker10categories
FNDA:0,_RNvXs3p_NtNtCsfztrlbScSWy_10balatro_rs5joker6compatNtB6_9WilyJokerNtB6_5Joker4cost
FNDA:0,_RNvXs3p_NtNtCsfztrlbScSWy_10balatro_rs5joker6compatNtB6_9WilyJokerNtB6_5Joker4desc
FNDA:0,_RNvXs3p_NtNtCsfztrlbScSWy_10balatro_rs5joker6compatNtB6_9WilyJokerNtB6_5Joker4name
FNDA:0,_RNvXs3p_NtNtCsfztrlbScSWy_10balatro_rs5joker6compatNtB6_9WilyJokerNtB6_5Joker6rarity
FNDA:0,_RNvXs3p_NtNtCsfztrlbScSWy_10balatro_rs5joker6compatNtB6_9WilyJokerNtB6_5Joker7effects
FNDA:0,_RNvXs41_NtNtCsfztrlbScSWy_10balatro_rs5joker6compatNtB6_12DeviousJokerNtB6_5Joker10categories
FNDA:0,_RNvXs41_NtNtCsfztrlbScSWy_10balatro_rs5joker6compatNtB6_12DeviousJokerNtB6_5Joker4cost
FNDA:0,_RNvXs41_NtNtCsfztrlbScSWy_10balatro_rs5joker6compatNtB6_12DeviousJokerNtB6_5Joker4desc
FNDA:0,_RNvXs41_NtNtCsfztrlbScSWy_10balatro_rs5joker6compatNtB6_12DeviousJokerNtB6_5Joker4name
FNDA:0,_RNvXs41_NtNtCsfztrlbScSWy_10balatro_rs5joker6compatNtB6_12DeviousJokerNtB6_5Joker6rarity
FNDA:0,_RNvXs41_NtNtCsfztrlbScSWy_10balatro_rs5joker6compatNtB6_12DeviousJokerNtB6_5Joker7effects
FNDA:0,_RNvXs4V_NtNtCsfztrlbScSWy_10balatro_rs5joker6compatNtB6_6JokersNtB6_5Joker10categories
FNDA:0,_RNvXs4V_NtNtCsfztrlbScSWy_10balatro_rs5joker6compatNtB6_6JokersNtB6_5Joker4cost
FNDA:0,_RNvXs4V_NtNtCsfztrlbScSWy_10balatro_rs5joker6compatNtB6_6JokersNtB6_5Joker4desc
FNDA:0,_RNvXs4V_NtNtCsfztrlbScSWy_10balatro_rs5joker6compatNtB6_6JokersNtB6_5Joker4name
FNDA:0,_RNvXs4V_NtNtCsfztrlbScSWy_10balatro_rs5joker6compatNtB6_6JokersNtB6_5Joker6rarity
FNDA:0,_RNvXs4V_NtNtCsfztrlbScSWy_10balatro_rs5joker6compatNtB6_6JokersNtB6_5Joker7effects
FNDA:0,_RNvXs4k_NtNtCsfztrlbScSWy_10balatro_rs5joker6compatNtB6_11CraftyJokerNtB6_5Joker10categories
FNDA:0,_RNvXs4k_NtNtCsfztrlbScSWy_10balatro_rs5joker6compatNtB6_11CraftyJokerNtB6_5Joker4cost
FNDA:0,_RNvXs4k_NtNtCsfztrlbScSWy_10balatro_rs5joker6compatNtB6_11CraftyJokerNtB6_5Joker4desc
FNDA:0,_RNvXs4k_NtNtCsfztrlbScSWy_10balatro_rs5joker6compatNtB6_11CraftyJokerNtB6_5Joker4name
FNDA:0,_RNvXs4k_NtNtCsfztrlbScSWy_10balatro_rs5joker6compatNtB6_11CraftyJokerNtB6_5Joker6rarity
FNDA:0,_RNvXs4k_NtNtCsfztrlbScSWy_10balatro_rs5joker6compatNtB6_11CraftyJokerNtB6_5Joker7effects
FNDA:0,_RNvXsE_NtNtCsfztrlbScSWy_10balatro_rs5joker6compatNtB5_10LustyJokerNtB5_5Joker10categories
FNDA:0,_RNvXsE_NtNtCsfztrlbScSWy_10balatro_rs5joker6compatNtB5_10LustyJokerNtB5_5Joker4cost
FNDA:0,_RNvXsE_NtNtCsfztrlbScSWy_10balatro_rs5joker6compatNtB5_10LustyJokerNtB5_5Joker4desc
FNDA:0,_RNvXsE_NtNtCsfztrlbScSWy_10balatro_rs5joker6compatNtB5_10LustyJokerNtB5_5Joker4name
FNDA:0,_RNvXsE_NtNtCsfztrlbScSWy_10balatro_rs5joker6compatNtB5_10LustyJokerNtB5_5Joker6rarity
FNDA:0,_RNvXsE_NtNtCsfztrlbScSWy_10balatro_rs5joker6compatNtB5_10LustyJokerNtB5_5Joker7effects
FNDA:0,_RNvXsX_NtNtCsfztrlbScSWy_10balatro_rs5joker6compatNtB5_13WrathfulJokerNtB5_5Joker10categories
FNDA:0,_RNvXsX_NtNtCsfztrlbScSWy_10balatro_rs5joker6compatNtB5_13WrathfulJokerNtB5_5Joker4cost
FNDA:0,_RNvXsX_NtNtCsfztrlbScSWy_10balatro_rs5joker6compatNtB5_13WrathfulJokerNtB5_5Joker4desc
FNDA:0,_RNvXsX_NtNtCsfztrlbScSWy_10balatro_rs5joker6compatNtB5_13WrathfulJokerNtB5_5Joker4name
FNDA:0,_RNvXsX_NtNtCsfztrlbScSWy_10balatro_rs5joker6compatNtB5_13WrathfulJokerNtB5_5Joker6rarity
FNDA:0,_RNvXsX_NtNtCsfztrlbScSWy_10balatro_rs5joker6compatNtB5_13WrathfulJokerNtB5_5Joker7effects
FNDA:0,_RNvXs_NtNtCsfztrlbScSWy_10balatro_rs5joker6compatNtB4_13IceCreamJokerNtB4_5Joker10categories
FNDA:0,_RNvXs_NtNtCsfztrlbScSWy_10balatro_rs5joker6compatNtB4_13IceCreamJokerNtB4_5Joker4cost
FNDA:0,_RNvXs_NtNtCsfztrlbScSWy_10balatro_rs5joker6compatNtB4_13IceCreamJokerNtB4_5Joker4desc
FNDA:0,_RNvXs_NtNtCsfztrlbScSWy_10balatro_rs5joker6compatNtB4_13IceCreamJokerNtB4_5Joker4name
FNDA:0,_RNvXs_NtNtCsfztrlbScSWy_10balatro_rs5joker6compatNtB4_13IceCreamJokerNtB4_5Joker6rarity
FNDA:0,_RNvXs_NtNtCsfztrlbScSWy_10balatro_rs5joker6compatNtB4_13IceCreamJokerNtB4_5Joker7effects
FNDA:0,_RNvXsl_NtNtCsfztrlbScSWy_10balatro_rs5joker6compatNtB5_11GreedyJokerNtB5_5Joker10categories
FNDA:0,_RNvXsl_NtNtCsfztrlbScSWy_10balatro_rs5joker6compatNtB5_11GreedyJokerNtB5_5Joker4cost
FNDA:0,_RNvXsl_NtNtCsfztrlbScSWy_10balatro_rs5joker6compatNtB5_11GreedyJokerNtB5_5Joker4desc
FNDA:0,_RNvXsl_NtNtCsfztrlbScSWy_10balatro_rs5joker6compatNtB5_11GreedyJokerNtB5_5Joker4name
FNDA:0,_RNvXsl_NtNtCsfztrlbScSWy_10balatro_rs5joker6compatNtB5_11GreedyJokerNtB5_5Joker6rarity
FNDA:0,_RNvXsl_NtNtCsfztrlbScSWy_10balatro_rs5joker6compatNtB5_11GreedyJokerNtB5_5Joker7effects
FNDA:0,_RNvYpNtNtNtCsfztrlbScSWy_10balatro_rs5joker6compat5Joker7effectsB9_
FNDA:0,_RINvXs0_NvXNvNtNtCsfztrlbScSWy_10balatro_rs5joker6compats2_1__NtBb_11GreedyJokerNtNtCsWuCv7H75Ac_5serde2de11Deserialize11deserializeNtB6_9___VisitorNtB1i_7Visitor9visit_mapINtNtCs9DWYcYz1PvJ_10serde_json2de9MapAccessNtNtB2P_4read7StrReadEEBf_
FNDA:0,_RINvXs0_NvXNvNtNtCsfztrlbScSWy_10balatro_rs5joker6compats5_1__NtBb_10LustyJokerNtNtCsWuCv7H75Ac_5serde2de11Deserialize11deserializeNtB6_9___VisitorNtB1h_7Visitor9visit_mapINtNtCs9DWYcYz1PvJ_10serde_json2de9MapAccessNtNtB2O_4read7StrReadEEBf_
FNDA:0,_RINvXs0_NvXNvNtNtCsfztrlbScSWy_10balatro_rs5joker6compats8_1__NtBb_13WrathfulJokerNtNtCsWuCv7H75Ac_5serde2de11Deserialize11deserializeNtB6_9___VisitorNtB1k_7Visitor9visit_mapINtNtCs9DWYcYz1PvJ_10serde_json2de9MapAccessNtNtB2R_4read7StrReadEEBf_
FNDA:0,_RINvXs0_NvXNvNtNtCsfztrlbScSWy_10balatro_rs5joker6compatsC_1__NtBb_12DeviousJokerNtNtCsWuCv7H75Ac_5serde2de11Deserialize11deserializeNtB6_9___VisitorNtB1j_7Visitor9visit_mapINtNtCs9DWYcYz1PvJ_10serde_json2de9MapAccessNtNtB2Q_4read7StrReadEEBf_
FNDA:0,_RINvXs0_NvXNvNtNtCsfztrlbScSWy_10balatro_rs5joker6compatsF_1__NtBb_11CraftyJokerNtNtCsWuCv7H75Ac_5serde2de11Deserialize11deserializeNtB6_9___VisitorNtB1i_7Visitor9visit_mapINtNtCs9DWYcYz1PvJ_10serde_json2de9MapAccessNtNtB2P_4read7StrReadEEBf_
FNDA:0,_RINvXs0_NvXNvNtNtCsfztrlbScSWy_10balatro_rs5joker6compatsI_1__NtBb_13IceCreamJokerNtNtCsWuCv7H75Ac_5serde2de11Deserialize11deserializeNtB6_9___VisitorNtB1k_7Visitor9visit_mapINtNtCs9DWYcYz1PvJ_10serde_json2de9MapAccessNtNtB2R_4read7StrReadEEBf_
FNDA:0,_RINvXs0_NvXNvNtNtCsfztrlbScSWy_10balatro_rs5joker6compatsI_1__NtBb_13IceCreamJokerNtNtCsWuCv7H75Ac_5serde2de11Deserialize11deserializeNtB6_9___VisitorNtB1k_7Visitor9visit_seqINtNtCs9DWYcYz1PvJ_10serde_json2de9SeqAccessNtNtB2R_4read7StrReadEEBf_
FNDA:0,_RINvXs0_NvXNvNtNtCsfztrlbScSWy_10balatro_rs5joker6compatsL_1__NtBb_6JokersNtNtCsWuCv7H75Ac_5serde2de11Deserialize11deserializeNtB6_9___VisitorNtB1c_7Visitor10visit_enumINtNtCs9DWYcYz1PvJ_10serde_json2de13VariantAccessNtNtB2L_4read7StrReadEEBf_
FNDA:0,_RINvXs0_NvXNvNtNtCsfztrlbScSWy_10balatro_rs5joker6compatsL_1__NtBb_6JokersNtNtCsWuCv7H75Ac_5serde2de11Deserialize11deserializeNtB6_9___VisitorNtB1c_7Visitor10visit_enumINtNtCs9DWYcYz1PvJ_10serde_json2de17UnitVariantAccessNtNtB2L_4read7StrReadEEBf_
FNDA:0,_RINvXs0_NvXNvNtNtCsfztrlbScSWy_10balatro_rs5joker6compats_1__NtBb_8TheJokerNtNtCsWuCv7H75Ac_5serde2de11Deserialize11deserializeNtB6_9___VisitorNtB1d_7Visitor9visit_mapINtNtCs9DWYcYz1PvJ_10serde_json2de9MapAccessNtNtB2K_4read7StrReadEEBf_
FNDA:0,_RINvXs0_NvXNvNtNtCsfztrlbScSWy_10balatro_rs5joker6compatsb_1__NtBb_15GluttonousJokerNtNtCsWuCv7H75Ac_5serde2de11Deserialize11deserializeNtB6_9___VisitorNtB1m_7Visitor9visit_mapINtNtCs9DWYcYz1PvJ_10serde_json2de9MapAccessNtNtB2T_4read7StrReadEEBf_
FNDA:0,_RINvXs0_NvXNvNtNtCsfztrlbScSWy_10balatro_rs5joker6compatse_1__NtBb_10JollyJokerNtNtCsWuCv7H75Ac_5serde2de11Deserialize11deserializeNtB6_9___VisitorNtB1h_7Visitor9visit_mapINtNtCs9DWYcYz1PvJ_10serde_json2de9MapAccessNtNtB2O_4read7StrReadEEBf_
FNDA:0,_RINvXs0_NvXNvNtNtCsfztrlbScSWy_10balatro_rs5joker6compatsh_1__NtBb_9ZanyJokerNtNtCsWuCv7H75Ac_5serde2de11Deserialize11deserializeNtB6_9___VisitorNtB1f_7Visitor9visit_mapINtNtCs9DWYcYz1PvJ_10serde_json2de9MapAccessNtNtB2M_4read7StrReadEEBf_
FNDA:0,_RINvXs0_NvXNvNtNtCsfztrlbScSWy_10balatro_rs5joker6compatsk_1__NtBb_8MadJokerNtNtCsWuCv7H75Ac_5serde2de11Deserialize11deserializeNtB6_9___VisitorNtB1e_7Visitor9visit_mapINtNtCs9DWYcYz1PvJ_10serde_json2de9MapAccessNtNtB2L_4read7StrReadEEBf_
FNDA:0,_RINvXs0_NvXNvNtNtCsfztrlbScSWy_10balatro_rs5joker6compatsn_1__NtBb_10CrazyJokerNtNtCsWuCv7H75Ac_5serde2de11Deserialize11deserializeNtB6_9___VisitorNtB1h_7Visitor9visit_mapINtNtCs9DWYcYz1PvJ_10serde_json2de9MapAccessNtNtB2O_4read7StrReadEEBf_
FNDA:0,_RINvXs0_NvXNvNtNtCsfztrlbScSWy_10balatro_rs5joker6compatsq_1__NtBb_10DrollJokerNtNtCsWuCv7H75Ac_5serde2de11Deserialize11deserializeNtB6_9___VisitorNtB1h_7Visitor9visit_mapINtNtCs9DWYcYz1PvJ_10serde_json2de9MapAccessNtNtB2O_4read7StrReadEEBf_
FNDA:0,_RINvXs0_NvXNvNtNtCsfztrlbScSWy_10balatro_rs5joker6compatst_1__NtBb_8SlyJokerNtNtCsWuCv7H75Ac_5serde2de11Deserialize11deserializeNtB6_9___VisitorNtB1e_7Visitor9visit_mapINtNtCs9DWYcYz1PvJ_10serde_json2de9MapAccessNtNtB2L_4read7StrReadEEBf_
FNDA:0,_RINvXs0_NvXNvNtNtCsfztrlbScSWy_10balatro_rs5joker6compatsw_1__NtBb_9WilyJokerNtNtCsWuCv7H75Ac_5serde2de11Deserialize11deserializeNtB6_9___VisitorNtB1f_7Visitor9visit_mapINtNtCs9DWYcYz1PvJ_10serde_json2de9MapAccessNtNtB2M_4read7StrReadEEBf_
FNDA:0,_RINvXs0_NvXNvNtNtCsfztrlbScSWy_10balatro_rs5joker6compatsz_1__NtBb_11CleverJokerNtNtCsWuCv7H75Ac_5serde2de11Deserialize11deserializeNtB6_9___VisitorNtB1i_7Visitor9visit_mapINtNtCs9DWYcYz1PvJ_10serde_json2de9MapAccessNtNtB2P_4read7StrReadEEBf_
FNDA:0,_RNCNvMs0_NtNtCsfztrlbScSWy_10balatro_rs5joker6compatNtB7_6Jokers9by_rarity0Bb_
FNF:55
FNH:39
DA:16,0
DA:19,0
DA:20,0
DA:26,0
DA:31,0
DA:32,0
DA:33,0
DA:34,0
DA:35,0
DA:36,0
DA:37,0
DA:38,0
DA:39,46
DA:40,46
DA:41,46
DA:42,46
DA:43,150
DA:44,150
DA:45,150
DA:46,150
DA:47,0
DA:48,0
DA:49,0
DA:50,0
DA:53,0
DA:54,0
DA:225,0
DA:233,13
DA:234,13
DA:235,13
DA:236,13
DA:237,13
DA:239,21
DA:240,21
DA:241,21
DA:243,4
DA:244,4
DA:245,4
DA:249,1
DA:250,1
DA:251,1
DA:253,5
DA:254,5
DA:255,5
DA:256,5
DA:258,5
DA:260,15
DA:261,15
DA:262,15
DA:264,11
DA:265,11
DA:266,11
DA:268,0
DA:269,0
DA:270,0
DA:272,0
DA:275,0
DA:276,0
DA:282,0
DA:283,0
DA:292,0
DA:293,0
DA:295,0
DA:298,0
DA:299,0
DA:300,0
DA:302,0
DA:305,0
DA:306,60
DA:307,60
DA:309,13
DA:312,60
DA:313,160
DA:314,160
DA:316,10
DA:319,160
DA:320,0
DA:321,0
DA:323,0
DA:326,0
DA:327,0
DA:330,0
DA:331,0
DA:357,10
DA:358,160
DA:359,10
DA:362,25
DA:364,25
DA:365,3
DA:366,1
DA:367,1
DA:368,1
DA:369,1
DA:370,1
DA:371,2
DA:372,1
DA:373,1
DA:374,1
DA:375,1
DA:376,1
DA:377,1
DA:378,1
DA:379,1
DA:380,7
DA:382,25
DA:385,12
DA:387,2
DA:388,12
DA:406,12
DA:410,0
DA:411,0
DA:412,0
DA:413,0
DA:414,0
DA:415,0
DA:416,0
DA:417,0
DA:419,0
DA:433,20
DA:434,20
DA:435,20
DA:438,20
DA:439,20
DA:442,20
DA:443,20
DA:444,20
DA:445,20
DA:446,20
DA:448,20
DA:449,20
DA:450,20
DA:452,4
DA:453,4
DA:454,4
DA:455,4
DA:456,4
DA:457,4
DA:458,4
DA:459,4
DA:462,4
DA:463,4
DA:466,4
DA:467,4
DA:468,4
DA:469,4
DA:470,4
DA:471,4
DA:474,4
DA:475,4
DA:476,4
DA:477,4
DA:478,4
DA:479,4
DA:481,4
DA:483,4
DA:484,4
DA:485,4
DA:488,1
DA:489,1
DA:490,1
DA:496,1
DA:502,1
DA:504,1
DA:505,1
DA:506,1
DA:509,1
DA:510,1
DA:511,1
DA:512,1
DA:513,1
DA:519,1
DA:525,1
DA:527,1
DA:528,1
DA:529,1
DA:532,1
DA:533,1
DA:534,1
DA:535,1
DA:541,1
DA:547,1
DA:549,1
DA:550,1
DA:551,1
DA:554,1
DA:555,1
DA:556,1
DA:557,1
DA:563,1
DA:569,1
DA:571,1
DA:572,1
DA:573,1
DA:576,1
DA:577,1
DA:578,1
DA:584,1
DA:590,1
DA:592,1
DA:593,1
DA:594,1
DA:597,1
DA:598,1
DA:599,1
DA:605,1
DA:611,1
DA:613,1
DA:614,1
DA:615,1
DA:618,1
DA:619,1
DA:620,1
DA:626,1
DA:632,1
DA:634,1
DA:635,1
DA:636,1
DA:639,1
DA:640,1
DA:641,1
DA:642,1
DA:648,1
DA:649,1
DA:655,1
DA:657,1
DA:658,1
DA:661,1
DA:662,1
DA:663,1
DA:664,1
DA:665,1
DA:666,1
DA:667,1
DA:673,1
DA:679,1
DA:681,1
DA:682,1
DA:683,1
DA:686,1
DA:687,1
DA:688,1
DA:689,1
DA:690,1
DA:691,1
DA:692,1
DA:698,1
DA:704,1
DA:706,1
DA:707,1
DA:708,1
DA:711,1
DA:712,1
DA:713,1
DA:719,1
DA:725,1
DA:727,1
DA:728,1
DA:729,1
DA:732,1
DA:733,1
DA:734,1
DA:740,1
DA:746,1
DA:748,1
DA:749,1
DA:750,1
DA:753,1
DA:754,1
DA:755,1
DA:756,1
DA:762,1
DA:768,1
DA:770,1
DA:771,1
DA:772,1
DA:775,1
DA:776,1
DA:777,1
DA:778,1
DA:779,1
DA:780,1
DA:781,1
DA:787,1
DA:793,1
DA:795,1
DA:796,1
DA:797,1
DA:800,1
DA:801,1
DA:802,1
DA:803,1
DA:804,1
DA:805,1
DA:806,1
DA:812,1
DA:818,1
DA:819,1
DA:820,1
DA:821,1
DA:831,1
DA:833,1
DA:834,1
DA:835,1
DA:836,1
DA:837,1
DA:838,1
DA:839,1
DA:842,1
DA:843,1
DA:848,1
DA:850,1
DA:852,1
DA:853,1
DA:854,1
DA:857,1
DA:859,1
DA:862,1
DA:863,1
DA:866,1
DA:867,1
DA:868,1
DA:869,1
DA:872,20
DA:873,19
DA:874,19
DA:875,1
DA:876,1
DA:877,1
DA:880,1
DA:881,1
DA:882,1
DA:883,1
DA:884,1
DA:887,1
DA:889,1
DA:890,1
DA:895,1
DA:899,1
DA:900,1
DA:904,1
DA:905,1
DA:909,1
DA:910,1
DA:911,1
DA:914,1
DA:917,1
DA:918,1
DA:923,1
DA:925,1
DA:928,1
DA:929,1
DA:932,1
DA:936,1
DA:937,1
DA:938,1
DA:943,1
DA:945,1
DA:947,1
DA:948,1
DA:951,1
DA:952,1
DA:953,1
DA:954,1
DA:955,1
DA:956,1
DA:958,1
DA:963,1
DA:965,1
DA:967,1
DA:968,1
DA:969,1
DA:978,1
DA:980,1
DA:981,1
DA:986,1
DA:988,1
DA:990,1
DA:991,1
DA:994,1
DA:995,1
DA:996,1
DA:1001,1
DA:1003,1
DA:1005,1
DA:1008,1
DA:1009,1
DA:1010,1
DA:1011,0
DA:1014,1
DA:1015,1
DA:1016,1
DA:1017,1
DA:1018,1
DA:1019,1
DA:1022,1
DA:1023,1
DA:1024,1
DA:1025,0
DA:1029,1
DA:1030,1
DA:1031,1
DA:1032,0
DA:1034,1
BRF:0
BRH:0
LF:405
LH:351
end_of_record
SF:/home/spduncan/balatro-rs-ws/fix-issue-184-cicd-pipeline/core/src/joker/conditional.rs
FN:236,_RINvXs0_NvXNvNtNtCs6ewEfsi5izM_10balatro_rs5joker11conditionals1_1__NtBb_16ConditionalJokerNtNtCsWuCv7H75Ac_5serde2de11Deserialize11deserializeNtB6_9___VisitorNtB1t_7Visitor9visit_mappEBf_
FN:236,_RINvXs0_NvXNvNtNtCs6ewEfsi5izM_10balatro_rs5joker11conditionals1_1__NtBb_16ConditionalJokerNtNtCsWuCv7H75Ac_5serde2de11Deserialize11deserializeNtB6_9___VisitorNtB1t_7Visitor9visit_seqpEBf_
FN:9,_RINvXs0_NvXNvNtNtCs6ewEfsi5izM_10balatro_rs5joker11conditionals_1__NtBb_14JokerConditionNtNtCsWuCv7H75Ac_5serde2de11Deserialize11deserializeNtB6_9___VisitorNtB1q_7Visitor10visit_enumpEBf_
FN:220,_RNCNvMs_NtNtCs6ewEfsi5izM_10balatro_rs5joker11conditionalNtB6_14JokerCondition17evaluate_for_card0Ba_
FN:223,_RNCNvMs_NtNtCs6ewEfsi5izM_10balatro_rs5joker11conditionalNtB6_14JokerCondition17evaluate_for_cards_0Ba_
FN:155,_RNCNvMs_NtNtCs6ewEfsi5izM_10balatro_rs5joker11conditionalNtB6_14JokerCondition18evaluate_with_hand0Ba_
FN:157,_RNCNvMs_NtNtCs6ewEfsi5izM_10balatro_rs5joker11conditionalNtB6_14JokerCondition18evaluate_with_hands0_0Ba_
FN:164,_RNCNvMs_NtNtCs6ewEfsi5izM_10balatro_rs5joker11conditionalNtB6_14JokerCondition18evaluate_with_hands1_0Ba_
FN:173,_RNCNvMs_NtNtCs6ewEfsi5izM_10balatro_rs5joker11conditionalNtB6_14JokerCondition18evaluate_with_hands2_0Ba_
FN:183,_RNCNvMs_NtNtCs6ewEfsi5izM_10balatro_rs5joker11conditionalNtB6_14JokerCondition18evaluate_with_hands3_0Ba_
FN:184,_RNCNvMs_NtNtCs6ewEfsi5izM_10balatro_rs5joker11conditionalNtB6_14JokerCondition18evaluate_with_hands4_0Ba_
FN:190,_RNCNvMs_NtNtCs6ewEfsi5izM_10balatro_rs5joker11conditionalNtB6_14JokerCondition18evaluate_with_hands5_0Ba_
FN:193,_RNCNvMs_NtNtCs6ewEfsi5izM_10balatro_rs5joker11conditionalNtB6_14JokerCondition18evaluate_with_hands6_0Ba_
FN:156,_RNCNvMs_NtNtCs6ewEfsi5izM_10balatro_rs5joker11conditionalNtB6_14JokerCondition18evaluate_with_hands_0Ba_
FN:124,_RNCNvMs_NtNtCs6ewEfsi5izM_10balatro_rs5joker11conditionalNtB6_14JokerCondition8evaluate0Ba_
FN:125,_RNCNvMs_NtNtCs6ewEfsi5izM_10balatro_rs5joker11conditionalNtB6_14JokerCondition8evaluates_0Ba_
FN:532,_RNvMNtNtNtCs6ewEfsi5izM_10balatro_rs5joker11conditional5testsNtB2_15MockGameContext3new
FN:213,_RNvMs_NtNtCs6ewEfsi5izM_10balatro_rs5joker11conditionalNtB4_14JokerCondition17evaluate_for_card
FN:145,_RNvMs_NtNtCs6ewEfsi5izM_10balatro_rs5joker11conditionalNtB4_14JokerCondition18evaluate_with_hand
FN:80,_RNvMs_NtNtCs6ewEfsi5izM_10balatro_rs5joker11conditionalNtB4_14JokerCondition8evaluate
FN:422,_RNvXs1_NtNtCs6ewEfsi5izM_10balatro_rs5joker11conditionalNtB5_16ConditionalJokerNtB7_5Joker10on_discard
FN:374,_RNvXs1_NtNtCs6ewEfsi5izM_10balatro_rs5joker11conditionalNtB5_16ConditionalJokerNtB7_5Joker11description
FN:430,_RNvXs1_NtNtCs6ewEfsi5izM_10balatro_rs5joker11conditionalNtB5_16ConditionalJokerNtB7_5Joker12on_round_end
FN:414,_RNvXs1_NtNtCs6ewEfsi5izM_10balatro_rs5joker11conditionalNtB5_16ConditionalJokerNtB7_5Joker12on_shop_open
FN:406,_RNvXs1_NtNtCs6ewEfsi5izM_10balatro_rs5joker11conditionalNtB5_16ConditionalJokerNtB7_5Joker14on_blind_start
FN:394,_RNvXs1_NtNtCs6ewEfsi5izM_10balatro_rs5joker11conditionalNtB5_16ConditionalJokerNtB7_5Joker14on_card_scored
FN:386,_RNvXs1_NtNtCs6ewEfsi5izM_10balatro_rs5joker11conditionalNtB5_16ConditionalJokerNtB7_5Joker14on_hand_played
FN:810,_RNCNvNtNtNtCs6ewEfsi5izM_10balatro_rs5joker11conditional5testss_36test_hand_properties_without_context0B9_
FN:818,_RNCNvNtNtNtCs6ewEfsi5izM_10balatro_rs5joker11conditional5testss_36test_hand_properties_without_contexts0_0B9_
FN:814,_RNCNvNtNtNtCs6ewEfsi5izM_10balatro_rs5joker11conditional5testss_36test_hand_properties_without_contexts_0B9_
FN:655,_RNCNvNtNtNtCs6ewEfsi5izM_10balatro_rs5joker11conditional5testss_40test_hand_condition_evaluation_with_hand0B9_
FN:665,_RNCNvNtNtNtCs6ewEfsi5izM_10balatro_rs5joker11conditional5testss_40test_hand_condition_evaluation_with_hands0_0B9_
FN:669,_RNCNvNtNtNtCs6ewEfsi5izM_10balatro_rs5joker11conditional5testss_40test_hand_condition_evaluation_with_hands1_0B9_
FN:675,_RNCNvNtNtNtCs6ewEfsi5izM_10balatro_rs5joker11conditional5testss_40test_hand_condition_evaluation_with_hands2_0B9_
FN:679,_RNCNvNtNtNtCs6ewEfsi5izM_10balatro_rs5joker11conditional5testss_40test_hand_condition_evaluation_with_hands3_0B9_
FN:659,_RNCNvNtNtNtCs6ewEfsi5izM_10balatro_rs5joker11conditional5testss_40test_hand_condition_evaluation_with_hands_0B9_
FN:541,_RNvNtNtNtCs6ewEfsi5izM_10balatro_rs5joker11conditional5tests27test_money_condition_simple
FN:444,_RNvNtNtNtCs6ewEfsi5izM_10balatro_rs5joker11conditional5testss_21test_money_conditions
FN:505,_RNvNtNtNtCs6ewEfsi5izM_10balatro_rs5joker11conditional5testss_22test_conditional_joker
FN:822,_RNvNtNtNtCs6ewEfsi5izM_10balatro_rs5joker11conditional5testss_27test_card_evaluation_simple
FN:566,_RNvNtNtNtCs6ewEfsi5izM_10balatro_rs5joker11conditional5testss_28test_always_condition_simple
FN:748,_RNvNtNtNtCs6ewEfsi5izM_10balatro_rs5joker11conditional5testss_29test_edge_cases_and_structure
FN:464,_RNvNtNtNtCs6ewEfsi5izM_10balatro_rs5joker11conditional5testss_31test_hand_conditions_formatting
FN:683,_RNvNtNtNtCs6ewEfsi5izM_10balatro_rs5joker11conditional5testss_36test_card_condition_evaluation_logic
FN:480,_RNvNtNtNtCs6ewEfsi5izM_10balatro_rs5joker11conditional5testss_36test_composite_conditions_formatting
FN:777,_RNvNtNtNtCs6ewEfsi5izM_10balatro_rs5joker11conditional5testss_36test_hand_properties_without_context
FN:844,_RNvNtNtNtCs6ewEfsi5izM_10balatro_rs5joker11conditional5testss_38test_conditional_joker_builder_pattern
FN:575,_RNvNtNtNtCs6ewEfsi5izM_10balatro_rs5joker11conditional5testss_38test_hand_specific_conditions_behavior
FN:551,_RNvNtNtNtCs6ewEfsi5izM_10balatro_rs5joker11conditional5testss_38test_money_condition_evaluation_simple
FN:620,_RNvNtNtNtCs6ewEfsi5izM_10balatro_rs5joker11conditional5testss_40test_hand_condition_evaluation_with_hand
FN:594,_RNvNtNtNtCs6ewEfsi5izM_10balatro_rs5joker11conditional5testss_43test_composite_conditions_evaluation_simple
FN:714,_RNvNtNtNtCs6ewEfsi5izM_10balatro_rs5joker11conditional5testss_55test_conditional_joker_construction_and_builder_pattern
FN:359,_RNvMs0_NtNtCs6ewEfsi5izM_10balatro_rs5joker11conditionalNtB5_16ConditionalJoker16with_card_effect
FN:331,_RNvMs0_NtNtCs6ewEfsi5izM_10balatro_rs5joker11conditionalNtB5_16ConditionalJoker9with_cost
FN:44,_RNvXNtNtCs6ewEfsi5izM_10balatro_rs5joker11conditionalNtB2_14JokerConditionNtNtCs1p5UDGgVI4d_4core3fmt5Debug3fmt
FN:366,_RNvXs1_NtNtCs6ewEfsi5izM_10balatro_rs5joker11conditionalNtB5_16ConditionalJokerNtB7_5Joker2id
FN:382,_RNvXs1_NtNtCs6ewEfsi5izM_10balatro_rs5joker11conditionalNtB5_16ConditionalJokerNtB7_5Joker4cost
FN:370,_RNvXs1_NtNtCs6ewEfsi5izM_10balatro_rs5joker11conditionalNtB5_16ConditionalJokerNtB7_5Joker4name
FN:378,_RNvXs1_NtNtCs6ewEfsi5izM_10balatro_rs5joker11conditionalNtB5_16ConditionalJokerNtB7_5Joker6rarity
FN:283,_RINvMs0_NtNtCs6ewEfsi5izM_10balatro_rs5joker11conditionalNtB6_16ConditionalJoker3newReB1k_EBa_
FN:236,_RINvXs0_NvXNvNtNtCsfztrlbScSWy_10balatro_rs5joker11conditionals1_1__NtBb_16ConditionalJokerNtNtCsWuCv7H75Ac_5serde2de11Deserialize11deserializeNtB6_9___VisitorNtB1t_7Visitor9visit_mappEBf_
FN:236,_RINvXs0_NvXNvNtNtCsfztrlbScSWy_10balatro_rs5joker11conditionals1_1__NtBb_16ConditionalJokerNtNtCsWuCv7H75Ac_5serde2de11Deserialize11deserializeNtB6_9___VisitorNtB1t_7Visitor9visit_seqpEBf_
FN:9,_RINvXs0_NvXNvNtNtCsfztrlbScSWy_10balatro_rs5joker11conditionals_1__NtBb_14JokerConditionNtNtCsWuCv7H75Ac_5serde2de11Deserialize11deserializeNtB6_9___VisitorNtB1q_7Visitor10visit_enumpEBf_
FN:359,_RNvMs0_NtNtCsfztrlbScSWy_10balatro_rs5joker11conditionalNtB5_16ConditionalJoker16with_card_effect
FN:331,_RNvMs0_NtNtCsfztrlbScSWy_10balatro_rs5joker11conditionalNtB5_16ConditionalJoker9with_cost
FN:213,_RNvMs_NtNtCsfztrlbScSWy_10balatro_rs5joker11conditionalNtB4_14JokerCondition17evaluate_for_card
FN:145,_RNvMs_NtNtCsfztrlbScSWy_10balatro_rs5joker11conditionalNtB4_14JokerCondition18evaluate_with_hand
FN:80,_RNvMs_NtNtCsfztrlbScSWy_10balatro_rs5joker11conditionalNtB4_14JokerCondition8evaluate
FN:44,_RNvXNtNtCsfztrlbScSWy_10balatro_rs5joker11conditionalNtB2_14JokerConditionNtNtCs1p5UDGgVI4d_4core3fmt5Debug3fmt
FN:422,_RNvXs1_NtNtCsfztrlbScSWy_10balatro_rs5joker11conditionalNtB5_16ConditionalJokerNtB7_5Joker10on_discard
FN:374,_RNvXs1_NtNtCsfztrlbScSWy_10balatro_rs5joker11conditionalNtB5_16ConditionalJokerNtB7_5Joker11description
FN:430,_RNvXs1_NtNtCsfztrlbScSWy_10balatro_rs5joker11conditionalNtB5_16ConditionalJokerNtB7_5Joker12on_round_end
FN:414,_RNvXs1_NtNtCsfztrlbScSWy_10balatro_rs5joker11conditionalNtB5_16ConditionalJokerNtB7_5Joker12on_shop_open
FN:406,_RNvXs1_NtNtCsfztrlbScSWy_10balatro_rs5joker11conditionalNtB5_16ConditionalJokerNtB7_5Joker14on_blind_start
FN:394,_RNvXs1_NtNtCsfztrlbScSWy_10balatro_rs5joker11conditionalNtB5_16ConditionalJokerNtB7_5Joker14on_card_scored
FN:386,_RNvXs1_NtNtCsfztrlbScSWy_10balatro_rs5joker11conditionalNtB5_16ConditionalJokerNtB7_5Joker14on_hand_played
FN:366,_RNvXs1_NtNtCsfztrlbScSWy_10balatro_rs5joker11conditionalNtB5_16ConditionalJokerNtB7_5Joker2id
FN:382,_RNvXs1_NtNtCsfztrlbScSWy_10balatro_rs5joker11conditionalNtB5_16ConditionalJokerNtB7_5Joker4cost
FN:370,_RNvXs1_NtNtCsfztrlbScSWy_10balatro_rs5joker11conditionalNtB5_16ConditionalJokerNtB7_5Joker4name
FN:378,_RNvXs1_NtNtCsfztrlbScSWy_10balatro_rs5joker11conditionalNtB5_16ConditionalJokerNtB7_5Joker6rarity
FN:283,_RINvMs0_NtNtCsfztrlbScSWy_10balatro_rs5joker11conditionalNtB6_16ConditionalJoker3newReB1k_EBa_
FN:220,_RNCNvMs_NtNtCsfztrlbScSWy_10balatro_rs5joker11conditionalNtB6_14JokerCondition17evaluate_for_card0Ba_
FN:223,_RNCNvMs_NtNtCsfztrlbScSWy_10balatro_rs5joker11conditionalNtB6_14JokerCondition17evaluate_for_cards_0Ba_
FN:155,_RNCNvMs_NtNtCsfztrlbScSWy_10balatro_rs5joker11conditionalNtB6_14JokerCondition18evaluate_with_hand0Ba_
FN:157,_RNCNvMs_NtNtCsfztrlbScSWy_10balatro_rs5joker11conditionalNtB6_14JokerCondition18evaluate_with_hands0_0Ba_
FN:164,_RNCNvMs_NtNtCsfztrlbScSWy_10balatro_rs5joker11conditionalNtB6_14JokerCondition18evaluate_with_hands1_0Ba_
FN:173,_RNCNvMs_NtNtCsfztrlbScSWy_10balatro_rs5joker11conditionalNtB6_14JokerCondition18evaluate_with_hands2_0Ba_
FN:183,_RNCNvMs_NtNtCsfztrlbScSWy_10balatro_rs5joker11conditionalNtB6_14JokerCondition18evaluate_with_hands3_0Ba_
FN:184,_RNCNvMs_NtNtCsfztrlbScSWy_10balatro_rs5joker11conditionalNtB6_14JokerCondition18evaluate_with_hands4_0Ba_
FN:190,_RNCNvMs_NtNtCsfztrlbScSWy_10balatro_rs5joker11conditionalNtB6_14JokerCondition18evaluate_with_hands5_0Ba_
FN:193,_RNCNvMs_NtNtCsfztrlbScSWy_10balatro_rs5joker11conditionalNtB6_14JokerCondition18evaluate_with_hands6_0Ba_
FN:156,_RNCNvMs_NtNtCsfztrlbScSWy_10balatro_rs5joker11conditionalNtB6_14JokerCondition18evaluate_with_hands_0Ba_
FN:124,_RNCNvMs_NtNtCsfztrlbScSWy_10balatro_rs5joker11conditionalNtB6_14JokerCondition8evaluate0Ba_
FN:125,_RNCNvMs_NtNtCsfztrlbScSWy_10balatro_rs5joker11conditionalNtB6_14JokerCondition8evaluates_0Ba_
FNDA:0,_RINvXs0_NvXNvNtNtCs6ewEfsi5izM_10balatro_rs5joker11conditionals1_1__NtBb_16ConditionalJokerNtNtCsWuCv7H75Ac_5serde2de11Deserialize11deserializeNtB6_9___VisitorNtB1t_7Visitor9visit_mappEBf_
FNDA:0,_RINvXs0_NvXNvNtNtCs6ewEfsi5izM_10balatro_rs5joker11conditionals1_1__NtBb_16ConditionalJokerNtNtCsWuCv7H75Ac_5serde2de11Deserialize11deserializeNtB6_9___VisitorNtB1t_7Visitor9visit_seqpEBf_
FNDA:0,_RINvXs0_NvXNvNtNtCs6ewEfsi5izM_10balatro_rs5joker11conditionals_1__NtBb_14JokerConditionNtNtCsWuCv7H75Ac_5serde2de11Deserialize11deserializeNtB6_9___VisitorNtB1q_7Visitor10visit_enumpEBf_
FNDA:0,_RNCNvMs_NtNtCs6ewEfsi5izM_10balatro_rs5joker11conditionalNtB6_14JokerCondition17evaluate_for_card0Ba_
FNDA:0,_RNCNvMs_NtNtCs6ewEfsi5izM_10balatro_rs5joker11conditionalNtB6_14JokerCondition17evaluate_for_cards_0Ba_
FNDA:0,_RNCNvMs_NtNtCs6ewEfsi5izM_10balatro_rs5joker11conditionalNtB6_14JokerCondition18evaluate_with_hand0Ba_
FNDA:0,_RNCNvMs_NtNtCs6ewEfsi5izM_10balatro_rs5joker11conditionalNtB6_14JokerCondition18evaluate_with_hands0_0Ba_
FNDA:0,_RNCNvMs_NtNtCs6ewEfsi5izM_10balatro_rs5joker11conditionalNtB6_14JokerCondition18evaluate_with_hands1_0Ba_
FNDA:0,_RNCNvMs_NtNtCs6ewEfsi5izM_10balatro_rs5joker11conditionalNtB6_14JokerCondition18evaluate_with_hands2_0Ba_
FNDA:0,_RNCNvMs_NtNtCs6ewEfsi5izM_10balatro_rs5joker11conditionalNtB6_14JokerCondition18evaluate_with_hands3_0Ba_
FNDA:0,_RNCNvMs_NtNtCs6ewEfsi5izM_10balatro_rs5joker11conditionalNtB6_14JokerCondition18evaluate_with_hands4_0Ba_
FNDA:0,_RNCNvMs_NtNtCs6ewEfsi5izM_10balatro_rs5joker11conditionalNtB6_14JokerCondition18evaluate_with_hands5_0Ba_
FNDA:0,_RNCNvMs_NtNtCs6ewEfsi5izM_10balatro_rs5joker11conditionalNtB6_14JokerCondition18evaluate_with_hands6_0Ba_
FNDA:0,_RNCNvMs_NtNtCs6ewEfsi5izM_10balatro_rs5joker11conditionalNtB6_14JokerCondition18evaluate_with_hands_0Ba_
FNDA:0,_RNCNvMs_NtNtCs6ewEfsi5izM_10balatro_rs5joker11conditionalNtB6_14JokerCondition8evaluate0Ba_
FNDA:0,_RNCNvMs_NtNtCs6ewEfsi5izM_10balatro_rs5joker11conditionalNtB6_14JokerCondition8evaluates_0Ba_
FNDA:0,_RNvMNtNtNtCs6ewEfsi5izM_10balatro_rs5joker11conditional5testsNtB2_15MockGameContext3new
FNDA:0,_RNvMs_NtNtCs6ewEfsi5izM_10balatro_rs5joker11conditionalNtB4_14JokerCondition17evaluate_for_card
FNDA:0,_RNvMs_NtNtCs6ewEfsi5izM_10balatro_rs5joker11conditionalNtB4_14JokerCondition18evaluate_with_hand
FNDA:0,_RNvMs_NtNtCs6ewEfsi5izM_10balatro_rs5joker11conditionalNtB4_14JokerCondition8evaluate
FNDA:0,_RNvXs1_NtNtCs6ewEfsi5izM_10balatro_rs5joker11conditionalNtB5_16ConditionalJokerNtB7_5Joker10on_discard
FNDA:0,_RNvXs1_NtNtCs6ewEfsi5izM_10balatro_rs5joker11conditionalNtB5_16ConditionalJokerNtB7_5Joker11description
FNDA:0,_RNvXs1_NtNtCs6ewEfsi5izM_10balatro_rs5joker11conditionalNtB5_16ConditionalJokerNtB7_5Joker12on_round_end
FNDA:0,_RNvXs1_NtNtCs6ewEfsi5izM_10balatro_rs5joker11conditionalNtB5_16ConditionalJokerNtB7_5Joker12on_shop_open
FNDA:0,_RNvXs1_NtNtCs6ewEfsi5izM_10balatro_rs5joker11conditionalNtB5_16ConditionalJokerNtB7_5Joker14on_blind_start
FNDA:0,_RNvXs1_NtNtCs6ewEfsi5izM_10balatro_rs5joker11conditionalNtB5_16ConditionalJokerNtB7_5Joker14on_card_scored
FNDA:0,_RNvXs1_NtNtCs6ewEfsi5izM_10balatro_rs5joker11conditionalNtB5_16ConditionalJokerNtB7_5Joker14on_hand_played
FNDA:1,_RNCNvNtNtNtCs6ewEfsi5izM_10balatro_rs5joker11conditional5testss_36test_hand_properties_without_context0B9_
FNDA:3,_RNCNvNtNtNtCs6ewEfsi5izM_10balatro_rs5joker11conditional5testss_36test_hand_properties_without_contexts0_0B9_
FNDA:1,_RNCNvNtNtNtCs6ewEfsi5izM_10balatro_rs5joker11conditional5testss_36test_hand_properties_without_contexts_0B9_
FNDA:1,_RNCNvNtNtNtCs6ewEfsi5izM_10balatro_rs5joker11conditional5testss_40test_hand_condition_evaluation_with_hand0B9_
FNDA:1,_RNCNvNtNtNtCs6ewEfsi5izM_10balatro_rs5joker11conditional5testss_40test_hand_condition_evaluation_with_hands0_0B9_
FNDA:3,_RNCNvNtNtNtCs6ewEfsi5izM_10balatro_rs5joker11conditional5testss_40test_hand_condition_evaluation_with_hands1_0B9_
FNDA:1,_RNCNvNtNtNtCs6ewEfsi5izM_10balatro_rs5joker11conditional5testss_40test_hand_condition_evaluation_with_hands2_0B9_
FNDA:3,_RNCNvNtNtNtCs6ewEfsi5izM_10balatro_rs5joker11conditional5testss_40test_hand_condition_evaluation_with_hands3_0B9_
FNDA:3,_RNCNvNtNtNtCs6ewEfsi5izM_10balatro_rs5joker11conditional5testss_40test_hand_condition_evaluation_with_hands_0B9_
FNDA:12,_RNvNtNtNtCs6ewEfsi5izM_10balatro_rs5joker11conditional5tests27test_money_condition_simple
FNDA:1,_RNvNtNtNtCs6ewEfsi5izM_10balatro_rs5joker11conditional5testss_21test_money_conditions
FNDA:1,_RNvNtNtNtCs6ewEfsi5izM_10balatro_rs5joker11conditional5testss_22test_conditional_joker
FNDA:1,_RNvNtNtNtCs6ewEfsi5izM_10balatro_rs5joker11conditional5testss_27test_card_evaluation_simple
FNDA:1,_RNvNtNtNtCs6ewEfsi5izM_10balatro_rs5joker11conditional5testss_28test_always_condition_simple
FNDA:1,_RNvNtNtNtCs6ewEfsi5izM_10balatro_rs5joker11conditional5testss_29test_edge_cases_and_structure
FNDA:1,_RNvNtNtNtCs6ewEfsi5izM_10balatro_rs5joker11conditional5testss_31test_hand_conditions_formatting
FNDA:1,_RNvNtNtNtCs6ewEfsi5izM_10balatro_rs5joker11conditional5testss_36test_card_condition_evaluation_logic
FNDA:1,_RNvNtNtNtCs6ewEfsi5izM_10balatro_rs5joker11conditional5testss_36test_composite_conditions_formatting
FNDA:1,_RNvNtNtNtCs6ewEfsi5izM_10balatro_rs5joker11conditional5testss_36test_hand_properties_without_context
FNDA:1,_RNvNtNtNtCs6ewEfsi5izM_10balatro_rs5joker11conditional5testss_38test_conditional_joker_builder_pattern
FNDA:1,_RNvNtNtNtCs6ewEfsi5izM_10balatro_rs5joker11conditional5testss_38test_hand_specific_conditions_behavior
FNDA:1,_RNvNtNtNtCs6ewEfsi5izM_10balatro_rs5joker11conditional5testss_38test_money_condition_evaluation_simple
FNDA:1,_RNvNtNtNtCs6ewEfsi5izM_10balatro_rs5joker11conditional5testss_40test_hand_condition_evaluation_with_hand
FNDA:1,_RNvNtNtNtCs6ewEfsi5izM_10balatro_rs5joker11conditional5testss_43test_composite_conditions_evaluation_simple
FNDA:1,_RNvNtNtNtCs6ewEfsi5izM_10balatro_rs5joker11conditional5testss_55test_conditional_joker_construction_and_builder_pattern
FNDA:2,_RNvMs0_NtNtCs6ewEfsi5izM_10balatro_rs5joker11conditionalNtB5_16ConditionalJoker16with_card_effect
FNDA:2,_RNvMs0_NtNtCs6ewEfsi5izM_10balatro_rs5joker11conditionalNtB5_16ConditionalJoker9with_cost
FNDA:16,_RNvXNtNtCs6ewEfsi5izM_10balatro_rs5joker11conditionalNtB2_14JokerConditionNtNtCs1p5UDGgVI4d_4core3fmt5Debug3fmt
FNDA:7,_RNvXs1_NtNtCs6ewEfsi5izM_10balatro_rs5joker11conditionalNtB5_16ConditionalJokerNtB7_5Joker2id
FNDA:9,_RNvXs1_NtNtCs6ewEfsi5izM_10balatro_rs5joker11conditionalNtB5_16ConditionalJokerNtB7_5Joker4cost
FNDA:7,_RNvXs1_NtNtCs6ewEfsi5izM_10balatro_rs5joker11conditionalNtB5_16ConditionalJokerNtB7_5Joker4name
FNDA:9,_RNvXs1_NtNtCs6ewEfsi5izM_10balatro_rs5joker11conditionalNtB5_16ConditionalJokerNtB7_5Joker6rarity
FNDA:13,_RINvMs0_NtNtCs6ewEfsi5izM_10balatro_rs5joker11conditionalNtB6_16ConditionalJoker3newReB1k_EBa_
FNDA:0,_RINvXs0_NvXNvNtNtCsfztrlbScSWy_10balatro_rs5joker11conditionals1_1__NtBb_16ConditionalJokerNtNtCsWuCv7H75Ac_5serde2de11Deserialize11deserializeNtB6_9___VisitorNtB1t_7Visitor9visit_mappEBf_
FNDA:0,_RINvXs0_NvXNvNtNtCsfztrlbScSWy_10balatro_rs5joker11conditionals1_1__NtBb_16ConditionalJokerNtNtCsWuCv7H75Ac_5serde2de11Deserialize11deserializeNtB6_9___VisitorNtB1t_7Visitor9visit_seqpEBf_
FNDA:0,_RINvXs0_NvXNvNtNtCsfztrlbScSWy_10balatro_rs5joker11conditionals_1__NtBb_14JokerConditionNtNtCsWuCv7H75Ac_5serde2de11Deserialize11deserializeNtB6_9___VisitorNtB1q_7Visitor10visit_enumpEBf_
FNDA:0,_RNvMs0_NtNtCsfztrlbScSWy_10balatro_rs5joker11conditionalNtB5_16ConditionalJoker16with_card_effect
FNDA:0,_RNvMs0_NtNtCsfztrlbScSWy_10balatro_rs5joker11conditionalNtB5_16ConditionalJoker9with_cost
FNDA:0,_RNvMs_NtNtCsfztrlbScSWy_10balatro_rs5joker11conditionalNtB4_14JokerCondition17evaluate_for_card
FNDA:0,_RNvMs_NtNtCsfztrlbScSWy_10balatro_rs5joker11conditionalNtB4_14JokerCondition18evaluate_with_hand
FNDA:0,_RNvMs_NtNtCsfztrlbScSWy_10balatro_rs5joker11conditionalNtB4_14JokerCondition8evaluate
FNDA:0,_RNvXNtNtCsfztrlbScSWy_10balatro_rs5joker11conditionalNtB2_14JokerConditionNtNtCs1p5UDGgVI4d_4core3fmt5Debug3fmt
FNDA:0,_RNvXs1_NtNtCsfztrlbScSWy_10balatro_rs5joker11conditionalNtB5_16ConditionalJokerNtB7_5Joker10on_discard
FNDA:0,_RNvXs1_NtNtCsfztrlbScSWy_10balatro_rs5joker11conditionalNtB5_16ConditionalJokerNtB7_5Joker11description
FNDA:0,_RNvXs1_NtNtCsfztrlbScSWy_10balatro_rs5joker11conditionalNtB5_16ConditionalJokerNtB7_5Joker12on_round_end
FNDA:0,_RNvXs1_NtNtCsfztrlbScSWy_10balatro_rs5joker11conditionalNtB5_16ConditionalJokerNtB7_5Joker12on_shop_open
FNDA:0,_RNvXs1_NtNtCsfztrlbScSWy_10balatro_rs5joker11conditionalNtB5_16ConditionalJokerNtB7_5Joker14on_blind_start
FNDA:0,_RNvXs1_NtNtCsfztrlbScSWy_10balatro_rs5joker11conditionalNtB5_16ConditionalJokerNtB7_5Joker14on_card_scored
FNDA:0,_RNvXs1_NtNtCsfztrlbScSWy_10balatro_rs5joker11conditionalNtB5_16ConditionalJokerNtB7_5Joker14on_hand_played
FNDA:0,_RNvXs1_NtNtCsfztrlbScSWy_10balatro_rs5joker11conditionalNtB5_16ConditionalJokerNtB7_5Joker2id
FNDA:0,_RNvXs1_NtNtCsfztrlbScSWy_10balatro_rs5joker11conditionalNtB5_16ConditionalJokerNtB7_5Joker4cost
FNDA:0,_RNvXs1_NtNtCsfztrlbScSWy_10balatro_rs5joker11conditionalNtB5_16ConditionalJokerNtB7_5Joker4name
FNDA:0,_RNvXs1_NtNtCsfztrlbScSWy_10balatro_rs5joker11conditionalNtB5_16ConditionalJokerNtB7_5Joker6rarity
FNDA:0,_RINvMs0_NtNtCsfztrlbScSWy_10balatro_rs5joker11conditionalNtB6_16ConditionalJoker3newReB1k_EBa_
FNDA:0,_RNCNvMs_NtNtCsfztrlbScSWy_10balatro_rs5joker11conditionalNtB6_14JokerCondition17evaluate_for_card0Ba_
FNDA:0,_RNCNvMs_NtNtCsfztrlbScSWy_10balatro_rs5joker11conditionalNtB6_14JokerCondition17evaluate_for_cards_0Ba_
FNDA:0,_RNCNvMs_NtNtCsfztrlbScSWy_10balatro_rs5joker11conditionalNtB6_14JokerCondition18evaluate_with_hand0Ba_
FNDA:0,_RNCNvMs_NtNtCsfztrlbScSWy_10balatro_rs5joker11conditionalNtB6_14JokerCondition18evaluate_with_hands0_0Ba_
FNDA:0,_RNCNvMs_NtNtCsfztrlbScSWy_10balatro_rs5joker11conditionalNtB6_14JokerCondition18evaluate_with_hands1_0Ba_
FNDA:0,_RNCNvMs_NtNtCsfztrlbScSWy_10balatro_rs5joker11conditionalNtB6_14JokerCondition18evaluate_with_hands2_0Ba_
FNDA:0,_RNCNvMs_NtNtCsfztrlbScSWy_10balatro_rs5joker11conditionalNtB6_14JokerCondition18evaluate_with_hands3_0Ba_
FNDA:0,_RNCNvMs_NtNtCsfztrlbScSWy_10balatro_rs5joker11conditionalNtB6_14JokerCondition18evaluate_with_hands4_0Ba_
FNDA:0,_RNCNvMs_NtNtCsfztrlbScSWy_10balatro_rs5joker11conditionalNtB6_14JokerCondition18evaluate_with_hands5_0Ba_
FNDA:0,_RNCNvMs_NtNtCsfztrlbScSWy_10balatro_rs5joker11conditionalNtB6_14JokerCondition18evaluate_with_hands6_0Ba_
FNDA:0,_RNCNvMs_NtNtCsfztrlbScSWy_10balatro_rs5joker11conditionalNtB6_14JokerCondition18evaluate_with_hands_0Ba_
FNDA:0,_RNCNvMs_NtNtCsfztrlbScSWy_10balatro_rs5joker11conditionalNtB6_14JokerCondition8evaluate0Ba_
FNDA:0,_RNCNvMs_NtNtCsfztrlbScSWy_10balatro_rs5joker11conditionalNtB6_14JokerCondition8evaluates_0Ba_
FNF:59
FNH:33
DA:9,0
DA:44,16
DA:45,16
DA:46,3
DA:47,2
DA:48,1
DA:49,2
DA:50,1
DA:51,1
DA:52,1
DA:53,0
DA:54,0
DA:55,0
DA:56,1
DA:57,1
DA:58,1
DA:59,2
DA:61,16
DA:80,0
DA:81,0
DA:82,0
DA:83,0
DA:84,0
DA:87,0
DA:92,0
DA:94,0
DA:97,0
DA:99,0
DA:102,0
DA:104,0
DA:107,0
DA:112,0
DA:117,0
DA:122,0
DA:124,0
DA:125,0
DA:126,0
DA:127,0
DA:129,0
DA:145,0
DA:146,0
DA:147,0
DA:148,0
DA:149,0
DA:151,0
DA:152,0
DA:153,0
DA:154,0
DA:155,0
DA:156,0
DA:157,0
DA:159,0
DA:160,0
DA:161,0
DA:163,0
DA:164,0
DA:168,0
DA:169,0
DA:170,0
DA:172,0
DA:173,0
DA:177,0
DA:178,0
DA:179,0
DA:181,0
DA:182,0
DA:183,0
DA:184,0
DA:185,0
DA:188,0
DA:189,0
DA:190,0
DA:191,0
DA:192,0
DA:193,0
DA:194,0
DA:195,0
DA:197,0
DA:213,0
DA:214,0
DA:215,0
DA:216,0
DA:217,0
DA:218,0
DA:219,0
DA:220,0
DA:221,0
DA:222,0
DA:223,0
DA:224,0
DA:228,0
DA:230,0
DA:232,0
DA:236,0
DA:283,13
DA:284,13
DA:285,13
DA:286,13
DA:287,13
DA:288,13
DA:289,13
DA:290,13
DA:291,13
DA:292,5
DA:293,5
DA:294,3
DA:295,0
DA:298,13
DA:299,13
DA:300,13
DA:301,13
DA:302,13
DA:303,13
DA:304,13
DA:305,13
DA:306,13
DA:307,13
DA:308,13
DA:331,2
DA:332,2
DA:333,2
DA:334,2
DA:359,2
DA:360,2
DA:361,2
DA:362,2
DA:366,7
DA:367,7
DA:368,7
DA:370,7
DA:371,7
DA:372,7
DA:374,0
DA:375,0
DA:376,0
DA:378,9
DA:379,9
DA:380,9
DA:382,9
DA:383,9
DA:384,9
DA:386,0
DA:387,0
DA:388,0
DA:390,0
DA:392,0
DA:394,0
DA:395,0
DA:396,0
DA:397,0
DA:399,0
DA:402,0
DA:404,0
DA:406,0
DA:407,0
DA:408,0
DA:410,0
DA:412,0
DA:414,0
DA:415,0
DA:416,0
DA:418,0
DA:420,0
DA:422,0
DA:423,0
DA:424,0
DA:426,0
DA:428,0
DA:430,0
DA:431,0
DA:432,0
DA:434,0
DA:436,0
DA:444,1
DA:450,1
DA:451,1
DA:454,1
DA:455,1
DA:459,1
DA:460,1
DA:461,1
DA:464,1
DA:466,1
DA:467,1
DA:468,1
DA:469,1
DA:470,1
DA:472,1
DA:473,1
DA:474,1
DA:475,1
DA:476,1
DA:477,1
DA:480,1
DA:482,1
DA:483,1
DA:484,1
DA:485,1
DA:487,1
DA:488,1
DA:489,1
DA:490,1
DA:492,1
DA:495,1
DA:496,1
DA:497,1
DA:500,1
DA:501,1
DA:502,1
DA:505,1
DA:506,1
DA:507,1
DA:510,1
DA:511,1
DA:512,1
DA:515,1
DA:516,1
DA:517,1
DA:518,1
DA:519,1
DA:532,0
DA:533,0
DA:534,0
DA:535,0
DA:536,0
DA:537,0
DA:538,0
DA:541,12
DA:542,12
DA:543,2
DA:544,2
DA:545,3
DA:546,5
DA:548,12
DA:551,1
DA:553,1
DA:555,1
DA:556,1
DA:559,1
DA:561,1
DA:562,1
DA:563,1
DA:566,1
DA:567,1
DA:569,1
DA:570,1
DA:571,1
DA:572,1
DA:575,1
DA:579,1
DA:580,1
DA:581,1
DA:582,1
DA:583,1
DA:586,1
DA:587,1
DA:588,1
DA:589,1
DA:590,1
DA:591,1
DA:594,1
DA:596,1
DA:597,1
DA:598,1
DA:599,1
DA:603,1
DA:606,1
DA:607,1
DA:608,1
DA:609,1
DA:611,1
DA:614,1
DA:616,1
DA:617,1
DA:620,1
DA:625,1
DA:626,1
DA:627,1
DA:628,1
DA:630,1
DA:632,1
DA:633,1
DA:634,1
DA:635,1
DA:637,1
DA:639,1
DA:640,1
DA:641,1
DA:642,1
DA:644,1
DA:647,1
DA:648,1
DA:649,1
DA:652,1
DA:653,1
DA:654,1
DA:655,1
DA:656,1
DA:657,1
DA:658,1
DA:659,3
DA:662,1
DA:663,1
DA:664,1
DA:665,1
DA:666,1
DA:667,1
DA:668,1
DA:669,3
DA:672,1
DA:673,1
DA:674,1
DA:675,1
DA:676,1
DA:677,1
DA:678,1
DA:679,3
DA:680,1
DA:683,1
DA:684,1
DA:685,1
DA:686,1
DA:689,1
DA:690,1
DA:691,1
DA:694,1
DA:695,1
DA:696,1
DA:699,1
DA:700,1
DA:703,1
DA:704,1
DA:707,1
DA:708,1
DA:711,1
DA:714,1
DA:716,1
DA:717,1
DA:720,1
DA:721,1
DA:722,1
DA:725,1
DA:726,1
DA:727,1
DA:728,1
DA:731,1
DA:732,1
DA:735,1
DA:736,1
DA:737,1
DA:739,1
DA:740,1
DA:742,1
DA:743,1
DA:744,1
DA:745,1
DA:748,1
DA:750,1
DA:751,1
DA:753,1
DA:754,1
DA:757,1
DA:758,1
DA:759,1
DA:760,1
DA:761,1
DA:762,1
DA:763,1
DA:765,1
DA:768,1
DA:769,1
DA:770,1
DA:772,1
DA:773,1
DA:777,1
DA:780,1
DA:781,1
DA:782,1
DA:783,1
DA:785,1
DA:787,1
DA:788,1
DA:789,1
DA:790,1
DA:792,1
DA:794,1
DA:795,1
DA:796,1
DA:797,1
DA:799,1
DA:802,1
DA:803,1
DA:804,1
DA:807,1
DA:808,1
DA:809,1
DA:810,1
DA:811,1
DA:812,1
DA:813,1
DA:814,1
DA:815,1
DA:816,1
DA:817,1
DA:818,3
DA:819,1
DA:822,1
DA:823,1
DA:824,1
DA:827,1
DA:828,1
DA:829,1
DA:830,1
DA:833,1
DA:834,1
DA:837,1
DA:838,1
DA:841,1
DA:844,1
DA:845,1
DA:846,1
DA:849,1
DA:850,1
DA:851,1
DA:853,1
DA:854,1
DA:856,1
DA:857,1
DA:858,1
DA:859,1
BRF:0
BRH:0
LF:452
LH:316
end_of_record
SF:/home/spduncan/balatro-rs-ws/fix-issue-184-cicd-pipeline/core/src/joker/hand_composition_jokers.rs
FN:52,_RNvMs_NtNtCs6ewEfsi5izM_10balatro_rs5joker23hand_composition_jokersNtB4_8DnaJoker3new
FN:126,_RNvNtNtCs6ewEfsi5izM_10balatro_rs5joker23hand_composition_jokers10create_dna
FN:24,_RNvNtNtCs6ewEfsi5izM_10balatro_rs5joker23hand_composition_jokers17create_blackboard
FN:11,_RNvNtNtCs6ewEfsi5izM_10balatro_rs5joker23hand_composition_jokers19create_ride_the_bus
FN:115,_RNvXs0_NtNtCs6ewEfsi5izM_10balatro_rs5joker23hand_composition_jokersNtB5_8DnaJokerNtB7_5Joker10on_discard
FN:72,_RNvXs0_NtNtCs6ewEfsi5izM_10balatro_rs5joker23hand_composition_jokersNtB5_8DnaJokerNtB7_5Joker11description
FN:119,_RNvXs0_NtNtCs6ewEfsi5izM_10balatro_rs5joker23hand_composition_jokersNtB5_8DnaJokerNtB7_5Joker12on_round_end
FN:111,_RNvXs0_NtNtCs6ewEfsi5izM_10balatro_rs5joker23hand_composition_jokersNtB5_8DnaJokerNtB7_5Joker12on_shop_open
FN:107,_RNvXs0_NtNtCs6ewEfsi5izM_10balatro_rs5joker23hand_composition_jokersNtB5_8DnaJokerNtB7_5Joker14on_blind_start
FN:103,_RNvXs0_NtNtCs6ewEfsi5izM_10balatro_rs5joker23hand_composition_jokersNtB5_8DnaJokerNtB7_5Joker14on_card_scored
FN:84,_RNvXs0_NtNtCs6ewEfsi5izM_10balatro_rs5joker23hand_composition_jokersNtB5_8DnaJokerNtB7_5Joker14on_hand_played
FN:64,_RNvXs0_NtNtCs6ewEfsi5izM_10balatro_rs5joker23hand_composition_jokersNtB5_8DnaJokerNtB7_5Joker2id
FN:80,_RNvXs0_NtNtCs6ewEfsi5izM_10balatro_rs5joker23hand_composition_jokersNtB5_8DnaJokerNtB7_5Joker4cost
FN:68,_RNvXs0_NtNtCs6ewEfsi5izM_10balatro_rs5joker23hand_composition_jokersNtB5_8DnaJokerNtB7_5Joker4name
FN:76,_RNvXs0_NtNtCs6ewEfsi5izM_10balatro_rs5joker23hand_composition_jokersNtB5_8DnaJokerNtB7_5Joker6rarity
FN:46,_RNvXNtNtCs6ewEfsi5izM_10balatro_rs5joker23hand_composition_jokersNtB2_8DnaJokerNtNtCs1p5UDGgVI4d_4core7default7Default7default
FN:156,_RNvNtNtNtCs6ewEfsi5izM_10balatro_rs5joker23hand_composition_jokers5testss_15test_create_dna
FN:166,_RNvNtNtNtCs6ewEfsi5izM_10balatro_rs5joker23hand_composition_jokers5testss_21test_dna_joker_direct
FN:146,_RNvNtNtNtCs6ewEfsi5izM_10balatro_rs5joker23hand_composition_jokers5testss_22test_create_blackboard
FN:136,_RNvNtNtNtCs6ewEfsi5izM_10balatro_rs5joker23hand_composition_jokers5testss_24test_create_ride_the_bus
FNDA:3,_RNvMs_NtNtCs6ewEfsi5izM_10balatro_rs5joker23hand_composition_jokersNtB4_8DnaJoker3new
FNDA:1,_RNvNtNtCs6ewEfsi5izM_10balatro_rs5joker23hand_composition_jokers10create_dna
FNDA:4,_RNvNtNtCs6ewEfsi5izM_10balatro_rs5joker23hand_composition_jokers17create_blackboard
FNDA:2,_RNvNtNtCs6ewEfsi5izM_10balatro_rs5joker23hand_composition_jokers19create_ride_the_bus
FNDA:0,_RNvXs0_NtNtCs6ewEfsi5izM_10balatro_rs5joker23hand_composition_jokersNtB5_8DnaJokerNtB7_5Joker10on_discard
FNDA:0,_RNvXs0_NtNtCs6ewEfsi5izM_10balatro_rs5joker23hand_composition_jokersNtB5_8DnaJokerNtB7_5Joker11description
FNDA:0,_RNvXs0_NtNtCs6ewEfsi5izM_10balatro_rs5joker23hand_composition_jokersNtB5_8DnaJokerNtB7_5Joker12on_round_end
FNDA:0,_RNvXs0_NtNtCs6ewEfsi5izM_10balatro_rs5joker23hand_composition_jokersNtB5_8DnaJokerNtB7_5Joker12on_shop_open
FNDA:0,_RNvXs0_NtNtCs6ewEfsi5izM_10balatro_rs5joker23hand_composition_jokersNtB5_8DnaJokerNtB7_5Joker14on_blind_start
FNDA:0,_RNvXs0_NtNtCs6ewEfsi5izM_10balatro_rs5joker23hand_composition_jokersNtB5_8DnaJokerNtB7_5Joker14on_card_scored
FNDA:0,_RNvXs0_NtNtCs6ewEfsi5izM_10balatro_rs5joker23hand_composition_jokersNtB5_8DnaJokerNtB7_5Joker14on_hand_played
FNDA:2,_RNvXs0_NtNtCs6ewEfsi5izM_10balatro_rs5joker23hand_composition_jokersNtB5_8DnaJokerNtB7_5Joker2id
FNDA:2,_RNvXs0_NtNtCs6ewEfsi5izM_10balatro_rs5joker23hand_composition_jokersNtB5_8DnaJokerNtB7_5Joker4cost
FNDA:2,_RNvXs0_NtNtCs6ewEfsi5izM_10balatro_rs5joker23hand_composition_jokersNtB5_8DnaJokerNtB7_5Joker4name
FNDA:2,_RNvXs0_NtNtCs6ewEfsi5izM_10balatro_rs5joker23hand_composition_jokersNtB5_8DnaJokerNtB7_5Joker6rarity
FNDA:0,_RNvXNtNtCs6ewEfsi5izM_10balatro_rs5joker23hand_composition_jokersNtB2_8DnaJokerNtNtCs1p5UDGgVI4d_4core7default7Default7default
FNDA:1,_RNvNtNtNtCs6ewEfsi5izM_10balatro_rs5joker23hand_composition_jokers5testss_15test_create_dna
FNDA:1,_RNvNtNtNtCs6ewEfsi5izM_10balatro_rs5joker23hand_composition_jokers5testss_21test_dna_joker_direct
FNDA:1,_RNvNtNtNtCs6ewEfsi5izM_10balatro_rs5joker23hand_composition_jokers5testss_22test_create_blackboard
FNDA:1,_RNvNtNtNtCs6ewEfsi5izM_10balatro_rs5joker23hand_composition_jokers5testss_24test_create_ride_the_bus
FNF:20
FNH:12
DA:11,2
DA:12,2
DA:13,2
DA:16,2
DA:17,2
DA:18,2
DA:20,2
DA:24,4
DA:25,4
DA:26,4
DA:29,4
DA:30,4
DA:31,4
DA:33,4
DA:46,0
DA:47,0
DA:48,0
DA:52,3
DA:53,3
DA:54,3
DA:55,3
DA:56,3
DA:57,3
DA:58,3
DA:59,3
DA:60,3
DA:64,2
DA:65,2
DA:66,2
DA:68,2
DA:69,2
DA:70,2
DA:72,0
DA:73,0
DA:74,0
DA:76,2
DA:77,2
DA:78,2
DA:80,2
DA:81,2
DA:82,2
DA:84,0
DA:86,0
DA:87,0
DA:88,0
DA:91,0
DA:94,0
DA:95,0
DA:96,0
DA:97,0
DA:99,0
DA:101,0
DA:103,0
DA:104,0
DA:105,0
DA:107,0
DA:108,0
DA:109,0
DA:111,0
DA:112,0
DA:113,0
DA:115,0
DA:116,0
DA:117,0
DA:119,0
DA:120,0
DA:121,0
DA:126,1
DA:127,1
DA:128,1
DA:136,1
DA:137,1
DA:139,1
DA:140,1
DA:141,1
DA:142,1
DA:143,1
DA:146,1
DA:147,1
DA:149,1
DA:150,1
DA:151,1
DA:152,1
DA:153,1
DA:156,1
DA:157,1
DA:159,1
DA:160,1
DA:161,1
DA:162,1
DA:163,1
DA:166,1
DA:167,1
DA:169,1
DA:170,1
DA:171,1
DA:172,1
DA:173,1
BRF:0
BRH:0
LF:98
LH:66
end_of_record
SF:/home/spduncan/balatro-rs-ws/fix-issue-184-cicd-pipeline/core/src/joker/hand_composition_tests.rs
FN:223,_RNvNtNtNtCs6ewEfsi5izM_10balatro_rs5joker22hand_composition_tests16blackboard_testss_34test_blackboard_joker_construction
FN:196,_RNvNtNtNtCs6ewEfsi5izM_10balatro_rs5joker22hand_composition_tests16blackboard_testss_40test_blackboard_hand_analysis_empty_hand
FN:166,_RNvNtNtNtCs6ewEfsi5izM_10balatro_rs5joker22hand_composition_tests16blackboard_testss_41test_blackboard_hand_analysis_mixed_cards
FN:144,_RNvNtNtNtCs6ewEfsi5izM_10balatro_rs5joker22hand_composition_tests16blackboard_testss_43test_blackboard_hand_analysis_all_same_rank
FN:122,_RNvNtNtNtCs6ewEfsi5izM_10balatro_rs5joker22hand_composition_tests16blackboard_testss_43test_blackboard_hand_analysis_all_same_suit
FN:469,_RNvNtNtNtCs6ewEfsi5izM_10balatro_rs5joker22hand_composition_tests15edge_case_testss_25test_dna_joker_edge_cases
FN:518,_RNvNtNtNtCs6ewEfsi5izM_10balatro_rs5joker22hand_composition_tests15edge_case_testss_26test_large_hand_uniformity
FN:380,_RNvNtNtNtCs6ewEfsi5izM_10balatro_rs5joker22hand_composition_tests15edge_case_testss_31test_blackboard_with_edge_cases
FN:497,_RNvNtNtNtCs6ewEfsi5izM_10balatro_rs5joker22hand_composition_tests15edge_case_testss_38test_face_card_detection_comprehensive
FN:348,_RNvNtNtNtCs6ewEfsi5izM_10balatro_rs5joker22hand_composition_tests15edge_case_testss_41test_ride_the_bus_with_various_hand_sizes
FN:442,_RNvNtNtNtCs6ewEfsi5izM_10balatro_rs5joker22hand_composition_tests15edge_case_testss_45test_blackboard_all_same_rank_different_suits
FN:414,_RNvNtNtNtCs6ewEfsi5izM_10balatro_rs5joker22hand_composition_tests15edge_case_testss_45test_blackboard_all_same_suit_different_ranks
FN:213,_RNCNvNtNtNtCs6ewEfsi5izM_10balatro_rs5joker22hand_composition_tests16blackboard_testss_40test_blackboard_hand_analysis_empty_hands1_0B9_
FN:207,_RNCNvNtNtNtCs6ewEfsi5izM_10balatro_rs5joker22hand_composition_tests16blackboard_testss_40test_blackboard_hand_analysis_empty_hands_0B9_
FN:189,_RNCNvNtNtNtCs6ewEfsi5izM_10balatro_rs5joker22hand_composition_tests16blackboard_testss_41test_blackboard_hand_analysis_mixed_cardss1_0B9_
FN:182,_RNCNvNtNtNtCs6ewEfsi5izM_10balatro_rs5joker22hand_composition_tests16blackboard_testss_41test_blackboard_hand_analysis_mixed_cardss_0B9_
FN:160,_RNCNvNtNtNtCs6ewEfsi5izM_10balatro_rs5joker22hand_composition_tests16blackboard_testss_43test_blackboard_hand_analysis_all_same_ranks_0B9_
FN:138,_RNCNvNtNtNtCs6ewEfsi5izM_10balatro_rs5joker22hand_composition_tests16blackboard_testss_43test_blackboard_hand_analysis_all_same_suits_0B9_
FN:323,_RNvNtNtNtCs6ewEfsi5izM_10balatro_rs5joker22hand_composition_tests9dna_testss_25test_dna_effect_structure
FN:305,_RNvNtNtNtCs6ewEfsi5izM_10balatro_rs5joker22hand_composition_tests9dna_testss_27test_dna_joker_construction
FN:289,_RNvNtNtNtCs6ewEfsi5izM_10balatro_rs5joker22hand_composition_tests9dna_testss_31test_dna_card_duplication_logic
FN:276,_RNvNtNtNtCs6ewEfsi5izM_10balatro_rs5joker22hand_composition_tests9dna_testss_39test_dna_hand_size_condition_empty_hand
FN:246,_RNvNtNtNtCs6ewEfsi5izM_10balatro_rs5joker22hand_composition_tests9dna_testss_40test_dna_hand_size_condition_single_card
FN:259,_RNvNtNtNtCs6ewEfsi5izM_10balatro_rs5joker22hand_composition_tests9dna_testss_43test_dna_hand_size_condition_multiple_cards
FN:99,_RNvNtNtNtCs6ewEfsi5izM_10balatro_rs5joker22hand_composition_tests18ride_the_bus_testss_36test_ride_the_bus_joker_construction
FN:82,_RNvNtNtNtCs6ewEfsi5izM_10balatro_rs5joker22hand_composition_tests18ride_the_bus_testss_38test_ride_the_bus_condition_empty_hand
FN:16,_RNvNtNtNtCs6ewEfsi5izM_10balatro_rs5joker22hand_composition_tests18ride_the_bus_testss_41test_ride_the_bus_condition_no_face_cards
FN:60,_RNvNtNtNtCs6ewEfsi5izM_10balatro_rs5joker22hand_composition_tests18ride_the_bus_testss_42test_ride_the_bus_condition_all_face_cards
FN:38,_RNvNtNtNtCs6ewEfsi5izM_10balatro_rs5joker22hand_composition_tests18ride_the_bus_testss_43test_ride_the_bus_condition_with_face_cards
FN:93,_RNCNvNtNtNtCs6ewEfsi5izM_10balatro_rs5joker22hand_composition_tests18ride_the_bus_testss_38test_ride_the_bus_condition_empty_hand0B9_
FN:32,_RNCNvNtNtNtCs6ewEfsi5izM_10balatro_rs5joker22hand_composition_tests18ride_the_bus_testss_41test_ride_the_bus_condition_no_face_cards0B9_
FN:76,_RNCNvNtNtNtCs6ewEfsi5izM_10balatro_rs5joker22hand_composition_tests18ride_the_bus_testss_42test_ride_the_bus_condition_all_face_cards0B9_
FN:54,_RNCNvNtNtNtCs6ewEfsi5izM_10balatro_rs5joker22hand_composition_tests18ride_the_bus_testss_43test_ride_the_bus_condition_with_face_cards0B9_
FN:535,_RNCNvNtNtNtCs6ewEfsi5izM_10balatro_rs5joker22hand_composition_tests15edge_case_testss_26test_large_hand_uniformity0B9_
FN:554,_RNCNvNtNtNtCs6ewEfsi5izM_10balatro_rs5joker22hand_composition_tests15edge_case_testss_26test_large_hand_uniformitys0_0B9_
FN:553,_RNCNvNtNtNtCs6ewEfsi5izM_10balatro_rs5joker22hand_composition_tests15edge_case_testss_26test_large_hand_uniformitys_0B9_
FN:390,_RNCNvNtNtNtCs6ewEfsi5izM_10balatro_rs5joker22hand_composition_tests15edge_case_testss_31test_blackboard_with_edge_cases0B9_
FN:406,_RNCNvNtNtNtCs6ewEfsi5izM_10balatro_rs5joker22hand_composition_tests15edge_case_testss_31test_blackboard_with_edge_casess0_0B9_
FN:407,_RNCNvNtNtNtCs6ewEfsi5izM_10balatro_rs5joker22hand_composition_tests15edge_case_testss_31test_blackboard_with_edge_casess1_0B9_
FN:391,_RNCNvNtNtNtCs6ewEfsi5izM_10balatro_rs5joker22hand_composition_tests15edge_case_testss_31test_blackboard_with_edge_casess_0B9_
FN:359,_RNCNvNtNtNtCs6ewEfsi5izM_10balatro_rs5joker22hand_composition_tests15edge_case_testss_41test_ride_the_bus_with_various_hand_sizes0B9_
FN:375,_RNCNvNtNtNtCs6ewEfsi5izM_10balatro_rs5joker22hand_composition_tests15edge_case_testss_41test_ride_the_bus_with_various_hand_sizess_0B9_
FN:457,_RNCNvNtNtNtCs6ewEfsi5izM_10balatro_rs5joker22hand_composition_tests15edge_case_testss_45test_blackboard_all_same_rank_different_suits0B9_
FN:458,_RNCNvNtNtNtCs6ewEfsi5izM_10balatro_rs5joker22hand_composition_tests15edge_case_testss_45test_blackboard_all_same_rank_different_suitss_0B9_
FN:430,_RNCNvNtNtNtCs6ewEfsi5izM_10balatro_rs5joker22hand_composition_tests15edge_case_testss_45test_blackboard_all_same_suit_different_ranks0B9_
FN:431,_RNCNvNtNtNtCs6ewEfsi5izM_10balatro_rs5joker22hand_composition_tests15edge_case_testss_45test_blackboard_all_same_suit_different_rankss_0B9_
FNDA:1,_RNvNtNtNtCs6ewEfsi5izM_10balatro_rs5joker22hand_composition_tests16blackboard_testss_34test_blackboard_joker_construction
FNDA:1,_RNvNtNtNtCs6ewEfsi5izM_10balatro_rs5joker22hand_composition_tests16blackboard_testss_40test_blackboard_hand_analysis_empty_hand
FNDA:1,_RNvNtNtNtCs6ewEfsi5izM_10balatro_rs5joker22hand_composition_tests16blackboard_testss_41test_blackboard_hand_analysis_mixed_cards
FNDA:1,_RNvNtNtNtCs6ewEfsi5izM_10balatro_rs5joker22hand_composition_tests16blackboard_testss_43test_blackboard_hand_analysis_all_same_rank
FNDA:1,_RNvNtNtNtCs6ewEfsi5izM_10balatro_rs5joker22hand_composition_tests16blackboard_testss_43test_blackboard_hand_analysis_all_same_suit
FNDA:1,_RNvNtNtNtCs6ewEfsi5izM_10balatro_rs5joker22hand_composition_tests15edge_case_testss_25test_dna_joker_edge_cases
FNDA:1,_RNvNtNtNtCs6ewEfsi5izM_10balatro_rs5joker22hand_composition_tests15edge_case_testss_26test_large_hand_uniformity
FNDA:1,_RNvNtNtNtCs6ewEfsi5izM_10balatro_rs5joker22hand_composition_tests15edge_case_testss_31test_blackboard_with_edge_cases
FNDA:1,_RNvNtNtNtCs6ewEfsi5izM_10balatro_rs5joker22hand_composition_tests15edge_case_testss_38test_face_card_detection_comprehensive
FNDA:1,_RNvNtNtNtCs6ewEfsi5izM_10balatro_rs5joker22hand_composition_tests15edge_case_testss_41test_ride_the_bus_with_various_hand_sizes
FNDA:1,_RNvNtNtNtCs6ewEfsi5izM_10balatro_rs5joker22hand_composition_tests15edge_case_testss_45test_blackboard_all_same_rank_different_suits
FNDA:1,_RNvNtNtNtCs6ewEfsi5izM_10balatro_rs5joker22hand_composition_tests15edge_case_testss_45test_blackboard_all_same_suit_different_ranks
FNDA:0,_RNCNvNtNtNtCs6ewEfsi5izM_10balatro_rs5joker22hand_composition_tests16blackboard_testss_40test_blackboard_hand_analysis_empty_hands1_0B9_
FNDA:0,_RNCNvNtNtNtCs6ewEfsi5izM_10balatro_rs5joker22hand_composition_tests16blackboard_testss_40test_blackboard_hand_analysis_empty_hands_0B9_
FNDA:2,_RNCNvNtNtNtCs6ewEfsi5izM_10balatro_rs5joker22hand_composition_tests16blackboard_testss_41test_blackboard_hand_analysis_mixed_cardss1_0B9_
FNDA:2,_RNCNvNtNtNtCs6ewEfsi5izM_10balatro_rs5joker22hand_composition_tests16blackboard_testss_41test_blackboard_hand_analysis_mixed_cardss_0B9_
FNDA:3,_RNCNvNtNtNtCs6ewEfsi5izM_10balatro_rs5joker22hand_composition_tests16blackboard_testss_43test_blackboard_hand_analysis_all_same_ranks_0B9_
FNDA:3,_RNCNvNtNtNtCs6ewEfsi5izM_10balatro_rs5joker22hand_composition_tests16blackboard_testss_43test_blackboard_hand_analysis_all_same_suits_0B9_
FNDA:1,_RNvNtNtNtCs6ewEfsi5izM_10balatro_rs5joker22hand_composition_tests9dna_testss_25test_dna_effect_structure
FNDA:1,_RNvNtNtNtCs6ewEfsi5izM_10balatro_rs5joker22hand_composition_tests9dna_testss_27test_dna_joker_construction
FNDA:1,_RNvNtNtNtCs6ewEfsi5izM_10balatro_rs5joker22hand_composition_tests9dna_testss_31test_dna_card_duplication_logic
FNDA:1,_RNvNtNtNtCs6ewEfsi5izM_10balatro_rs5joker22hand_composition_tests9dna_testss_39test_dna_hand_size_condition_empty_hand
FNDA:1,_RNvNtNtNtCs6ewEfsi5izM_10balatro_rs5joker22hand_composition_tests9dna_testss_40test_dna_hand_size_condition_single_card
FNDA:1,_RNvNtNtNtCs6ewEfsi5izM_10balatro_rs5joker22hand_composition_tests9dna_testss_43test_dna_hand_size_condition_multiple_cards
FNDA:1,_RNvNtNtNtCs6ewEfsi5izM_10balatro_rs5joker22hand_composition_tests18ride_the_bus_testss_36test_ride_the_bus_joker_construction
FNDA:1,_RNvNtNtNtCs6ewEfsi5izM_10balatro_rs5joker22hand_composition_tests18ride_the_bus_testss_38test_ride_the_bus_condition_empty_hand
FNDA:1,_RNvNtNtNtCs6ewEfsi5izM_10balatro_rs5joker22hand_composition_tests18ride_the_bus_testss_41test_ride_the_bus_condition_no_face_cards
FNDA:1,_RNvNtNtNtCs6ewEfsi5izM_10balatro_rs5joker22hand_composition_tests18ride_the_bus_testss_42test_ride_the_bus_condition_all_face_cards
FNDA:1,_RNvNtNtNtCs6ewEfsi5izM_10balatro_rs5joker22hand_composition_tests18ride_the_bus_testss_43test_ride_the_bus_condition_with_face_cards
FNDA:0,_RNCNvNtNtNtCs6ewEfsi5izM_10balatro_rs5joker22hand_composition_tests18ride_the_bus_testss_38test_ride_the_bus_condition_empty_hand0B9_
FNDA:3,_RNCNvNtNtNtCs6ewEfsi5izM_10balatro_rs5joker22hand_composition_tests18ride_the_bus_testss_41test_ride_the_bus_condition_no_face_cards0B9_
FNDA:1,_RNCNvNtNtNtCs6ewEfsi5izM_10balatro_rs5joker22hand_composition_tests18ride_the_bus_testss_42test_ride_the_bus_condition_all_face_cards0B9_
FNDA:2,_RNCNvNtNtNtCs6ewEfsi5izM_10balatro_rs5joker22hand_composition_tests18ride_the_bus_testss_43test_ride_the_bus_condition_with_face_cards0B9_
FNDA:7,_RNCNvNtNtNtCs6ewEfsi5izM_10balatro_rs5joker22hand_composition_tests15edge_case_testss_26test_large_hand_uniformity0B9_
FNDA:2,_RNCNvNtNtNtCs6ewEfsi5izM_10balatro_rs5joker22hand_composition_tests15edge_case_testss_26test_large_hand_uniformitys0_0B9_
FNDA:2,_RNCNvNtNtNtCs6ewEfsi5izM_10balatro_rs5joker22hand_composition_tests15edge_case_testss_26test_large_hand_uniformitys_0B9_
FNDA:1,_RNCNvNtNtNtCs6ewEfsi5izM_10balatro_rs5joker22hand_composition_tests15edge_case_testss_31test_blackboard_with_edge_cases0B9_
FNDA:2,_RNCNvNtNtNtCs6ewEfsi5izM_10balatro_rs5joker22hand_composition_tests15edge_case_testss_31test_blackboard_with_edge_casess0_0B9_
FNDA:2,_RNCNvNtNtNtCs6ewEfsi5izM_10balatro_rs5joker22hand_composition_tests15edge_case_testss_31test_blackboard_with_edge_casess1_0B9_
FNDA:1,_RNCNvNtNtNtCs6ewEfsi5izM_10balatro_rs5joker22hand_composition_tests15edge_case_testss_31test_blackboard_with_edge_casess_0B9_
FNDA:1,_RNCNvNtNtNtCs6ewEfsi5izM_10balatro_rs5joker22hand_composition_tests15edge_case_testss_41test_ride_the_bus_with_various_hand_sizes0B9_
FNDA:5,_RNCNvNtNtNtCs6ewEfsi5izM_10balatro_rs5joker22hand_composition_tests15edge_case_testss_41test_ride_the_bus_with_various_hand_sizess_0B9_
FNDA:2,_RNCNvNtNtNtCs6ewEfsi5izM_10balatro_rs5joker22hand_composition_tests15edge_case_testss_45test_blackboard_all_same_rank_different_suits0B9_
FNDA:4,_RNCNvNtNtNtCs6ewEfsi5izM_10balatro_rs5joker22hand_composition_tests15edge_case_testss_45test_blackboard_all_same_rank_different_suitss_0B9_
FNDA:5,_RNCNvNtNtNtCs6ewEfsi5izM_10balatro_rs5joker22hand_composition_tests15edge_case_testss_45test_blackboard_all_same_suit_different_ranks0B9_
FNDA:2,_RNCNvNtNtNtCs6ewEfsi5izM_10balatro_rs5joker22hand_composition_tests15edge_case_testss_45test_blackboard_all_same_suit_different_rankss_0B9_
FNF:46
FNH:43
DA:16,1
DA:18,1
DA:21,1
DA:22,1
DA:23,1
DA:24,1
DA:26,1
DA:29,1
DA:30,1
DA:31,1
DA:32,3
DA:34,1
DA:35,1
DA:38,1
DA:40,1
DA:43,1
DA:44,1
DA:45,1
DA:46,1
DA:48,1
DA:51,1
DA:52,1
DA:53,1
DA:54,2
DA:56,1
DA:57,1
DA:60,1
DA:62,1
DA:65,1
DA:66,1
DA:67,1
DA:68,1
DA:70,1
DA:73,1
DA:74,1
DA:75,1
DA:76,1
DA:78,1
DA:79,1
DA:82,1
DA:84,1
DA:87,1
DA:90,1
DA:91,1
DA:92,1
DA:93,1
DA:95,1
DA:96,1
DA:99,1
DA:101,1
DA:102,1
DA:105,1
DA:106,1
DA:107,1
DA:110,1
DA:111,1
DA:112,1
DA:113,1
DA:114,1
DA:122,1
DA:126,1
DA:127,1
DA:128,1
DA:129,1
DA:131,1
DA:134,1
DA:135,1
DA:136,1
DA:137,1
DA:138,3
DA:140,1
DA:141,1
DA:144,1
DA:148,1
DA:149,1
DA:150,1
DA:151,1
DA:153,1
DA:156,1
DA:157,1
DA:158,1
DA:159,1
DA:160,3
DA:162,1
DA:163,1
DA:166,1
DA:170,1
DA:171,1
DA:172,1
DA:173,1
DA:175,1
DA:178,1
DA:179,1
DA:180,1
DA:181,1
DA:182,2
DA:185,1
DA:186,1
DA:187,1
DA:188,1
DA:189,2
DA:191,1
DA:192,1
DA:193,1
DA:196,1
DA:200,1
DA:203,1
DA:204,1
DA:205,1
DA:206,1
DA:207,1
DA:209,1
DA:210,1
DA:211,1
DA:212,1
DA:213,1
DA:216,1
DA:217,1
DA:218,1
DA:219,1
DA:220,1
DA:223,1
DA:225,1
DA:226,1
DA:229,1
DA:230,1
DA:231,1
DA:234,1
DA:235,1
DA:236,1
DA:237,1
DA:238,1
DA:246,1
DA:248,1
DA:251,1
DA:252,1
DA:255,1
DA:256,1
DA:259,1
DA:261,1
DA:264,1
DA:265,1
DA:266,1
DA:268,1
DA:271,1
DA:272,1
DA:273,1
DA:276,1
DA:278,1
DA:281,1
DA:284,1
DA:285,1
DA:286,1
DA:289,1
DA:293,1
DA:296,1
DA:299,1
DA:300,1
DA:301,1
DA:302,1
DA:305,1
DA:307,1
DA:308,1
DA:311,1
DA:312,1
DA:313,1
DA:316,1
DA:317,1
DA:318,1
DA:319,1
DA:320,1
DA:323,1
DA:326,1
DA:327,1
DA:330,1
DA:331,1
DA:333,1
DA:335,1
DA:336,1
DA:337,1
DA:338,1
DA:339,1
DA:348,1
DA:349,1
DA:352,1
DA:353,1
DA:356,1
DA:357,1
DA:358,1
DA:359,1
DA:360,1
DA:363,1
DA:364,1
DA:365,1
DA:366,1
DA:367,1
DA:368,1
DA:370,1
DA:372,1
DA:373,1
DA:374,1
DA:375,5
DA:376,1
DA:377,1
DA:380,1
DA:381,1
DA:384,1
DA:385,1
DA:387,1
DA:388,1
DA:389,1
DA:390,1
DA:391,1
DA:393,1
DA:394,1
DA:397,1
DA:398,1
DA:399,1
DA:401,1
DA:403,1
DA:404,1
DA:405,1
DA:406,2
DA:407,2
DA:409,1
DA:410,1
DA:411,1
DA:414,1
DA:415,1
DA:418,1
DA:419,1
DA:420,1
DA:421,1
DA:422,1
DA:423,1
DA:425,1
DA:427,1
DA:428,1
DA:429,1
DA:430,5
DA:431,2
DA:433,1
DA:434,1
DA:437,1
DA:438,1
DA:439,1
DA:442,1
DA:443,1
DA:446,1
DA:447,1
DA:448,1
DA:449,1
DA:450,1
DA:452,1
DA:454,1
DA:455,1
DA:456,1
DA:457,2
DA:458,4
DA:460,1
DA:461,1
DA:464,1
DA:465,1
DA:466,1
DA:469,1
DA:470,1
DA:473,1
DA:474,1
DA:477,1
DA:480,1
DA:481,1
DA:482,1
DA:483,1
DA:485,1
DA:487,1
DA:488,1
DA:491,1
DA:492,1
DA:493,1
DA:494,1
DA:497,1
DA:499,1
DA:500,1
DA:501,1
DA:503,1
DA:504,1
DA:505,1
DA:508,1
DA:509,1
DA:510,1
DA:512,1
DA:513,1
DA:514,1
DA:515,1
DA:518,1
DA:522,1
DA:523,1
DA:524,1
DA:525,1
DA:526,1
DA:527,1
DA:528,1
DA:529,1
DA:531,1
DA:533,1
DA:534,1
DA:535,7
DA:536,1
DA:539,1
DA:540,1
DA:541,1
DA:542,1
DA:543,1
DA:544,1
DA:545,1
DA:546,1
DA:548,1
DA:550,1
DA:551,1
DA:552,1
DA:553,2
DA:554,2
DA:556,1
DA:557,1
DA:558,1
BRF:0
BRH:0
LF:348
LH:345
end_of_record
SF:/home/spduncan/balatro-rs-ws/fix-issue-184-cicd-pipeline/core/src/joker/mod.rs
FN:1223,_RNvNtNtCs6ewEfsi5izM_10balatro_rs5joker5testss_23test_joker_trait_bounds
FN:195,_RINvXs0_NvXNvNtCs6ewEfsi5izM_10balatro_rs5jokers2_1__NtBb_11JokerRarityNtNtCsWuCv7H75Ac_5serde2de11Deserialize11deserializeNtB6_9___VisitorNtB19_7Visitor10visit_enumpEBd_
FN:278,_RINvXs0_NvXNvNtCs6ewEfsi5izM_10balatro_rs5jokers5_1__NtBb_11JokerEffectNtNtCsWuCv7H75Ac_5serde2de11Deserialize11deserializeNtB6_9___VisitorNtB19_7Visitor9visit_mappEBd_
FN:278,_RINvXs0_NvXNvNtCs6ewEfsi5izM_10balatro_rs5jokers5_1__NtBb_11JokerEffectNtNtCsWuCv7H75Ac_5serde2de11Deserialize11deserializeNtB6_9___VisitorNtB19_7Visitor9visit_seqpEBd_
FN:205,_RNvXNtCs6ewEfsi5izM_10balatro_rs5jokerNtB2_11JokerRarityNtNtCs1p5UDGgVI4d_4core3fmt7Display3fmt
FN:657,_RNvYpNtNtCs6ewEfsi5izM_10balatro_rs5joker5Joker4costB7_
FN:915,_RNvYNtNtCs6ewEfsi5izM_10balatro_rs12static_joker11StaticJokerNtNtB6_5joker5Joker10on_cleanupB6_
FN:827,_RNvYNtNtCs6ewEfsi5izM_10balatro_rs12static_joker11StaticJokerNtNtB6_5joker5Joker10on_createdB6_
FN:776,_RNvYNtNtCs6ewEfsi5izM_10balatro_rs12static_joker11StaticJokerNtNtB6_5joker5Joker10on_discardB6_
FN:667,_RNvYNtNtCs6ewEfsi5izM_10balatro_rs12static_joker11StaticJokerNtNtB6_5joker5Joker10sell_valueB6_
FN:959,_RNvYNtNtCs6ewEfsi5izM_10balatro_rs12static_joker11StaticJokerNtNtB6_5joker5Joker11modify_multB6_
FN:938,_RNvYNtNtCs6ewEfsi5izM_10balatro_rs12static_joker11StaticJokerNtNtB6_5joker5Joker12modify_chipsB6_
FN:856,_RNvYNtNtCs6ewEfsi5izM_10balatro_rs12static_joker11StaticJokerNtNtB6_5joker5Joker12on_activatedB6_
FN:798,_RNvYNtNtCs6ewEfsi5izM_10balatro_rs12static_joker11StaticJokerNtNtB6_5joker5Joker12on_round_endB6_
FN:761,_RNvYNtNtCs6ewEfsi5izM_10balatro_rs12static_joker11StaticJokerNtNtB6_5joker5Joker12on_shop_openB6_
FN:1178,_RNvYNtNtCs6ewEfsi5izM_10balatro_rs12static_joker11StaticJokerNtNtB6_5joker5Joker13migrate_stateB6_
FN:747,_RNvYNtNtCs6ewEfsi5izM_10balatro_rs12static_joker11StaticJokerNtNtB6_5joker5Joker14on_blind_startB6_
FN:885,_RNvYNtNtCs6ewEfsi5izM_10balatro_rs12static_joker11StaticJokerNtNtB6_5joker5Joker14on_deactivatedB6_
FN:1107,_RNvYNtNtCs6ewEfsi5izM_10balatro_rs12static_joker11StaticJokerNtNtB6_5joker5Joker14validate_stateB6_
FN:1003,_RNvYNtNtCs6ewEfsi5izM_10balatro_rs12static_joker11StaticJokerNtNtB6_5joker5Joker15modify_discardsB6_
FN:1033,_RNvYNtNtCs6ewEfsi5izM_10balatro_rs12static_joker11StaticJokerNtNtB6_5joker5Joker15serialize_stateB6_
FN:1141,_RNvYNtNtCs6ewEfsi5izM_10balatro_rs12static_joker11StaticJokerNtNtB6_5joker5Joker16initialize_stateB6_
FN:981,_RNvYNtNtCs6ewEfsi5izM_10balatro_rs12static_joker11StaticJokerNtNtB6_5joker5Joker16modify_hand_sizeB6_
FN:1070,_RNvYNtNtCs6ewEfsi5izM_10balatro_rs12static_joker11StaticJokerNtNtB6_5joker5Joker17deserialize_stateB6_
FN:15,_RINvXs0_NvXNvNtCs6ewEfsi5izM_10balatro_rs5jokers_1__NtBb_7JokerIdNtNtCsWuCv7H75Ac_5serde2de11Deserialize11deserializeNtB6_9___VisitorNtB13_7Visitor10visit_enumINtNtCs9DWYcYz1PvJ_10serde_json2de13VariantAccessNtNtB2C_4read7StrReadEEBd_
FN:15,_RINvXs0_NvXNvNtCs6ewEfsi5izM_10balatro_rs5jokers_1__NtBb_7JokerIdNtNtCsWuCv7H75Ac_5serde2de11Deserialize11deserializeNtB6_9___VisitorNtB13_7Visitor10visit_enumINtNtCs9DWYcYz1PvJ_10serde_json2de17UnitVariantAccessNtNtB2C_4read7StrReadEEBd_
FN:1184,_RNCNvYNtNtCs6ewEfsi5izM_10balatro_rs10joker_impl10CrazyJokerNtNtB8_5joker5Joker13migrate_state0B8_
FN:1184,_RNCNvYNtNtCs6ewEfsi5izM_10balatro_rs10joker_impl10DrollJokerNtNtB8_5joker5Joker13migrate_state0B8_
FN:1184,_RNCNvYNtNtCs6ewEfsi5izM_10balatro_rs10joker_impl10JollyJokerNtNtB8_5joker5Joker13migrate_state0B8_
FN:1184,_RNCNvYNtNtCs6ewEfsi5izM_10balatro_rs10joker_impl10LustyJokerNtNtB8_5joker5Joker13migrate_state0B8_
FN:1184,_RNCNvYNtNtCs6ewEfsi5izM_10balatro_rs10joker_impl10SpaceJokerNtNtB8_5joker5Joker13migrate_state0B8_
FN:1184,_RNCNvYNtNtCs6ewEfsi5izM_10balatro_rs10joker_impl11CleverJokerNtNtB8_5joker5Joker13migrate_state0B8_
FN:1184,_RNCNvYNtNtCs6ewEfsi5izM_10balatro_rs10joker_impl11CraftyJokerNtNtB8_5joker5Joker13migrate_state0B8_
FN:1184,_RNCNvYNtNtCs6ewEfsi5izM_10balatro_rs10joker_impl11GreedyJokerNtNtB8_5joker5Joker13migrate_state0B8_
FN:1184,_RNCNvYNtNtCs6ewEfsi5izM_10balatro_rs10joker_impl11RunnerJokerNtNtB8_5joker5Joker13migrate_state0B8_
FN:1184,_RNCNvYNtNtCs6ewEfsi5izM_10balatro_rs10joker_impl12BusinessCardNtNtB8_5joker5Joker13migrate_state0B8_
FN:1184,_RNCNvYNtNtCs6ewEfsi5izM_10balatro_rs10joker_impl12DeviousJokerNtNtB8_5joker5Joker13migrate_state0B8_
FN:1184,_RNCNvYNtNtCs6ewEfsi5izM_10balatro_rs10joker_impl13IceCreamJokerNtNtB8_5joker5Joker13migrate_state0B8_
FN:1184,_RNCNvYNtNtCs6ewEfsi5izM_10balatro_rs10joker_impl13WrathfulJokerNtNtB8_5joker5Joker13migrate_state0B8_
FN:1184,_RNCNvYNtNtCs6ewEfsi5izM_10balatro_rs10joker_impl14SupernovaJokerNtNtB8_5joker5Joker13migrate_state0B8_
FN:1184,_RNCNvYNtNtCs6ewEfsi5izM_10balatro_rs10joker_impl15GluttonousJokerNtNtB8_5joker5Joker13migrate_state0B8_
FN:1184,_RNCNvYNtNtCs6ewEfsi5izM_10balatro_rs10joker_impl3EggNtNtB8_5joker5Joker13migrate_state0B8_
FN:1184,_RNCNvYNtNtCs6ewEfsi5izM_10balatro_rs10joker_impl7BurglarNtNtB8_5joker5Joker13migrate_state0B8_
FN:1184,_RNCNvYNtNtCs6ewEfsi5izM_10balatro_rs10joker_impl8MadJokerNtNtB8_5joker5Joker13migrate_state0B8_
FN:1184,_RNCNvYNtNtCs6ewEfsi5izM_10balatro_rs10joker_impl8SlyJokerNtNtB8_5joker5Joker13migrate_state0B8_
FN:1184,_RNCNvYNtNtCs6ewEfsi5izM_10balatro_rs10joker_impl8TheJokerNtNtB8_5joker5Joker13migrate_state0B8_
FN:1184,_RNCNvYNtNtCs6ewEfsi5izM_10balatro_rs10joker_impl9WilyJokerNtNtB8_5joker5Joker13migrate_state0B8_
FN:1184,_RNCNvYNtNtCs6ewEfsi5izM_10balatro_rs10joker_impl9ZanyJokerNtNtB8_5joker5Joker13migrate_state0B8_
FN:1184,_RNCNvYNtNtCs6ewEfsi5izM_10balatro_rs12static_joker11StaticJokerNtNtB8_5joker5Joker13migrate_state0B8_
FN:1184,_RNCNvYNtNtNtCs6ewEfsi5izM_10balatro_rs5joker23hand_composition_jokers8DnaJokerNtB8_5Joker13migrate_state0Ba_
FN:915,_RNvYNtNtNtCs6ewEfsi5izM_10balatro_rs5joker23hand_composition_jokers8DnaJokerNtB6_5Joker10on_cleanupB8_
FN:827,_RNvYNtNtNtCs6ewEfsi5izM_10balatro_rs5joker23hand_composition_jokers8DnaJokerNtB6_5Joker10on_createdB8_
FN:667,_RNvYNtNtNtCs6ewEfsi5izM_10balatro_rs5joker23hand_composition_jokers8DnaJokerNtB6_5Joker10sell_valueB8_
FN:959,_RNvYNtNtNtCs6ewEfsi5izM_10balatro_rs5joker23hand_composition_jokers8DnaJokerNtB6_5Joker11modify_multB8_
FN:938,_RNvYNtNtNtCs6ewEfsi5izM_10balatro_rs5joker23hand_composition_jokers8DnaJokerNtB6_5Joker12modify_chipsB8_
FN:856,_RNvYNtNtNtCs6ewEfsi5izM_10balatro_rs5joker23hand_composition_jokers8DnaJokerNtB6_5Joker12on_activatedB8_
FN:1178,_RNvYNtNtNtCs6ewEfsi5izM_10balatro_rs5joker23hand_composition_jokers8DnaJokerNtB6_5Joker13migrate_stateB8_
FN:885,_RNvYNtNtNtCs6ewEfsi5izM_10balatro_rs5joker23hand_composition_jokers8DnaJokerNtB6_5Joker14on_deactivatedB8_
FN:1107,_RNvYNtNtNtCs6ewEfsi5izM_10balatro_rs5joker23hand_composition_jokers8DnaJokerNtB6_5Joker14validate_stateB8_
FN:1003,_RNvYNtNtNtCs6ewEfsi5izM_10balatro_rs5joker23hand_composition_jokers8DnaJokerNtB6_5Joker15modify_discardsB8_
FN:1033,_RNvYNtNtNtCs6ewEfsi5izM_10balatro_rs5joker23hand_composition_jokers8DnaJokerNtB6_5Joker15serialize_stateB8_
FN:1141,_RNvYNtNtNtCs6ewEfsi5izM_10balatro_rs5joker23hand_composition_jokers8DnaJokerNtB6_5Joker16initialize_stateB8_
FN:981,_RNvYNtNtNtCs6ewEfsi5izM_10balatro_rs5joker23hand_composition_jokers8DnaJokerNtB6_5Joker16modify_hand_sizeB8_
FN:1070,_RNvYNtNtNtCs6ewEfsi5izM_10balatro_rs5joker23hand_composition_jokers8DnaJokerNtB6_5Joker17deserialize_stateB8_
FN:915,_RNvYNtNtCs6ewEfsi5izM_10balatro_rs10joker_impl10CrazyJokerNtNtB6_5joker5Joker10on_cleanupB6_
FN:827,_RNvYNtNtCs6ewEfsi5izM_10balatro_rs10joker_impl10CrazyJokerNtNtB6_5joker5Joker10on_createdB6_
FN:776,_RNvYNtNtCs6ewEfsi5izM_10balatro_rs10joker_impl10CrazyJokerNtNtB6_5joker5Joker10on_discardB6_
FN:667,_RNvYNtNtCs6ewEfsi5izM_10balatro_rs10joker_impl10CrazyJokerNtNtB6_5joker5Joker10sell_valueB6_
FN:959,_RNvYNtNtCs6ewEfsi5izM_10balatro_rs10joker_impl10CrazyJokerNtNtB6_5joker5Joker11modify_multB6_
FN:938,_RNvYNtNtCs6ewEfsi5izM_10balatro_rs10joker_impl10CrazyJokerNtNtB6_5joker5Joker12modify_chipsB6_
FN:856,_RNvYNtNtCs6ewEfsi5izM_10balatro_rs10joker_impl10CrazyJokerNtNtB6_5joker5Joker12on_activatedB6_
FN:798,_RNvYNtNtCs6ewEfsi5izM_10balatro_rs10joker_impl10CrazyJokerNtNtB6_5joker5Joker12on_round_endB6_
FN:761,_RNvYNtNtCs6ewEfsi5izM_10balatro_rs10joker_impl10CrazyJokerNtNtB6_5joker5Joker12on_shop_openB6_
FN:1178,_RNvYNtNtCs6ewEfsi5izM_10balatro_rs10joker_impl10CrazyJokerNtNtB6_5joker5Joker13migrate_stateB6_
FN:747,_RNvYNtNtCs6ewEfsi5izM_10balatro_rs10joker_impl10CrazyJokerNtNtB6_5joker5Joker14on_blind_startB6_
FN:725,_RNvYNtNtCs6ewEfsi5izM_10balatro_rs10joker_impl10CrazyJokerNtNtB6_5joker5Joker14on_card_scoredB6_
FN:885,_RNvYNtNtCs6ewEfsi5izM_10balatro_rs10joker_impl10CrazyJokerNtNtB6_5joker5Joker14on_deactivatedB6_
FN:1107,_RNvYNtNtCs6ewEfsi5izM_10balatro_rs10joker_impl10CrazyJokerNtNtB6_5joker5Joker14validate_stateB6_
FN:1003,_RNvYNtNtCs6ewEfsi5izM_10balatro_rs10joker_impl10CrazyJokerNtNtB6_5joker5Joker15modify_discardsB6_
FN:1033,_RNvYNtNtCs6ewEfsi5izM_10balatro_rs10joker_impl10CrazyJokerNtNtB6_5joker5Joker15serialize_stateB6_
FN:1141,_RNvYNtNtCs6ewEfsi5izM_10balatro_rs10joker_impl10CrazyJokerNtNtB6_5joker5Joker16initialize_stateB6_
FN:981,_RNvYNtNtCs6ewEfsi5izM_10balatro_rs10joker_impl10CrazyJokerNtNtB6_5joker5Joker16modify_hand_sizeB6_
FN:1070,_RNvYNtNtCs6ewEfsi5izM_10balatro_rs10joker_impl10CrazyJokerNtNtB6_5joker5Joker17deserialize_stateB6_
FN:915,_RNvYNtNtCs6ewEfsi5izM_10balatro_rs10joker_impl10DrollJokerNtNtB6_5joker5Joker10on_cleanupB6_
FN:827,_RNvYNtNtCs6ewEfsi5izM_10balatro_rs10joker_impl10DrollJokerNtNtB6_5joker5Joker10on_createdB6_
FN:776,_RNvYNtNtCs6ewEfsi5izM_10balatro_rs10joker_impl10DrollJokerNtNtB6_5joker5Joker10on_discardB6_
FN:667,_RNvYNtNtCs6ewEfsi5izM_10balatro_rs10joker_impl10DrollJokerNtNtB6_5joker5Joker10sell_valueB6_
FN:959,_RNvYNtNtCs6ewEfsi5izM_10balatro_rs10joker_impl10DrollJokerNtNtB6_5joker5Joker11modify_multB6_
FN:938,_RNvYNtNtCs6ewEfsi5izM_10balatro_rs10joker_impl10DrollJokerNtNtB6_5joker5Joker12modify_chipsB6_
FN:856,_RNvYNtNtCs6ewEfsi5izM_10balatro_rs10joker_impl10DrollJokerNtNtB6_5joker5Joker12on_activatedB6_
FN:798,_RNvYNtNtCs6ewEfsi5izM_10balatro_rs10joker_impl10DrollJokerNtNtB6_5joker5Joker12on_round_endB6_
FN:761,_RNvYNtNtCs6ewEfsi5izM_10balatro_rs10joker_impl10DrollJokerNtNtB6_5joker5Joker12on_shop_openB6_
FN:1178,_RNvYNtNtCs6ewEfsi5izM_10balatro_rs10joker_impl10DrollJokerNtNtB6_5joker5Joker13migrate_stateB6_
FN:747,_RNvYNtNtCs6ewEfsi5izM_10balatro_rs10joker_impl10DrollJokerNtNtB6_5joker5Joker14on_blind_startB6_
FN:725,_RNvYNtNtCs6ewEfsi5izM_10balatro_rs10joker_impl10DrollJokerNtNtB6_5joker5Joker14on_card_scoredB6_
FN:885,_RNvYNtNtCs6ewEfsi5izM_10balatro_rs10joker_impl10DrollJokerNtNtB6_5joker5Joker14on_deactivatedB6_
FN:1107,_RNvYNtNtCs6ewEfsi5izM_10balatro_rs10joker_impl10DrollJokerNtNtB6_5joker5Joker14validate_stateB6_
FN:1003,_RNvYNtNtCs6ewEfsi5izM_10balatro_rs10joker_impl10DrollJokerNtNtB6_5joker5Joker15modify_discardsB6_
FN:1033,_RNvYNtNtCs6ewEfsi5izM_10balatro_rs10joker_impl10DrollJokerNtNtB6_5joker5Joker15serialize_stateB6_
FN:1141,_RNvYNtNtCs6ewEfsi5izM_10balatro_rs10joker_impl10DrollJokerNtNtB6_5joker5Joker16initialize_stateB6_
FN:981,_RNvYNtNtCs6ewEfsi5izM_10balatro_rs10joker_impl10DrollJokerNtNtB6_5joker5Joker16modify_hand_sizeB6_
FN:1070,_RNvYNtNtCs6ewEfsi5izM_10balatro_rs10joker_impl10DrollJokerNtNtB6_5joker5Joker17deserialize_stateB6_
FN:915,_RNvYNtNtCs6ewEfsi5izM_10balatro_rs10joker_impl10JollyJokerNtNtB6_5joker5Joker10on_cleanupB6_
FN:827,_RNvYNtNtCs6ewEfsi5izM_10balatro_rs10joker_impl10JollyJokerNtNtB6_5joker5Joker10on_createdB6_
FN:776,_RNvYNtNtCs6ewEfsi5izM_10balatro_rs10joker_impl10JollyJokerNtNtB6_5joker5Joker10on_discardB6_
FN:667,_RNvYNtNtCs6ewEfsi5izM_10balatro_rs10joker_impl10JollyJokerNtNtB6_5joker5Joker10sell_valueB6_
FN:959,_RNvYNtNtCs6ewEfsi5izM_10balatro_rs10joker_impl10JollyJokerNtNtB6_5joker5Joker11modify_multB6_
FN:938,_RNvYNtNtCs6ewEfsi5izM_10balatro_rs10joker_impl10JollyJokerNtNtB6_5joker5Joker12modify_chipsB6_
FN:856,_RNvYNtNtCs6ewEfsi5izM_10balatro_rs10joker_impl10JollyJokerNtNtB6_5joker5Joker12on_activatedB6_
FN:798,_RNvYNtNtCs6ewEfsi5izM_10balatro_rs10joker_impl10JollyJokerNtNtB6_5joker5Joker12on_round_endB6_
FN:761,_RNvYNtNtCs6ewEfsi5izM_10balatro_rs10joker_impl10JollyJokerNtNtB6_5joker5Joker12on_shop_openB6_
FN:1178,_RNvYNtNtCs6ewEfsi5izM_10balatro_rs10joker_impl10JollyJokerNtNtB6_5joker5Joker13migrate_stateB6_
FN:747,_RNvYNtNtCs6ewEfsi5izM_10balatro_rs10joker_impl10JollyJokerNtNtB6_5joker5Joker14on_blind_startB6_
FN:725,_RNvYNtNtCs6ewEfsi5izM_10balatro_rs10joker_impl10JollyJokerNtNtB6_5joker5Joker14on_card_scoredB6_
FN:885,_RNvYNtNtCs6ewEfsi5izM_10balatro_rs10joker_impl10JollyJokerNtNtB6_5joker5Joker14on_deactivatedB6_
FN:1107,_RNvYNtNtCs6ewEfsi5izM_10balatro_rs10joker_impl10JollyJokerNtNtB6_5joker5Joker14validate_stateB6_
FN:1003,_RNvYNtNtCs6ewEfsi5izM_10balatro_rs10joker_impl10JollyJokerNtNtB6_5joker5Joker15modify_discardsB6_
FN:1033,_RNvYNtNtCs6ewEfsi5izM_10balatro_rs10joker_impl10JollyJokerNtNtB6_5joker5Joker15serialize_stateB6_
FN:1141,_RNvYNtNtCs6ewEfsi5izM_10balatro_rs10joker_impl10JollyJokerNtNtB6_5joker5Joker16initialize_stateB6_
FN:981,_RNvYNtNtCs6ewEfsi5izM_10balatro_rs10joker_impl10JollyJokerNtNtB6_5joker5Joker16modify_hand_sizeB6_
FN:1070,_RNvYNtNtCs6ewEfsi5izM_10balatro_rs10joker_impl10JollyJokerNtNtB6_5joker5Joker17deserialize_stateB6_
FN:915,_RNvYNtNtCs6ewEfsi5izM_10balatro_rs10joker_impl10LustyJokerNtNtB6_5joker5Joker10on_cleanupB6_
FN:827,_RNvYNtNtCs6ewEfsi5izM_10balatro_rs10joker_impl10LustyJokerNtNtB6_5joker5Joker10on_createdB6_
FN:776,_RNvYNtNtCs6ewEfsi5izM_10balatro_rs10joker_impl10LustyJokerNtNtB6_5joker5Joker10on_discardB6_
FN:667,_RNvYNtNtCs6ewEfsi5izM_10balatro_rs10joker_impl10LustyJokerNtNtB6_5joker5Joker10sell_valueB6_
FN:959,_RNvYNtNtCs6ewEfsi5izM_10balatro_rs10joker_impl10LustyJokerNtNtB6_5joker5Joker11modify_multB6_
FN:938,_RNvYNtNtCs6ewEfsi5izM_10balatro_rs10joker_impl10LustyJokerNtNtB6_5joker5Joker12modify_chipsB6_
FN:856,_RNvYNtNtCs6ewEfsi5izM_10balatro_rs10joker_impl10LustyJokerNtNtB6_5joker5Joker12on_activatedB6_
FN:798,_RNvYNtNtCs6ewEfsi5izM_10balatro_rs10joker_impl10LustyJokerNtNtB6_5joker5Joker12on_round_endB6_
FN:761,_RNvYNtNtCs6ewEfsi5izM_10balatro_rs10joker_impl10LustyJokerNtNtB6_5joker5Joker12on_shop_openB6_
FN:1178,_RNvYNtNtCs6ewEfsi5izM_10balatro_rs10joker_impl10LustyJokerNtNtB6_5joker5Joker13migrate_stateB6_
FN:747,_RNvYNtNtCs6ewEfsi5izM_10balatro_rs10joker_impl10LustyJokerNtNtB6_5joker5Joker14on_blind_startB6_
FN:885,_RNvYNtNtCs6ewEfsi5izM_10balatro_rs10joker_impl10LustyJokerNtNtB6_5joker5Joker14on_deactivatedB6_
FN:695,_RNvYNtNtCs6ewEfsi5izM_10balatro_rs10joker_impl10LustyJokerNtNtB6_5joker5Joker14on_hand_playedB6_
FN:1107,_RNvYNtNtCs6ewEfsi5izM_10balatro_rs10joker_impl10LustyJokerNtNtB6_5joker5Joker14validate_stateB6_
FN:1003,_RNvYNtNtCs6ewEfsi5izM_10balatro_rs10joker_impl10LustyJokerNtNtB6_5joker5Joker15modify_discardsB6_
FN:1033,_RNvYNtNtCs6ewEfsi5izM_10balatro_rs10joker_impl10LustyJokerNtNtB6_5joker5Joker15serialize_stateB6_
FN:1141,_RNvYNtNtCs6ewEfsi5izM_10balatro_rs10joker_impl10LustyJokerNtNtB6_5joker5Joker16initialize_stateB6_
FN:981,_RNvYNtNtCs6ewEfsi5izM_10balatro_rs10joker_impl10LustyJokerNtNtB6_5joker5Joker16modify_hand_sizeB6_
FN:1070,_RNvYNtNtCs6ewEfsi5izM_10balatro_rs10joker_impl10LustyJokerNtNtB6_5joker5Joker17deserialize_stateB6_
FN:915,_RNvYNtNtCs6ewEfsi5izM_10balatro_rs10joker_impl10SpaceJokerNtNtB6_5joker5Joker10on_cleanupB6_
FN:827,_RNvYNtNtCs6ewEfsi5izM_10balatro_rs10joker_impl10SpaceJokerNtNtB6_5joker5Joker10on_createdB6_
FN:776,_RNvYNtNtCs6ewEfsi5izM_10balatro_rs10joker_impl10SpaceJokerNtNtB6_5joker5Joker10on_discardB6_
FN:667,_RNvYNtNtCs6ewEfsi5izM_10balatro_rs10joker_impl10SpaceJokerNtNtB6_5joker5Joker10sell_valueB6_
FN:959,_RNvYNtNtCs6ewEfsi5izM_10balatro_rs10joker_impl10SpaceJokerNtNtB6_5joker5Joker11modify_multB6_
FN:938,_RNvYNtNtCs6ewEfsi5izM_10balatro_rs10joker_impl10SpaceJokerNtNtB6_5joker5Joker12modify_chipsB6_
FN:856,_RNvYNtNtCs6ewEfsi5izM_10balatro_rs10joker_impl10SpaceJokerNtNtB6_5joker5Joker12on_activatedB6_
FN:798,_RNvYNtNtCs6ewEfsi5izM_10balatro_rs10joker_impl10SpaceJokerNtNtB6_5joker5Joker12on_round_endB6_
FN:761,_RNvYNtNtCs6ewEfsi5izM_10balatro_rs10joker_impl10SpaceJokerNtNtB6_5joker5Joker12on_shop_openB6_
FN:1178,_RNvYNtNtCs6ewEfsi5izM_10balatro_rs10joker_impl10SpaceJokerNtNtB6_5joker5Joker13migrate_stateB6_
FN:747,_RNvYNtNtCs6ewEfsi5izM_10balatro_rs10joker_impl10SpaceJokerNtNtB6_5joker5Joker14on_blind_startB6_
FN:725,_RNvYNtNtCs6ewEfsi5izM_10balatro_rs10joker_impl10SpaceJokerNtNtB6_5joker5Joker14on_card_scoredB6_
FN:885,_RNvYNtNtCs6ewEfsi5izM_10balatro_rs10joker_impl10SpaceJokerNtNtB6_5joker5Joker14on_deactivatedB6_
FN:1107,_RNvYNtNtCs6ewEfsi5izM_10balatro_rs10joker_impl10SpaceJokerNtNtB6_5joker5Joker14validate_stateB6_
FN:1003,_RNvYNtNtCs6ewEfsi5izM_10balatro_rs10joker_impl10SpaceJokerNtNtB6_5joker5Joker15modify_discardsB6_
FN:1033,_RNvYNtNtCs6ewEfsi5izM_10balatro_rs10joker_impl10SpaceJokerNtNtB6_5joker5Joker15serialize_stateB6_
FN:1141,_RNvYNtNtCs6ewEfsi5izM_10balatro_rs10joker_impl10SpaceJokerNtNtB6_5joker5Joker16initialize_stateB6_
FN:981,_RNvYNtNtCs6ewEfsi5izM_10balatro_rs10joker_impl10SpaceJokerNtNtB6_5joker5Joker16modify_hand_sizeB6_
FN:1070,_RNvYNtNtCs6ewEfsi5izM_10balatro_rs10joker_impl10SpaceJokerNtNtB6_5joker5Joker17deserialize_stateB6_
FN:915,_RNvYNtNtCs6ewEfsi5izM_10balatro_rs10joker_impl11CleverJokerNtNtB6_5joker5Joker10on_cleanupB6_
FN:827,_RNvYNtNtCs6ewEfsi5izM_10balatro_rs10joker_impl11CleverJokerNtNtB6_5joker5Joker10on_createdB6_
FN:776,_RNvYNtNtCs6ewEfsi5izM_10balatro_rs10joker_impl11CleverJokerNtNtB6_5joker5Joker10on_discardB6_
FN:667,_RNvYNtNtCs6ewEfsi5izM_10balatro_rs10joker_impl11CleverJokerNtNtB6_5joker5Joker10sell_valueB6_
FN:959,_RNvYNtNtCs6ewEfsi5izM_10balatro_rs10joker_impl11CleverJokerNtNtB6_5joker5Joker11modify_multB6_
FN:938,_RNvYNtNtCs6ewEfsi5izM_10balatro_rs10joker_impl11CleverJokerNtNtB6_5joker5Joker12modify_chipsB6_
FN:856,_RNvYNtNtCs6ewEfsi5izM_10balatro_rs10joker_impl11CleverJokerNtNtB6_5joker5Joker12on_activatedB6_
FN:798,_RNvYNtNtCs6ewEfsi5izM_10balatro_rs10joker_impl11CleverJokerNtNtB6_5joker5Joker12on_round_endB6_
FN:761,_RNvYNtNtCs6ewEfsi5izM_10balatro_rs10joker_impl11CleverJokerNtNtB6_5joker5Joker12on_shop_openB6_
FN:1178,_RNvYNtNtCs6ewEfsi5izM_10balatro_rs10joker_impl11CleverJokerNtNtB6_5joker5Joker13migrate_stateB6_
FN:747,_RNvYNtNtCs6ewEfsi5izM_10balatro_rs10joker_impl11CleverJokerNtNtB6_5joker5Joker14on_blind_startB6_
FN:725,_RNvYNtNtCs6ewEfsi5izM_10balatro_rs10joker_impl11CleverJokerNtNtB6_5joker5Joker14on_card_scoredB6_
FN:885,_RNvYNtNtCs6ewEfsi5izM_10balatro_rs10joker_impl11CleverJokerNtNtB6_5joker5Joker14on_deactivatedB6_
FN:1107,_RNvYNtNtCs6ewEfsi5izM_10balatro_rs10joker_impl11CleverJokerNtNtB6_5joker5Joker14validate_stateB6_
FN:1003,_RNvYNtNtCs6ewEfsi5izM_10balatro_rs10joker_impl11CleverJokerNtNtB6_5joker5Joker15modify_discardsB6_
FN:1033,_RNvYNtNtCs6ewEfsi5izM_10balatro_rs10joker_impl11CleverJokerNtNtB6_5joker5Joker15serialize_stateB6_
FN:1141,_RNvYNtNtCs6ewEfsi5izM_10balatro_rs10joker_impl11CleverJokerNtNtB6_5joker5Joker16initialize_stateB6_
FN:981,_RNvYNtNtCs6ewEfsi5izM_10balatro_rs10joker_impl11CleverJokerNtNtB6_5joker5Joker16modify_hand_sizeB6_
FN:1070,_RNvYNtNtCs6ewEfsi5izM_10balatro_rs10joker_impl11CleverJokerNtNtB6_5joker5Joker17deserialize_stateB6_
FN:915,_RNvYNtNtCs6ewEfsi5izM_10balatro_rs10joker_impl11CraftyJokerNtNtB6_5joker5Joker10on_cleanupB6_
FN:827,_RNvYNtNtCs6ewEfsi5izM_10balatro_rs10joker_impl11CraftyJokerNtNtB6_5joker5Joker10on_createdB6_
FN:776,_RNvYNtNtCs6ewEfsi5izM_10balatro_rs10joker_impl11CraftyJokerNtNtB6_5joker5Joker10on_discardB6_
FN:667,_RNvYNtNtCs6ewEfsi5izM_10balatro_rs10joker_impl11CraftyJokerNtNtB6_5joker5Joker10sell_valueB6_
FN:959,_RNvYNtNtCs6ewEfsi5izM_10balatro_rs10joker_impl11CraftyJokerNtNtB6_5joker5Joker11modify_multB6_
FN:938,_RNvYNtNtCs6ewEfsi5izM_10balatro_rs10joker_impl11CraftyJokerNtNtB6_5joker5Joker12modify_chipsB6_
FN:856,_RNvYNtNtCs6ewEfsi5izM_10balatro_rs10joker_impl11CraftyJokerNtNtB6_5joker5Joker12on_activatedB6_
FN:798,_RNvYNtNtCs6ewEfsi5izM_10balatro_rs10joker_impl11CraftyJokerNtNtB6_5joker5Joker12on_round_endB6_
FN:761,_RNvYNtNtCs6ewEfsi5izM_10balatro_rs10joker_impl11CraftyJokerNtNtB6_5joker5Joker12on_shop_openB6_
FN:1178,_RNvYNtNtCs6ewEfsi5izM_10balatro_rs10joker_impl11CraftyJokerNtNtB6_5joker5Joker13migrate_stateB6_
FN:747,_RNvYNtNtCs6ewEfsi5izM_10balatro_rs10joker_impl11CraftyJokerNtNtB6_5joker5Joker14on_blind_startB6_
FN:725,_RNvYNtNtCs6ewEfsi5izM_10balatro_rs10joker_impl11CraftyJokerNtNtB6_5joker5Joker14on_card_scoredB6_
FN:885,_RNvYNtNtCs6ewEfsi5izM_10balatro_rs10joker_impl11CraftyJokerNtNtB6_5joker5Joker14on_deactivatedB6_
FN:1107,_RNvYNtNtCs6ewEfsi5izM_10balatro_rs10joker_impl11CraftyJokerNtNtB6_5joker5Joker14validate_stateB6_
FN:1003,_RNvYNtNtCs6ewEfsi5izM_10balatro_rs10joker_impl11CraftyJokerNtNtB6_5joker5Joker15modify_discardsB6_
FN:1033,_RNvYNtNtCs6ewEfsi5izM_10balatro_rs10joker_impl11CraftyJokerNtNtB6_5joker5Joker15serialize_stateB6_
FN:1141,_RNvYNtNtCs6ewEfsi5izM_10balatro_rs10joker_impl11CraftyJokerNtNtB6_5joker5Joker16initialize_stateB6_
FN:981,_RNvYNtNtCs6ewEfsi5izM_10balatro_rs10joker_impl11CraftyJokerNtNtB6_5joker5Joker16modify_hand_sizeB6_
FN:1070,_RNvYNtNtCs6ewEfsi5izM_10balatro_rs10joker_impl11CraftyJokerNtNtB6_5joker5Joker17deserialize_stateB6_
FN:915,_RNvYNtNtCs6ewEfsi5izM_10balatro_rs10joker_impl11GreedyJokerNtNtB6_5joker5Joker10on_cleanupB6_
FN:827,_RNvYNtNtCs6ewEfsi5izM_10balatro_rs10joker_impl11GreedyJokerNtNtB6_5joker5Joker10on_createdB6_
FN:776,_RNvYNtNtCs6ewEfsi5izM_10balatro_rs10joker_impl11GreedyJokerNtNtB6_5joker5Joker10on_discardB6_
FN:667,_RNvYNtNtCs6ewEfsi5izM_10balatro_rs10joker_impl11GreedyJokerNtNtB6_5joker5Joker10sell_valueB6_
FN:959,_RNvYNtNtCs6ewEfsi5izM_10balatro_rs10joker_impl11GreedyJokerNtNtB6_5joker5Joker11modify_multB6_
FN:938,_RNvYNtNtCs6ewEfsi5izM_10balatro_rs10joker_impl11GreedyJokerNtNtB6_5joker5Joker12modify_chipsB6_
FN:856,_RNvYNtNtCs6ewEfsi5izM_10balatro_rs10joker_impl11GreedyJokerNtNtB6_5joker5Joker12on_activatedB6_
FN:798,_RNvYNtNtCs6ewEfsi5izM_10balatro_rs10joker_impl11GreedyJokerNtNtB6_5joker5Joker12on_round_endB6_
FN:761,_RNvYNtNtCs6ewEfsi5izM_10balatro_rs10joker_impl11GreedyJokerNtNtB6_5joker5Joker12on_shop_openB6_
FN:1178,_RNvYNtNtCs6ewEfsi5izM_10balatro_rs10joker_impl11GreedyJokerNtNtB6_5joker5Joker13migrate_stateB6_
FN:747,_RNvYNtNtCs6ewEfsi5izM_10balatro_rs10joker_impl11GreedyJokerNtNtB6_5joker5Joker14on_blind_startB6_
FN:885,_RNvYNtNtCs6ewEfsi5izM_10balatro_rs10joker_impl11GreedyJokerNtNtB6_5joker5Joker14on_deactivatedB6_
FN:695,_RNvYNtNtCs6ewEfsi5izM_10balatro_rs10joker_impl11GreedyJokerNtNtB6_5joker5Joker14on_hand_playedB6_
FN:1107,_RNvYNtNtCs6ewEfsi5izM_10balatro_rs10joker_impl11GreedyJokerNtNtB6_5joker5Joker14validate_stateB6_
FN:1003,_RNvYNtNtCs6ewEfsi5izM_10balatro_rs10joker_impl11GreedyJokerNtNtB6_5joker5Joker15modify_discardsB6_
FN:1033,_RNvYNtNtCs6ewEfsi5izM_10balatro_rs10joker_impl11GreedyJokerNtNtB6_5joker5Joker15serialize_stateB6_
FN:1141,_RNvYNtNtCs6ewEfsi5izM_10balatro_rs10joker_impl11GreedyJokerNtNtB6_5joker5Joker16initialize_stateB6_
FN:981,_RNvYNtNtCs6ewEfsi5izM_10balatro_rs10joker_impl11GreedyJokerNtNtB6_5joker5Joker16modify_hand_sizeB6_
FN:1070,_RNvYNtNtCs6ewEfsi5izM_10balatro_rs10joker_impl11GreedyJokerNtNtB6_5joker5Joker17deserialize_stateB6_
FN:915,_RNvYNtNtCs6ewEfsi5izM_10balatro_rs10joker_impl11RunnerJokerNtNtB6_5joker5Joker10on_cleanupB6_
FN:827,_RNvYNtNtCs6ewEfsi5izM_10balatro_rs10joker_impl11RunnerJokerNtNtB6_5joker5Joker10on_createdB6_
FN:776,_RNvYNtNtCs6ewEfsi5izM_10balatro_rs10joker_impl11RunnerJokerNtNtB6_5joker5Joker10on_discardB6_
FN:667,_RNvYNtNtCs6ewEfsi5izM_10balatro_rs10joker_impl11RunnerJokerNtNtB6_5joker5Joker10sell_valueB6_
FN:959,_RNvYNtNtCs6ewEfsi5izM_10balatro_rs10joker_impl11RunnerJokerNtNtB6_5joker5Joker11modify_multB6_
FN:938,_RNvYNtNtCs6ewEfsi5izM_10balatro_rs10joker_impl11RunnerJokerNtNtB6_5joker5Joker12modify_chipsB6_
FN:856,_RNvYNtNtCs6ewEfsi5izM_10balatro_rs10joker_impl11RunnerJokerNtNtB6_5joker5Joker12on_activatedB6_
FN:798,_RNvYNtNtCs6ewEfsi5izM_10balatro_rs10joker_impl11RunnerJokerNtNtB6_5joker5Joker12on_round_endB6_
FN:761,_RNvYNtNtCs6ewEfsi5izM_10balatro_rs10joker_impl11RunnerJokerNtNtB6_5joker5Joker12on_shop_openB6_
FN:1178,_RNvYNtNtCs6ewEfsi5izM_10balatro_rs10joker_impl11RunnerJokerNtNtB6_5joker5Joker13migrate_stateB6_
FN:747,_RNvYNtNtCs6ewEfsi5izM_10balatro_rs10joker_impl11RunnerJokerNtNtB6_5joker5Joker14on_blind_startB6_
FN:725,_RNvYNtNtCs6ewEfsi5izM_10balatro_rs10joker_impl11RunnerJokerNtNtB6_5joker5Joker14on_card_scoredB6_
FN:885,_RNvYNtNtCs6ewEfsi5izM_10balatro_rs10joker_impl11RunnerJokerNtNtB6_5joker5Joker14on_deactivatedB6_
FN:1107,_RNvYNtNtCs6ewEfsi5izM_10balatro_rs10joker_impl11RunnerJokerNtNtB6_5joker5Joker14validate_stateB6_
FN:1003,_RNvYNtNtCs6ewEfsi5izM_10balatro_rs10joker_impl11RunnerJokerNtNtB6_5joker5Joker15modify_discardsB6_
FN:1033,_RNvYNtNtCs6ewEfsi5izM_10balatro_rs10joker_impl11RunnerJokerNtNtB6_5joker5Joker15serialize_stateB6_
FN:1141,_RNvYNtNtCs6ewEfsi5izM_10balatro_rs10joker_impl11RunnerJokerNtNtB6_5joker5Joker16initialize_stateB6_
FN:981,_RNvYNtNtCs6ewEfsi5izM_10balatro_rs10joker_impl11RunnerJokerNtNtB6_5joker5Joker16modify_hand_sizeB6_
FN:1070,_RNvYNtNtCs6ewEfsi5izM_10balatro_rs10joker_impl11RunnerJokerNtNtB6_5joker5Joker17deserialize_stateB6_
FN:915,_RNvYNtNtCs6ewEfsi5izM_10balatro_rs10joker_impl12BusinessCardNtNtB6_5joker5Joker10on_cleanupB6_
FN:827,_RNvYNtNtCs6ewEfsi5izM_10balatro_rs10joker_impl12BusinessCardNtNtB6_5joker5Joker10on_createdB6_
FN:776,_RNvYNtNtCs6ewEfsi5izM_10balatro_rs10joker_impl12BusinessCardNtNtB6_5joker5Joker10on_discardB6_
FN:667,_RNvYNtNtCs6ewEfsi5izM_10balatro_rs10joker_impl12BusinessCardNtNtB6_5joker5Joker10sell_valueB6_
FN:959,_RNvYNtNtCs6ewEfsi5izM_10balatro_rs10joker_impl12BusinessCardNtNtB6_5joker5Joker11modify_multB6_
FN:938,_RNvYNtNtCs6ewEfsi5izM_10balatro_rs10joker_impl12BusinessCardNtNtB6_5joker5Joker12modify_chipsB6_
FN:856,_RNvYNtNtCs6ewEfsi5izM_10balatro_rs10joker_impl12BusinessCardNtNtB6_5joker5Joker12on_activatedB6_
FN:798,_RNvYNtNtCs6ewEfsi5izM_10balatro_rs10joker_impl12BusinessCardNtNtB6_5joker5Joker12on_round_endB6_
FN:761,_RNvYNtNtCs6ewEfsi5izM_10balatro_rs10joker_impl12BusinessCardNtNtB6_5joker5Joker12on_shop_openB6_
FN:1178,_RNvYNtNtCs6ewEfsi5izM_10balatro_rs10joker_impl12BusinessCardNtNtB6_5joker5Joker13migrate_stateB6_
FN:747,_RNvYNtNtCs6ewEfsi5izM_10balatro_rs10joker_impl12BusinessCardNtNtB6_5joker5Joker14on_blind_startB6_
FN:885,_RNvYNtNtCs6ewEfsi5izM_10balatro_rs10joker_impl12BusinessCardNtNtB6_5joker5Joker14on_deactivatedB6_
FN:695,_RNvYNtNtCs6ewEfsi5izM_10balatro_rs10joker_impl12BusinessCardNtNtB6_5joker5Joker14on_hand_playedB6_
FN:1107,_RNvYNtNtCs6ewEfsi5izM_10balatro_rs10joker_impl12BusinessCardNtNtB6_5joker5Joker14validate_stateB6_
FN:1003,_RNvYNtNtCs6ewEfsi5izM_10balatro_rs10joker_impl12BusinessCardNtNtB6_5joker5Joker15modify_discardsB6_
FN:1033,_RNvYNtNtCs6ewEfsi5izM_10balatro_rs10joker_impl12BusinessCardNtNtB6_5joker5Joker15serialize_stateB6_
FN:1141,_RNvYNtNtCs6ewEfsi5izM_10balatro_rs10joker_impl12BusinessCardNtNtB6_5joker5Joker16initialize_stateB6_
FN:981,_RNvYNtNtCs6ewEfsi5izM_10balatro_rs10joker_impl12BusinessCardNtNtB6_5joker5Joker16modify_hand_sizeB6_
FN:1070,_RNvYNtNtCs6ewEfsi5izM_10balatro_rs10joker_impl12BusinessCardNtNtB6_5joker5Joker17deserialize_stateB6_
FN:915,_RNvYNtNtCs6ewEfsi5izM_10balatro_rs10joker_impl12DeviousJokerNtNtB6_5joker5Joker10on_cleanupB6_
FN:827,_RNvYNtNtCs6ewEfsi5izM_10balatro_rs10joker_impl12DeviousJokerNtNtB6_5joker5Joker10on_createdB6_
FN:776,_RNvYNtNtCs6ewEfsi5izM_10balatro_rs10joker_impl12DeviousJokerNtNtB6_5joker5Joker10on_discardB6_
FN:667,_RNvYNtNtCs6ewEfsi5izM_10balatro_rs10joker_impl12DeviousJokerNtNtB6_5joker5Joker10sell_valueB6_
FN:959,_RNvYNtNtCs6ewEfsi5izM_10balatro_rs10joker_impl12DeviousJokerNtNtB6_5joker5Joker11modify_multB6_
FN:938,_RNvYNtNtCs6ewEfsi5izM_10balatro_rs10joker_impl12DeviousJokerNtNtB6_5joker5Joker12modify_chipsB6_
FN:856,_RNvYNtNtCs6ewEfsi5izM_10balatro_rs10joker_impl12DeviousJokerNtNtB6_5joker5Joker12on_activatedB6_
FN:798,_RNvYNtNtCs6ewEfsi5izM_10balatro_rs10joker_impl12DeviousJokerNtNtB6_5joker5Joker12on_round_endB6_
FN:761,_RNvYNtNtCs6ewEfsi5izM_10balatro_rs10joker_impl12DeviousJokerNtNtB6_5joker5Joker12on_shop_openB6_
FN:1178,_RNvYNtNtCs6ewEfsi5izM_10balatro_rs10joker_impl12DeviousJokerNtNtB6_5joker5Joker13migrate_stateB6_
FN:747,_RNvYNtNtCs6ewEfsi5izM_10balatro_rs10joker_impl12DeviousJokerNtNtB6_5joker5Joker14on_blind_startB6_
FN:725,_RNvYNtNtCs6ewEfsi5izM_10balatro_rs10joker_impl12DeviousJokerNtNtB6_5joker5Joker14on_card_scoredB6_
FN:885,_RNvYNtNtCs6ewEfsi5izM_10balatro_rs10joker_impl12DeviousJokerNtNtB6_5joker5Joker14on_deactivatedB6_
FN:1107,_RNvYNtNtCs6ewEfsi5izM_10balatro_rs10joker_impl12DeviousJokerNtNtB6_5joker5Joker14validate_stateB6_
FN:1003,_RNvYNtNtCs6ewEfsi5izM_10balatro_rs10joker_impl12DeviousJokerNtNtB6_5joker5Joker15modify_discardsB6_
FN:1033,_RNvYNtNtCs6ewEfsi5izM_10balatro_rs10joker_impl12DeviousJokerNtNtB6_5joker5Joker15serialize_stateB6_
FN:1141,_RNvYNtNtCs6ewEfsi5izM_10balatro_rs10joker_impl12DeviousJokerNtNtB6_5joker5Joker16initialize_stateB6_
FN:981,_RNvYNtNtCs6ewEfsi5izM_10balatro_rs10joker_impl12DeviousJokerNtNtB6_5joker5Joker16modify_hand_sizeB6_
FN:1070,_RNvYNtNtCs6ewEfsi5izM_10balatro_rs10joker_impl12DeviousJokerNtNtB6_5joker5Joker17deserialize_stateB6_
FN:915,_RNvYNtNtCs6ewEfsi5izM_10balatro_rs10joker_impl13IceCreamJokerNtNtB6_5joker5Joker10on_cleanupB6_
FN:776,_RNvYNtNtCs6ewEfsi5izM_10balatro_rs10joker_impl13IceCreamJokerNtNtB6_5joker5Joker10on_discardB6_
FN:667,_RNvYNtNtCs6ewEfsi5izM_10balatro_rs10joker_impl13IceCreamJokerNtNtB6_5joker5Joker10sell_valueB6_
FN:959,_RNvYNtNtCs6ewEfsi5izM_10balatro_rs10joker_impl13IceCreamJokerNtNtB6_5joker5Joker11modify_multB6_
FN:938,_RNvYNtNtCs6ewEfsi5izM_10balatro_rs10joker_impl13IceCreamJokerNtNtB6_5joker5Joker12modify_chipsB6_
FN:856,_RNvYNtNtCs6ewEfsi5izM_10balatro_rs10joker_impl13IceCreamJokerNtNtB6_5joker5Joker12on_activatedB6_
FN:798,_RNvYNtNtCs6ewEfsi5izM_10balatro_rs10joker_impl13IceCreamJokerNtNtB6_5joker5Joker12on_round_endB6_
FN:761,_RNvYNtNtCs6ewEfsi5izM_10balatro_rs10joker_impl13IceCreamJokerNtNtB6_5joker5Joker12on_shop_openB6_
FN:1178,_RNvYNtNtCs6ewEfsi5izM_10balatro_rs10joker_impl13IceCreamJokerNtNtB6_5joker5Joker13migrate_stateB6_
FN:747,_RNvYNtNtCs6ewEfsi5izM_10balatro_rs10joker_impl13IceCreamJokerNtNtB6_5joker5Joker14on_blind_startB6_
FN:725,_RNvYNtNtCs6ewEfsi5izM_10balatro_rs10joker_impl13IceCreamJokerNtNtB6_5joker5Joker14on_card_scoredB6_
FN:885,_RNvYNtNtCs6ewEfsi5izM_10balatro_rs10joker_impl13IceCreamJokerNtNtB6_5joker5Joker14on_deactivatedB6_
FN:1107,_RNvYNtNtCs6ewEfsi5izM_10balatro_rs10joker_impl13IceCreamJokerNtNtB6_5joker5Joker14validate_stateB6_
FN:1003,_RNvYNtNtCs6ewEfsi5izM_10balatro_rs10joker_impl13IceCreamJokerNtNtB6_5joker5Joker15modify_discardsB6_
FN:1033,_RNvYNtNtCs6ewEfsi5izM_10balatro_rs10joker_impl13IceCreamJokerNtNtB6_5joker5Joker15serialize_stateB6_
FN:1141,_RNvYNtNtCs6ewEfsi5izM_10balatro_rs10joker_impl13IceCreamJokerNtNtB6_5joker5Joker16initialize_stateB6_
FN:981,_RNvYNtNtCs6ewEfsi5izM_10balatro_rs10joker_impl13IceCreamJokerNtNtB6_5joker5Joker16modify_hand_sizeB6_
FN:1070,_RNvYNtNtCs6ewEfsi5izM_10balatro_rs10joker_impl13IceCreamJokerNtNtB6_5joker5Joker17deserialize_stateB6_
FN:915,_RNvYNtNtCs6ewEfsi5izM_10balatro_rs10joker_impl13WrathfulJokerNtNtB6_5joker5Joker10on_cleanupB6_
FN:827,_RNvYNtNtCs6ewEfsi5izM_10balatro_rs10joker_impl13WrathfulJokerNtNtB6_5joker5Joker10on_createdB6_
FN:776,_RNvYNtNtCs6ewEfsi5izM_10balatro_rs10joker_impl13WrathfulJokerNtNtB6_5joker5Joker10on_discardB6_
FN:667,_RNvYNtNtCs6ewEfsi5izM_10balatro_rs10joker_impl13WrathfulJokerNtNtB6_5joker5Joker10sell_valueB6_
FN:959,_RNvYNtNtCs6ewEfsi5izM_10balatro_rs10joker_impl13WrathfulJokerNtNtB6_5joker5Joker11modify_multB6_
FN:938,_RNvYNtNtCs6ewEfsi5izM_10balatro_rs10joker_impl13WrathfulJokerNtNtB6_5joker5Joker12modify_chipsB6_
FN:856,_RNvYNtNtCs6ewEfsi5izM_10balatro_rs10joker_impl13WrathfulJokerNtNtB6_5joker5Joker12on_activatedB6_
FN:798,_RNvYNtNtCs6ewEfsi5izM_10balatro_rs10joker_impl13WrathfulJokerNtNtB6_5joker5Joker12on_round_endB6_
FN:761,_RNvYNtNtCs6ewEfsi5izM_10balatro_rs10joker_impl13WrathfulJokerNtNtB6_5joker5Joker12on_shop_openB6_
FN:1178,_RNvYNtNtCs6ewEfsi5izM_10balatro_rs10joker_impl13WrathfulJokerNtNtB6_5joker5Joker13migrate_stateB6_
FN:747,_RNvYNtNtCs6ewEfsi5izM_10balatro_rs10joker_impl13WrathfulJokerNtNtB6_5joker5Joker14on_blind_startB6_
FN:885,_RNvYNtNtCs6ewEfsi5izM_10balatro_rs10joker_impl13WrathfulJokerNtNtB6_5joker5Joker14on_deactivatedB6_
FN:695,_RNvYNtNtCs6ewEfsi5izM_10balatro_rs10joker_impl13WrathfulJokerNtNtB6_5joker5Joker14on_hand_playedB6_
FN:1107,_RNvYNtNtCs6ewEfsi5izM_10balatro_rs10joker_impl13WrathfulJokerNtNtB6_5joker5Joker14validate_stateB6_
FN:1003,_RNvYNtNtCs6ewEfsi5izM_10balatro_rs10joker_impl13WrathfulJokerNtNtB6_5joker5Joker15modify_discardsB6_
FN:1033,_RNvYNtNtCs6ewEfsi5izM_10balatro_rs10joker_impl13WrathfulJokerNtNtB6_5joker5Joker15serialize_stateB6_
FN:1141,_RNvYNtNtCs6ewEfsi5izM_10balatro_rs10joker_impl13WrathfulJokerNtNtB6_5joker5Joker16initialize_stateB6_
FN:981,_RNvYNtNtCs6ewEfsi5izM_10balatro_rs10joker_impl13WrathfulJokerNtNtB6_5joker5Joker16modify_hand_sizeB6_
FN:1070,_RNvYNtNtCs6ewEfsi5izM_10balatro_rs10joker_impl13WrathfulJokerNtNtB6_5joker5Joker17deserialize_stateB6_
FN:915,_RNvYNtNtCs6ewEfsi5izM_10balatro_rs10joker_impl14SupernovaJokerNtNtB6_5joker5Joker10on_cleanupB6_
FN:827,_RNvYNtNtCs6ewEfsi5izM_10balatro_rs10joker_impl14SupernovaJokerNtNtB6_5joker5Joker10on_createdB6_
FN:776,_RNvYNtNtCs6ewEfsi5izM_10balatro_rs10joker_impl14SupernovaJokerNtNtB6_5joker5Joker10on_discardB6_
FN:667,_RNvYNtNtCs6ewEfsi5izM_10balatro_rs10joker_impl14SupernovaJokerNtNtB6_5joker5Joker10sell_valueB6_
FN:959,_RNvYNtNtCs6ewEfsi5izM_10balatro_rs10joker_impl14SupernovaJokerNtNtB6_5joker5Joker11modify_multB6_
FN:938,_RNvYNtNtCs6ewEfsi5izM_10balatro_rs10joker_impl14SupernovaJokerNtNtB6_5joker5Joker12modify_chipsB6_
FN:856,_RNvYNtNtCs6ewEfsi5izM_10balatro_rs10joker_impl14SupernovaJokerNtNtB6_5joker5Joker12on_activatedB6_
FN:798,_RNvYNtNtCs6ewEfsi5izM_10balatro_rs10joker_impl14SupernovaJokerNtNtB6_5joker5Joker12on_round_endB6_
FN:761,_RNvYNtNtCs6ewEfsi5izM_10balatro_rs10joker_impl14SupernovaJokerNtNtB6_5joker5Joker12on_shop_openB6_
FN:1178,_RNvYNtNtCs6ewEfsi5izM_10balatro_rs10joker_impl14SupernovaJokerNtNtB6_5joker5Joker13migrate_stateB6_
FN:747,_RNvYNtNtCs6ewEfsi5izM_10balatro_rs10joker_impl14SupernovaJokerNtNtB6_5joker5Joker14on_blind_startB6_
FN:725,_RNvYNtNtCs6ewEfsi5izM_10balatro_rs10joker_impl14SupernovaJokerNtNtB6_5joker5Joker14on_card_scoredB6_
FN:885,_RNvYNtNtCs6ewEfsi5izM_10balatro_rs10joker_impl14SupernovaJokerNtNtB6_5joker5Joker14on_deactivatedB6_
FN:1107,_RNvYNtNtCs6ewEfsi5izM_10balatro_rs10joker_impl14SupernovaJokerNtNtB6_5joker5Joker14validate_stateB6_
FN:1003,_RNvYNtNtCs6ewEfsi5izM_10balatro_rs10joker_impl14SupernovaJokerNtNtB6_5joker5Joker15modify_discardsB6_
FN:1033,_RNvYNtNtCs6ewEfsi5izM_10balatro_rs10joker_impl14SupernovaJokerNtNtB6_5joker5Joker15serialize_stateB6_
FN:1141,_RNvYNtNtCs6ewEfsi5izM_10balatro_rs10joker_impl14SupernovaJokerNtNtB6_5joker5Joker16initialize_stateB6_
FN:981,_RNvYNtNtCs6ewEfsi5izM_10balatro_rs10joker_impl14SupernovaJokerNtNtB6_5joker5Joker16modify_hand_sizeB6_
FN:1070,_RNvYNtNtCs6ewEfsi5izM_10balatro_rs10joker_impl14SupernovaJokerNtNtB6_5joker5Joker17deserialize_stateB6_
FN:915,_RNvYNtNtCs6ewEfsi5izM_10balatro_rs10joker_impl15GluttonousJokerNtNtB6_5joker5Joker10on_cleanupB6_
FN:827,_RNvYNtNtCs6ewEfsi5izM_10balatro_rs10joker_impl15GluttonousJokerNtNtB6_5joker5Joker10on_createdB6_
FN:776,_RNvYNtNtCs6ewEfsi5izM_10balatro_rs10joker_impl15GluttonousJokerNtNtB6_5joker5Joker10on_discardB6_
FN:667,_RNvYNtNtCs6ewEfsi5izM_10balatro_rs10joker_impl15GluttonousJokerNtNtB6_5joker5Joker10sell_valueB6_
FN:959,_RNvYNtNtCs6ewEfsi5izM_10balatro_rs10joker_impl15GluttonousJokerNtNtB6_5joker5Joker11modify_multB6_
FN:938,_RNvYNtNtCs6ewEfsi5izM_10balatro_rs10joker_impl15GluttonousJokerNtNtB6_5joker5Joker12modify_chipsB6_
FN:856,_RNvYNtNtCs6ewEfsi5izM_10balatro_rs10joker_impl15GluttonousJokerNtNtB6_5joker5Joker12on_activatedB6_
FN:798,_RNvYNtNtCs6ewEfsi5izM_10balatro_rs10joker_impl15GluttonousJokerNtNtB6_5joker5Joker12on_round_endB6_
FN:761,_RNvYNtNtCs6ewEfsi5izM_10balatro_rs10joker_impl15GluttonousJokerNtNtB6_5joker5Joker12on_shop_openB6_
FN:1178,_RNvYNtNtCs6ewEfsi5izM_10balatro_rs10joker_impl15GluttonousJokerNtNtB6_5joker5Joker13migrate_stateB6_
FN:747,_RNvYNtNtCs6ewEfsi5izM_10balatro_rs10joker_impl15GluttonousJokerNtNtB6_5joker5Joker14on_blind_startB6_
FN:885,_RNvYNtNtCs6ewEfsi5izM_10balatro_rs10joker_impl15GluttonousJokerNtNtB6_5joker5Joker14on_deactivatedB6_
FN:695,_RNvYNtNtCs6ewEfsi5izM_10balatro_rs10joker_impl15GluttonousJokerNtNtB6_5joker5Joker14on_hand_playedB6_
FN:1107,_RNvYNtNtCs6ewEfsi5izM_10balatro_rs10joker_impl15GluttonousJokerNtNtB6_5joker5Joker14validate_stateB6_
FN:1003,_RNvYNtNtCs6ewEfsi5izM_10balatro_rs10joker_impl15GluttonousJokerNtNtB6_5joker5Joker15modify_discardsB6_
FN:1033,_RNvYNtNtCs6ewEfsi5izM_10balatro_rs10joker_impl15GluttonousJokerNtNtB6_5joker5Joker15serialize_stateB6_
FN:1141,_RNvYNtNtCs6ewEfsi5izM_10balatro_rs10joker_impl15GluttonousJokerNtNtB6_5joker5Joker16initialize_stateB6_
FN:981,_RNvYNtNtCs6ewEfsi5izM_10balatro_rs10joker_impl15GluttonousJokerNtNtB6_5joker5Joker16modify_hand_sizeB6_
FN:1070,_RNvYNtNtCs6ewEfsi5izM_10balatro_rs10joker_impl15GluttonousJokerNtNtB6_5joker5Joker17deserialize_stateB6_
FN:915,_RNvYNtNtCs6ewEfsi5izM_10balatro_rs10joker_impl3EggNtNtB6_5joker5Joker10on_cleanupB6_
FN:827,_RNvYNtNtCs6ewEfsi5izM_10balatro_rs10joker_impl3EggNtNtB6_5joker5Joker10on_createdB6_
FN:776,_RNvYNtNtCs6ewEfsi5izM_10balatro_rs10joker_impl3EggNtNtB6_5joker5Joker10on_discardB6_
FN:959,_RNvYNtNtCs6ewEfsi5izM_10balatro_rs10joker_impl3EggNtNtB6_5joker5Joker11modify_multB6_
FN:938,_RNvYNtNtCs6ewEfsi5izM_10balatro_rs10joker_impl3EggNtNtB6_5joker5Joker12modify_chipsB6_
FN:856,_RNvYNtNtCs6ewEfsi5izM_10balatro_rs10joker_impl3EggNtNtB6_5joker5Joker12on_activatedB6_
FN:761,_RNvYNtNtCs6ewEfsi5izM_10balatro_rs10joker_impl3EggNtNtB6_5joker5Joker12on_shop_openB6_
FN:1178,_RNvYNtNtCs6ewEfsi5izM_10balatro_rs10joker_impl3EggNtNtB6_5joker5Joker13migrate_stateB6_
FN:747,_RNvYNtNtCs6ewEfsi5izM_10balatro_rs10joker_impl3EggNtNtB6_5joker5Joker14on_blind_startB6_
FN:725,_RNvYNtNtCs6ewEfsi5izM_10balatro_rs10joker_impl3EggNtNtB6_5joker5Joker14on_card_scoredB6_
FN:885,_RNvYNtNtCs6ewEfsi5izM_10balatro_rs10joker_impl3EggNtNtB6_5joker5Joker14on_deactivatedB6_
FN:695,_RNvYNtNtCs6ewEfsi5izM_10balatro_rs10joker_impl3EggNtNtB6_5joker5Joker14on_hand_playedB6_
FN:1107,_RNvYNtNtCs6ewEfsi5izM_10balatro_rs10joker_impl3EggNtNtB6_5joker5Joker14validate_stateB6_
FN:1003,_RNvYNtNtCs6ewEfsi5izM_10balatro_rs10joker_impl3EggNtNtB6_5joker5Joker15modify_discardsB6_
FN:1033,_RNvYNtNtCs6ewEfsi5izM_10balatro_rs10joker_impl3EggNtNtB6_5joker5Joker15serialize_stateB6_
FN:1141,_RNvYNtNtCs6ewEfsi5izM_10balatro_rs10joker_impl3EggNtNtB6_5joker5Joker16initialize_stateB6_
FN:981,_RNvYNtNtCs6ewEfsi5izM_10balatro_rs10joker_impl3EggNtNtB6_5joker5Joker16modify_hand_sizeB6_
FN:1070,_RNvYNtNtCs6ewEfsi5izM_10balatro_rs10joker_impl3EggNtNtB6_5joker5Joker17deserialize_stateB6_
FN:915,_RNvYNtNtCs6ewEfsi5izM_10balatro_rs10joker_impl7BurglarNtNtB6_5joker5Joker10on_cleanupB6_
FN:827,_RNvYNtNtCs6ewEfsi5izM_10balatro_rs10joker_impl7BurglarNtNtB6_5joker5Joker10on_createdB6_
FN:776,_RNvYNtNtCs6ewEfsi5izM_10balatro_rs10joker_impl7BurglarNtNtB6_5joker5Joker10on_discardB6_
FN:667,_RNvYNtNtCs6ewEfsi5izM_10balatro_rs10joker_impl7BurglarNtNtB6_5joker5Joker10sell_valueB6_
FN:959,_RNvYNtNtCs6ewEfsi5izM_10balatro_rs10joker_impl7BurglarNtNtB6_5joker5Joker11modify_multB6_
FN:938,_RNvYNtNtCs6ewEfsi5izM_10balatro_rs10joker_impl7BurglarNtNtB6_5joker5Joker12modify_chipsB6_
FN:856,_RNvYNtNtCs6ewEfsi5izM_10balatro_rs10joker_impl7BurglarNtNtB6_5joker5Joker12on_activatedB6_
FN:798,_RNvYNtNtCs6ewEfsi5izM_10balatro_rs10joker_impl7BurglarNtNtB6_5joker5Joker12on_round_endB6_
FN:761,_RNvYNtNtCs6ewEfsi5izM_10balatro_rs10joker_impl7BurglarNtNtB6_5joker5Joker12on_shop_openB6_
FN:1178,_RNvYNtNtCs6ewEfsi5izM_10balatro_rs10joker_impl7BurglarNtNtB6_5joker5Joker13migrate_stateB6_
FN:725,_RNvYNtNtCs6ewEfsi5izM_10balatro_rs10joker_impl7BurglarNtNtB6_5joker5Joker14on_card_scoredB6_
FN:885,_RNvYNtNtCs6ewEfsi5izM_10balatro_rs10joker_impl7BurglarNtNtB6_5joker5Joker14on_deactivatedB6_
FN:695,_RNvYNtNtCs6ewEfsi5izM_10balatro_rs10joker_impl7BurglarNtNtB6_5joker5Joker14on_hand_playedB6_
FN:1107,_RNvYNtNtCs6ewEfsi5izM_10balatro_rs10joker_impl7BurglarNtNtB6_5joker5Joker14validate_stateB6_
FN:1003,_RNvYNtNtCs6ewEfsi5izM_10balatro_rs10joker_impl7BurglarNtNtB6_5joker5Joker15modify_discardsB6_
FN:1033,_RNvYNtNtCs6ewEfsi5izM_10balatro_rs10joker_impl7BurglarNtNtB6_5joker5Joker15serialize_stateB6_
FN:1141,_RNvYNtNtCs6ewEfsi5izM_10balatro_rs10joker_impl7BurglarNtNtB6_5joker5Joker16initialize_stateB6_
FN:981,_RNvYNtNtCs6ewEfsi5izM_10balatro_rs10joker_impl7BurglarNtNtB6_5joker5Joker16modify_hand_sizeB6_
FN:1070,_RNvYNtNtCs6ewEfsi5izM_10balatro_rs10joker_impl7BurglarNtNtB6_5joker5Joker17deserialize_stateB6_
FN:915,_RNvYNtNtCs6ewEfsi5izM_10balatro_rs10joker_impl8MadJokerNtNtB6_5joker5Joker10on_cleanupB6_
FN:827,_RNvYNtNtCs6ewEfsi5izM_10balatro_rs10joker_impl8MadJokerNtNtB6_5joker5Joker10on_createdB6_
FN:776,_RNvYNtNtCs6ewEfsi5izM_10balatro_rs10joker_impl8MadJokerNtNtB6_5joker5Joker10on_discardB6_
FN:667,_RNvYNtNtCs6ewEfsi5izM_10balatro_rs10joker_impl8MadJokerNtNtB6_5joker5Joker10sell_valueB6_
FN:959,_RNvYNtNtCs6ewEfsi5izM_10balatro_rs10joker_impl8MadJokerNtNtB6_5joker5Joker11modify_multB6_
FN:938,_RNvYNtNtCs6ewEfsi5izM_10balatro_rs10joker_impl8MadJokerNtNtB6_5joker5Joker12modify_chipsB6_
FN:856,_RNvYNtNtCs6ewEfsi5izM_10balatro_rs10joker_impl8MadJokerNtNtB6_5joker5Joker12on_activatedB6_
FN:798,_RNvYNtNtCs6ewEfsi5izM_10balatro_rs10joker_impl8MadJokerNtNtB6_5joker5Joker12on_round_endB6_
FN:761,_RNvYNtNtCs6ewEfsi5izM_10balatro_rs10joker_impl8MadJokerNtNtB6_5joker5Joker12on_shop_openB6_
FN:1178,_RNvYNtNtCs6ewEfsi5izM_10balatro_rs10joker_impl8MadJokerNtNtB6_5joker5Joker13migrate_stateB6_
FN:747,_RNvYNtNtCs6ewEfsi5izM_10balatro_rs10joker_impl8MadJokerNtNtB6_5joker5Joker14on_blind_startB6_
FN:725,_RNvYNtNtCs6ewEfsi5izM_10balatro_rs10joker_impl8MadJokerNtNtB6_5joker5Joker14on_card_scoredB6_
FN:885,_RNvYNtNtCs6ewEfsi5izM_10balatro_rs10joker_impl8MadJokerNtNtB6_5joker5Joker14on_deactivatedB6_
FN:1107,_RNvYNtNtCs6ewEfsi5izM_10balatro_rs10joker_impl8MadJokerNtNtB6_5joker5Joker14validate_stateB6_
FN:1003,_RNvYNtNtCs6ewEfsi5izM_10balatro_rs10joker_impl8MadJokerNtNtB6_5joker5Joker15modify_discardsB6_
FN:1033,_RNvYNtNtCs6ewEfsi5izM_10balatro_rs10joker_impl8MadJokerNtNtB6_5joker5Joker15serialize_stateB6_
FN:1141,_RNvYNtNtCs6ewEfsi5izM_10balatro_rs10joker_impl8MadJokerNtNtB6_5joker5Joker16initialize_stateB6_
FN:981,_RNvYNtNtCs6ewEfsi5izM_10balatro_rs10joker_impl8MadJokerNtNtB6_5joker5Joker16modify_hand_sizeB6_
FN:1070,_RNvYNtNtCs6ewEfsi5izM_10balatro_rs10joker_impl8MadJokerNtNtB6_5joker5Joker17deserialize_stateB6_
FN:915,_RNvYNtNtCs6ewEfsi5izM_10balatro_rs10joker_impl8SlyJokerNtNtB6_5joker5Joker10on_cleanupB6_
FN:827,_RNvYNtNtCs6ewEfsi5izM_10balatro_rs10joker_impl8SlyJokerNtNtB6_5joker5Joker10on_createdB6_
FN:776,_RNvYNtNtCs6ewEfsi5izM_10balatro_rs10joker_impl8SlyJokerNtNtB6_5joker5Joker10on_discardB6_
FN:667,_RNvYNtNtCs6ewEfsi5izM_10balatro_rs10joker_impl8SlyJokerNtNtB6_5joker5Joker10sell_valueB6_
FN:959,_RNvYNtNtCs6ewEfsi5izM_10balatro_rs10joker_impl8SlyJokerNtNtB6_5joker5Joker11modify_multB6_
FN:938,_RNvYNtNtCs6ewEfsi5izM_10balatro_rs10joker_impl8SlyJokerNtNtB6_5joker5Joker12modify_chipsB6_
FN:856,_RNvYNtNtCs6ewEfsi5izM_10balatro_rs10joker_impl8SlyJokerNtNtB6_5joker5Joker12on_activatedB6_
FN:798,_RNvYNtNtCs6ewEfsi5izM_10balatro_rs10joker_impl8SlyJokerNtNtB6_5joker5Joker12on_round_endB6_
FN:761,_RNvYNtNtCs6ewEfsi5izM_10balatro_rs10joker_impl8SlyJokerNtNtB6_5joker5Joker12on_shop_openB6_
FN:1178,_RNvYNtNtCs6ewEfsi5izM_10balatro_rs10joker_impl8SlyJokerNtNtB6_5joker5Joker13migrate_stateB6_
FN:747,_RNvYNtNtCs6ewEfsi5izM_10balatro_rs10joker_impl8SlyJokerNtNtB6_5joker5Joker14on_blind_startB6_
FN:725,_RNvYNtNtCs6ewEfsi5izM_10balatro_rs10joker_impl8SlyJokerNtNtB6_5joker5Joker14on_card_scoredB6_
FN:885,_RNvYNtNtCs6ewEfsi5izM_10balatro_rs10joker_impl8SlyJokerNtNtB6_5joker5Joker14on_deactivatedB6_
FN:1107,_RNvYNtNtCs6ewEfsi5izM_10balatro_rs10joker_impl8SlyJokerNtNtB6_5joker5Joker14validate_stateB6_
FN:1003,_RNvYNtNtCs6ewEfsi5izM_10balatro_rs10joker_impl8SlyJokerNtNtB6_5joker5Joker15modify_discardsB6_
FN:1033,_RNvYNtNtCs6ewEfsi5izM_10balatro_rs10joker_impl8SlyJokerNtNtB6_5joker5Joker15serialize_stateB6_
FN:1141,_RNvYNtNtCs6ewEfsi5izM_10balatro_rs10joker_impl8SlyJokerNtNtB6_5joker5Joker16initialize_stateB6_
FN:981,_RNvYNtNtCs6ewEfsi5izM_10balatro_rs10joker_impl8SlyJokerNtNtB6_5joker5Joker16modify_hand_sizeB6_
FN:1070,_RNvYNtNtCs6ewEfsi5izM_10balatro_rs10joker_impl8SlyJokerNtNtB6_5joker5Joker17deserialize_stateB6_
FN:915,_RNvYNtNtCs6ewEfsi5izM_10balatro_rs10joker_impl8TheJokerNtNtB6_5joker5Joker10on_cleanupB6_
FN:827,_RNvYNtNtCs6ewEfsi5izM_10balatro_rs10joker_impl8TheJokerNtNtB6_5joker5Joker10on_createdB6_
FN:776,_RNvYNtNtCs6ewEfsi5izM_10balatro_rs10joker_impl8TheJokerNtNtB6_5joker5Joker10on_discardB6_
FN:667,_RNvYNtNtCs6ewEfsi5izM_10balatro_rs10joker_impl8TheJokerNtNtB6_5joker5Joker10sell_valueB6_
FN:959,_RNvYNtNtCs6ewEfsi5izM_10balatro_rs10joker_impl8TheJokerNtNtB6_5joker5Joker11modify_multB6_
FN:938,_RNvYNtNtCs6ewEfsi5izM_10balatro_rs10joker_impl8TheJokerNtNtB6_5joker5Joker12modify_chipsB6_
FN:856,_RNvYNtNtCs6ewEfsi5izM_10balatro_rs10joker_impl8TheJokerNtNtB6_5joker5Joker12on_activatedB6_
FN:798,_RNvYNtNtCs6ewEfsi5izM_10balatro_rs10joker_impl8TheJokerNtNtB6_5joker5Joker12on_round_endB6_
FN:761,_RNvYNtNtCs6ewEfsi5izM_10balatro_rs10joker_impl8TheJokerNtNtB6_5joker5Joker12on_shop_openB6_
FN:1178,_RNvYNtNtCs6ewEfsi5izM_10balatro_rs10joker_impl8TheJokerNtNtB6_5joker5Joker13migrate_stateB6_
FN:747,_RNvYNtNtCs6ewEfsi5izM_10balatro_rs10joker_impl8TheJokerNtNtB6_5joker5Joker14on_blind_startB6_
FN:725,_RNvYNtNtCs6ewEfsi5izM_10balatro_rs10joker_impl8TheJokerNtNtB6_5joker5Joker14on_card_scoredB6_
FN:885,_RNvYNtNtCs6ewEfsi5izM_10balatro_rs10joker_impl8TheJokerNtNtB6_5joker5Joker14on_deactivatedB6_
FN:1107,_RNvYNtNtCs6ewEfsi5izM_10balatro_rs10joker_impl8TheJokerNtNtB6_5joker5Joker14validate_stateB6_
FN:1003,_RNvYNtNtCs6ewEfsi5izM_10balatro_rs10joker_impl8TheJokerNtNtB6_5joker5Joker15modify_discardsB6_
FN:1033,_RNvYNtNtCs6ewEfsi5izM_10balatro_rs10joker_impl8TheJokerNtNtB6_5joker5Joker15serialize_stateB6_
FN:1141,_RNvYNtNtCs6ewEfsi5izM_10balatro_rs10joker_impl8TheJokerNtNtB6_5joker5Joker16initialize_stateB6_
FN:981,_RNvYNtNtCs6ewEfsi5izM_10balatro_rs10joker_impl8TheJokerNtNtB6_5joker5Joker16modify_hand_sizeB6_
FN:1070,_RNvYNtNtCs6ewEfsi5izM_10balatro_rs10joker_impl8TheJokerNtNtB6_5joker5Joker17deserialize_stateB6_
FN:915,_RNvYNtNtCs6ewEfsi5izM_10balatro_rs10joker_impl9WilyJokerNtNtB6_5joker5Joker10on_cleanupB6_
FN:827,_RNvYNtNtCs6ewEfsi5izM_10balatro_rs10joker_impl9WilyJokerNtNtB6_5joker5Joker10on_createdB6_
FN:776,_RNvYNtNtCs6ewEfsi5izM_10balatro_rs10joker_impl9WilyJokerNtNtB6_5joker5Joker10on_discardB6_
FN:667,_RNvYNtNtCs6ewEfsi5izM_10balatro_rs10joker_impl9WilyJokerNtNtB6_5joker5Joker10sell_valueB6_
FN:959,_RNvYNtNtCs6ewEfsi5izM_10balatro_rs10joker_impl9WilyJokerNtNtB6_5joker5Joker11modify_multB6_
FN:938,_RNvYNtNtCs6ewEfsi5izM_10balatro_rs10joker_impl9WilyJokerNtNtB6_5joker5Joker12modify_chipsB6_
FN:856,_RNvYNtNtCs6ewEfsi5izM_10balatro_rs10joker_impl9WilyJokerNtNtB6_5joker5Joker12on_activatedB6_
FN:798,_RNvYNtNtCs6ewEfsi5izM_10balatro_rs10joker_impl9WilyJokerNtNtB6_5joker5Joker12on_round_endB6_
FN:761,_RNvYNtNtCs6ewEfsi5izM_10balatro_rs10joker_impl9WilyJokerNtNtB6_5joker5Joker12on_shop_openB6_
FN:1178,_RNvYNtNtCs6ewEfsi5izM_10balatro_rs10joker_impl9WilyJokerNtNtB6_5joker5Joker13migrate_stateB6_
FN:747,_RNvYNtNtCs6ewEfsi5izM_10balatro_rs10joker_impl9WilyJokerNtNtB6_5joker5Joker14on_blind_startB6_
FN:725,_RNvYNtNtCs6ewEfsi5izM_10balatro_rs10joker_impl9WilyJokerNtNtB6_5joker5Joker14on_card_scoredB6_
FN:885,_RNvYNtNtCs6ewEfsi5izM_10balatro_rs10joker_impl9WilyJokerNtNtB6_5joker5Joker14on_deactivatedB6_
FN:1107,_RNvYNtNtCs6ewEfsi5izM_10balatro_rs10joker_impl9WilyJokerNtNtB6_5joker5Joker14validate_stateB6_
FN:1003,_RNvYNtNtCs6ewEfsi5izM_10balatro_rs10joker_impl9WilyJokerNtNtB6_5joker5Joker15modify_discardsB6_
FN:1033,_RNvYNtNtCs6ewEfsi5izM_10balatro_rs10joker_impl9WilyJokerNtNtB6_5joker5Joker15serialize_stateB6_
FN:1141,_RNvYNtNtCs6ewEfsi5izM_10balatro_rs10joker_impl9WilyJokerNtNtB6_5joker5Joker16initialize_stateB6_
FN:981,_RNvYNtNtCs6ewEfsi5izM_10balatro_rs10joker_impl9WilyJokerNtNtB6_5joker5Joker16modify_hand_sizeB6_
FN:1070,_RNvYNtNtCs6ewEfsi5izM_10balatro_rs10joker_impl9WilyJokerNtNtB6_5joker5Joker17deserialize_stateB6_
FN:915,_RNvYNtNtCs6ewEfsi5izM_10balatro_rs10joker_impl9ZanyJokerNtNtB6_5joker5Joker10on_cleanupB6_
FN:827,_RNvYNtNtCs6ewEfsi5izM_10balatro_rs10joker_impl9ZanyJokerNtNtB6_5joker5Joker10on_createdB6_
FN:776,_RNvYNtNtCs6ewEfsi5izM_10balatro_rs10joker_impl9ZanyJokerNtNtB6_5joker5Joker10on_discardB6_
FN:667,_RNvYNtNtCs6ewEfsi5izM_10balatro_rs10joker_impl9ZanyJokerNtNtB6_5joker5Joker10sell_valueB6_
FN:959,_RNvYNtNtCs6ewEfsi5izM_10balatro_rs10joker_impl9ZanyJokerNtNtB6_5joker5Joker11modify_multB6_
FN:938,_RNvYNtNtCs6ewEfsi5izM_10balatro_rs10joker_impl9ZanyJokerNtNtB6_5joker5Joker12modify_chipsB6_
FN:856,_RNvYNtNtCs6ewEfsi5izM_10balatro_rs10joker_impl9ZanyJokerNtNtB6_5joker5Joker12on_activatedB6_
FN:798,_RNvYNtNtCs6ewEfsi5izM_10balatro_rs10joker_impl9ZanyJokerNtNtB6_5joker5Joker12on_round_endB6_
FN:761,_RNvYNtNtCs6ewEfsi5izM_10balatro_rs10joker_impl9ZanyJokerNtNtB6_5joker5Joker12on_shop_openB6_
FN:1178,_RNvYNtNtCs6ewEfsi5izM_10balatro_rs10joker_impl9ZanyJokerNtNtB6_5joker5Joker13migrate_stateB6_
FN:747,_RNvYNtNtCs6ewEfsi5izM_10balatro_rs10joker_impl9ZanyJokerNtNtB6_5joker5Joker14on_blind_startB6_
FN:725,_RNvYNtNtCs6ewEfsi5izM_10balatro_rs10joker_impl9ZanyJokerNtNtB6_5joker5Joker14on_card_scoredB6_
FN:885,_RNvYNtNtCs6ewEfsi5izM_10balatro_rs10joker_impl9ZanyJokerNtNtB6_5joker5Joker14on_deactivatedB6_
FN:1107,_RNvYNtNtCs6ewEfsi5izM_10balatro_rs10joker_impl9ZanyJokerNtNtB6_5joker5Joker14validate_stateB6_
FN:1003,_RNvYNtNtCs6ewEfsi5izM_10balatro_rs10joker_impl9ZanyJokerNtNtB6_5joker5Joker15modify_discardsB6_
FN:1033,_RNvYNtNtCs6ewEfsi5izM_10balatro_rs10joker_impl9ZanyJokerNtNtB6_5joker5Joker15serialize_stateB6_
FN:1141,_RNvYNtNtCs6ewEfsi5izM_10balatro_rs10joker_impl9ZanyJokerNtNtB6_5joker5Joker16initialize_stateB6_
FN:981,_RNvYNtNtCs6ewEfsi5izM_10balatro_rs10joker_impl9ZanyJokerNtNtB6_5joker5Joker16modify_hand_sizeB6_
FN:1070,_RNvYNtNtCs6ewEfsi5izM_10balatro_rs10joker_impl9ZanyJokerNtNtB6_5joker5Joker17deserialize_stateB6_
FN:519,_RNvMs0_NtCs6ewEfsi5izM_10balatro_rs5jokerNtB5_11GameContext19get_hand_type_count
FN:457,_RNvMsN_NtCs6ewEfsi5izM_10balatro_rs5jokerNtB5_11JokerEffect11discard_mod
FN:429,_RNvMsN_NtCs6ewEfsi5izM_10balatro_rs5jokerNtB5_11JokerEffect12destroy_self
FN:450,_RNvMsN_NtCs6ewEfsi5izM_10balatro_rs5jokerNtB5_11JokerEffect13hand_size_mod
FN:436,_RNvMsN_NtCs6ewEfsi5izM_10balatro_rs5jokerNtB5_11JokerEffect14destroy_others
FN:415,_RNvMsN_NtCs6ewEfsi5izM_10balatro_rs5jokerNtB5_11JokerEffect15mult_multiplier
FN:443,_RNvMsN_NtCs6ewEfsi5izM_10balatro_rs5jokerNtB5_11JokerEffect15transform_cards
FN:464,_RNvMsN_NtCs6ewEfsi5izM_10balatro_rs5jokerNtB5_11JokerEffect19sell_value_increase
FN:401,_RNvMsN_NtCs6ewEfsi5izM_10balatro_rs5jokerNtB5_11JokerEffect4mult
FN:394,_RNvMsN_NtCs6ewEfsi5izM_10balatro_rs5jokerNtB5_11JokerEffect5chips
FN:408,_RNvMsN_NtCs6ewEfsi5izM_10balatro_rs5jokerNtB5_11JokerEffect5money
FN:471,_RNvMsN_NtCs6ewEfsi5izM_10balatro_rs5jokerNtB5_11JokerEffect7message
FN:422,_RNvMsN_NtCs6ewEfsi5izM_10balatro_rs5jokerNtB5_11JokerEffect9retrigger
FN:389,_RNvMsP_NtCs6ewEfsi5izM_10balatro_rs5jokerNtB5_11JokerEffect21___pymethod_get_mult__
FN:389,_RNvMsP_NtCs6ewEfsi5izM_10balatro_rs5jokerNtB5_11JokerEffect22___pymethod_get_chips__
FN:389,_RNvMsP_NtCs6ewEfsi5izM_10balatro_rs5jokerNtB5_11JokerEffect22___pymethod_get_money__
FN:389,_RNvMsP_NtCs6ewEfsi5izM_10balatro_rs5jokerNtB5_11JokerEffect24___pymethod_get_message__
FN:389,_RNvMsP_NtCs6ewEfsi5izM_10balatro_rs5jokerNtB5_11JokerEffect26___pymethod_get_retrigger__
FN:389,_RNvMsP_NtCs6ewEfsi5izM_10balatro_rs5jokerNtB5_11JokerEffect28___pymethod_get_discard_mod__
FN:389,_RNvMsP_NtCs6ewEfsi5izM_10balatro_rs5jokerNtB5_11JokerEffect29___pymethod_get_destroy_self__
FN:389,_RNvMsP_NtCs6ewEfsi5izM_10balatro_rs5jokerNtB5_11JokerEffect30___pymethod_get_hand_size_mod__
FN:389,_RNvMsP_NtCs6ewEfsi5izM_10balatro_rs5jokerNtB5_11JokerEffect31___pymethod_get_destroy_others__
FN:389,_RNvMsP_NtCs6ewEfsi5izM_10balatro_rs5jokerNtB5_11JokerEffect32___pymethod_get_mult_multiplier__
FN:389,_RNvMsP_NtCs6ewEfsi5izM_10balatro_rs5jokerNtB5_11JokerEffect32___pymethod_get_transform_cards__
FN:389,_RNvMsP_NtCs6ewEfsi5izM_10balatro_rs5jokerNtB5_11JokerEffect36___pymethod_get_sell_value_increase__
FN:353,_RNvMs_NtCs6ewEfsi5izM_10balatro_rs5jokerNtB4_11JokerEffect10with_chips
FN:365,_RNvMs_NtCs6ewEfsi5izM_10balatro_rs5jokerNtB4_11JokerEffect10with_money
FN:383,_RNvMs_NtCs6ewEfsi5izM_10balatro_rs5jokerNtB4_11JokerEffect12with_message
FN:371,_RNvMs_NtCs6ewEfsi5izM_10balatro_rs5jokerNtB4_11JokerEffect20with_mult_multiplier
FN:377,_RNvMs_NtCs6ewEfsi5izM_10balatro_rs5jokerNtB4_11JokerEffect24with_sell_value_increase
FN:348,_RNvMs_NtCs6ewEfsi5izM_10balatro_rs5jokerNtB4_11JokerEffect3new
FN:359,_RNvMs_NtCs6ewEfsi5izM_10balatro_rs5jokerNtB4_11JokerEffect9with_mult
FN:16,_RNvMsf_NtCs6ewEfsi5izM_10balatro_rs5jokerNtB5_7JokerId38___pymethod___default___pyo3__int______
FN:16,_RNvMsf_NtCs6ewEfsi5izM_10balatro_rs5jokerNtB5_7JokerId39___pymethod___default___pyo3__repr______
FN:196,_RNvMsw_NtCs6ewEfsi5izM_10balatro_rs5jokerNtB5_11JokerRarity38___pymethod___default___pyo3__int______
FN:196,_RNvMsw_NtCs6ewEfsi5izM_10balatro_rs5jokerNtB5_11JokerRarity39___pymethod___default___pyo3__repr______
FN:1225,_RINvNvNtNtCs6ewEfsi5izM_10balatro_rs5joker5testss_23test_joker_trait_bounds16assert_send_syncINtNtCsaFPxhswmqCN_5alloc5boxed3BoxDNtB6_5JokerEL_EEB8_
FN:519,_RNvMs0_NtCsfztrlbScSWy_10balatro_rs5jokerNtB5_11GameContext19get_hand_type_count
FN:457,_RNvMsN_NtCsfztrlbScSWy_10balatro_rs5jokerNtB5_11JokerEffect11discard_mod
FN:429,_RNvMsN_NtCsfztrlbScSWy_10balatro_rs5jokerNtB5_11JokerEffect12destroy_self
FN:450,_RNvMsN_NtCsfztrlbScSWy_10balatro_rs5jokerNtB5_11JokerEffect13hand_size_mod
FN:436,_RNvMsN_NtCsfztrlbScSWy_10balatro_rs5jokerNtB5_11JokerEffect14destroy_others
FN:415,_RNvMsN_NtCsfztrlbScSWy_10balatro_rs5jokerNtB5_11JokerEffect15mult_multiplier
FN:443,_RNvMsN_NtCsfztrlbScSWy_10balatro_rs5jokerNtB5_11JokerEffect15transform_cards
FN:464,_RNvMsN_NtCsfztrlbScSWy_10balatro_rs5jokerNtB5_11JokerEffect19sell_value_increase
FN:401,_RNvMsN_NtCsfztrlbScSWy_10balatro_rs5jokerNtB5_11JokerEffect4mult
FN:394,_RNvMsN_NtCsfztrlbScSWy_10balatro_rs5jokerNtB5_11JokerEffect5chips
FN:408,_RNvMsN_NtCsfztrlbScSWy_10balatro_rs5jokerNtB5_11JokerEffect5money
FN:471,_RNvMsN_NtCsfztrlbScSWy_10balatro_rs5jokerNtB5_11JokerEffect7message
FN:422,_RNvMsN_NtCsfztrlbScSWy_10balatro_rs5jokerNtB5_11JokerEffect9retrigger
FN:389,_RNvMsP_NtCsfztrlbScSWy_10balatro_rs5jokerNtB5_11JokerEffect21___pymethod_get_mult__
FN:389,_RNvMsP_NtCsfztrlbScSWy_10balatro_rs5jokerNtB5_11JokerEffect22___pymethod_get_chips__
FN:389,_RNvMsP_NtCsfztrlbScSWy_10balatro_rs5jokerNtB5_11JokerEffect22___pymethod_get_money__
FN:389,_RNvMsP_NtCsfztrlbScSWy_10balatro_rs5jokerNtB5_11JokerEffect24___pymethod_get_message__
FN:389,_RNvMsP_NtCsfztrlbScSWy_10balatro_rs5jokerNtB5_11JokerEffect26___pymethod_get_retrigger__
FN:389,_RNvMsP_NtCsfztrlbScSWy_10balatro_rs5jokerNtB5_11JokerEffect28___pymethod_get_discard_mod__
FN:389,_RNvMsP_NtCsfztrlbScSWy_10balatro_rs5jokerNtB5_11JokerEffect29___pymethod_get_destroy_self__
FN:389,_RNvMsP_NtCsfztrlbScSWy_10balatro_rs5jokerNtB5_11JokerEffect30___pymethod_get_hand_size_mod__
FN:389,_RNvMsP_NtCsfztrlbScSWy_10balatro_rs5jokerNtB5_11JokerEffect31___pymethod_get_destroy_others__
FN:389,_RNvMsP_NtCsfztrlbScSWy_10balatro_rs5jokerNtB5_11JokerEffect32___pymethod_get_mult_multiplier__
FN:389,_RNvMsP_NtCsfztrlbScSWy_10balatro_rs5jokerNtB5_11JokerEffect32___pymethod_get_transform_cards__
FN:389,_RNvMsP_NtCsfztrlbScSWy_10balatro_rs5jokerNtB5_11JokerEffect36___pymethod_get_sell_value_increase__
FN:353,_RNvMs_NtCsfztrlbScSWy_10balatro_rs5jokerNtB4_11JokerEffect10with_chips
FN:365,_RNvMs_NtCsfztrlbScSWy_10balatro_rs5jokerNtB4_11JokerEffect10with_money
FN:383,_RNvMs_NtCsfztrlbScSWy_10balatro_rs5jokerNtB4_11JokerEffect12with_message
FN:371,_RNvMs_NtCsfztrlbScSWy_10balatro_rs5jokerNtB4_11JokerEffect20with_mult_multiplier
FN:377,_RNvMs_NtCsfztrlbScSWy_10balatro_rs5jokerNtB4_11JokerEffect24with_sell_value_increase
FN:348,_RNvMs_NtCsfztrlbScSWy_10balatro_rs5jokerNtB4_11JokerEffect3new
FN:359,_RNvMs_NtCsfztrlbScSWy_10balatro_rs5jokerNtB4_11JokerEffect9with_mult
FN:16,_RNvMsf_NtCsfztrlbScSWy_10balatro_rs5jokerNtB5_7JokerId38___pymethod___default___pyo3__int______
FN:16,_RNvMsf_NtCsfztrlbScSWy_10balatro_rs5jokerNtB5_7JokerId39___pymethod___default___pyo3__repr______
FN:196,_RNvMsw_NtCsfztrlbScSWy_10balatro_rs5jokerNtB5_11JokerRarity38___pymethod___default___pyo3__int______
FN:196,_RNvMsw_NtCsfztrlbScSWy_10balatro_rs5jokerNtB5_11JokerRarity39___pymethod___default___pyo3__repr______
FN:205,_RNvXNtCsfztrlbScSWy_10balatro_rs5jokerNtB2_11JokerRarityNtNtCs1p5UDGgVI4d_4core3fmt7Display3fmt
FN:15,_RINvXs0_NvXNvNtCsfztrlbScSWy_10balatro_rs5jokers_1__NtBb_7JokerIdNtNtCsWuCv7H75Ac_5serde2de11Deserialize11deserializeNtB6_9___VisitorNtB13_7Visitor10visit_enumINtNtCs9DWYcYz1PvJ_10serde_json2de13VariantAccessNtNtB2C_4read7StrReadEEBd_
FN:15,_RINvXs0_NvXNvNtCsfztrlbScSWy_10balatro_rs5jokers_1__NtBb_7JokerIdNtNtCsWuCv7H75Ac_5serde2de11Deserialize11deserializeNtB6_9___VisitorNtB13_7Visitor10visit_enumINtNtCs9DWYcYz1PvJ_10serde_json2de17UnitVariantAccessNtNtB2C_4read7StrReadEEBd_
FN:1184,_RNCNvYNtNtCsfztrlbScSWy_10balatro_rs10joker_impl10CrazyJokerNtNtB8_5joker5Joker13migrate_state0B8_
FN:1184,_RNCNvYNtNtCsfztrlbScSWy_10balatro_rs10joker_impl10DrollJokerNtNtB8_5joker5Joker13migrate_state0B8_
FN:1184,_RNCNvYNtNtCsfztrlbScSWy_10balatro_rs10joker_impl10JollyJokerNtNtB8_5joker5Joker13migrate_state0B8_
FN:1184,_RNCNvYNtNtCsfztrlbScSWy_10balatro_rs10joker_impl10LustyJokerNtNtB8_5joker5Joker13migrate_state0B8_
FN:1184,_RNCNvYNtNtCsfztrlbScSWy_10balatro_rs10joker_impl10SpaceJokerNtNtB8_5joker5Joker13migrate_state0B8_
FN:1184,_RNCNvYNtNtCsfztrlbScSWy_10balatro_rs10joker_impl11CleverJokerNtNtB8_5joker5Joker13migrate_state0B8_
FN:1184,_RNCNvYNtNtCsfztrlbScSWy_10balatro_rs10joker_impl11CraftyJokerNtNtB8_5joker5Joker13migrate_state0B8_
FN:1184,_RNCNvYNtNtCsfztrlbScSWy_10balatro_rs10joker_impl11GreedyJokerNtNtB8_5joker5Joker13migrate_state0B8_
FN:1184,_RNCNvYNtNtCsfztrlbScSWy_10balatro_rs10joker_impl11RunnerJokerNtNtB8_5joker5Joker13migrate_state0B8_
FN:1184,_RNCNvYNtNtCsfztrlbScSWy_10balatro_rs10joker_impl12BusinessCardNtNtB8_5joker5Joker13migrate_state0B8_
FN:1184,_RNCNvYNtNtCsfztrlbScSWy_10balatro_rs10joker_impl12DeviousJokerNtNtB8_5joker5Joker13migrate_state0B8_
FN:1184,_RNCNvYNtNtCsfztrlbScSWy_10balatro_rs10joker_impl13IceCreamJokerNtNtB8_5joker5Joker13migrate_state0B8_
FN:1184,_RNCNvYNtNtCsfztrlbScSWy_10balatro_rs10joker_impl13WrathfulJokerNtNtB8_5joker5Joker13migrate_state0B8_
FN:1184,_RNCNvYNtNtCsfztrlbScSWy_10balatro_rs10joker_impl14SupernovaJokerNtNtB8_5joker5Joker13migrate_state0B8_
FN:1184,_RNCNvYNtNtCsfztrlbScSWy_10balatro_rs10joker_impl15GluttonousJokerNtNtB8_5joker5Joker13migrate_state0B8_
FN:1184,_RNCNvYNtNtCsfztrlbScSWy_10balatro_rs10joker_impl3EggNtNtB8_5joker5Joker13migrate_state0B8_
FN:1184,_RNCNvYNtNtCsfztrlbScSWy_10balatro_rs10joker_impl7BurglarNtNtB8_5joker5Joker13migrate_state0B8_
FN:1184,_RNCNvYNtNtCsfztrlbScSWy_10balatro_rs10joker_impl8MadJokerNtNtB8_5joker5Joker13migrate_state0B8_
FN:1184,_RNCNvYNtNtCsfztrlbScSWy_10balatro_rs10joker_impl8SlyJokerNtNtB8_5joker5Joker13migrate_state0B8_
FN:1184,_RNCNvYNtNtCsfztrlbScSWy_10balatro_rs10joker_impl8TheJokerNtNtB8_5joker5Joker13migrate_state0B8_
FN:1184,_RNCNvYNtNtCsfztrlbScSWy_10balatro_rs10joker_impl9WilyJokerNtNtB8_5joker5Joker13migrate_state0B8_
FN:1184,_RNCNvYNtNtCsfztrlbScSWy_10balatro_rs10joker_impl9ZanyJokerNtNtB8_5joker5Joker13migrate_state0B8_
FN:1184,_RNCNvYNtNtCsfztrlbScSWy_10balatro_rs12static_joker11StaticJokerNtNtB8_5joker5Joker13migrate_state0B8_
FN:1184,_RNCNvYNtNtNtCsfztrlbScSWy_10balatro_rs5joker23hand_composition_jokers8DnaJokerNtB8_5Joker13migrate_state0Ba_
FN:195,_RINvXs0_NvXNvNtCsfztrlbScSWy_10balatro_rs5jokers2_1__NtBb_11JokerRarityNtNtCsWuCv7H75Ac_5serde2de11Deserialize11deserializeNtB6_9___VisitorNtB19_7Visitor10visit_enumpEBd_
FN:278,_RINvXs0_NvXNvNtCsfztrlbScSWy_10balatro_rs5jokers5_1__NtBb_11JokerEffectNtNtCsWuCv7H75Ac_5serde2de11Deserialize11deserializeNtB6_9___VisitorNtB19_7Visitor9visit_mappEBd_
FN:278,_RINvXs0_NvXNvNtCsfztrlbScSWy_10balatro_rs5jokers5_1__NtBb_11JokerEffectNtNtCsWuCv7H75Ac_5serde2de11Deserialize11deserializeNtB6_9___VisitorNtB19_7Visitor9visit_seqpEBd_
FN:657,_RNvYpNtNtCsfztrlbScSWy_10balatro_rs5joker5Joker4costB7_
FN:915,_RNvYNtNtCsfztrlbScSWy_10balatro_rs12static_joker11StaticJokerNtNtB6_5joker5Joker10on_cleanupB6_
FN:827,_RNvYNtNtCsfztrlbScSWy_10balatro_rs12static_joker11StaticJokerNtNtB6_5joker5Joker10on_createdB6_
FN:776,_RNvYNtNtCsfztrlbScSWy_10balatro_rs12static_joker11StaticJokerNtNtB6_5joker5Joker10on_discardB6_
FN:667,_RNvYNtNtCsfztrlbScSWy_10balatro_rs12static_joker11StaticJokerNtNtB6_5joker5Joker10sell_valueB6_
FN:959,_RNvYNtNtCsfztrlbScSWy_10balatro_rs12static_joker11StaticJokerNtNtB6_5joker5Joker11modify_multB6_
FN:938,_RNvYNtNtCsfztrlbScSWy_10balatro_rs12static_joker11StaticJokerNtNtB6_5joker5Joker12modify_chipsB6_
FN:856,_RNvYNtNtCsfztrlbScSWy_10balatro_rs12static_joker11StaticJokerNtNtB6_5joker5Joker12on_activatedB6_
FN:798,_RNvYNtNtCsfztrlbScSWy_10balatro_rs12static_joker11StaticJokerNtNtB6_5joker5Joker12on_round_endB6_
FN:761,_RNvYNtNtCsfztrlbScSWy_10balatro_rs12static_joker11StaticJokerNtNtB6_5joker5Joker12on_shop_openB6_
FN:1178,_RNvYNtNtCsfztrlbScSWy_10balatro_rs12static_joker11StaticJokerNtNtB6_5joker5Joker13migrate_stateB6_
FN:747,_RNvYNtNtCsfztrlbScSWy_10balatro_rs12static_joker11StaticJokerNtNtB6_5joker5Joker14on_blind_startB6_
FN:885,_RNvYNtNtCsfztrlbScSWy_10balatro_rs12static_joker11StaticJokerNtNtB6_5joker5Joker14on_deactivatedB6_
FN:1107,_RNvYNtNtCsfztrlbScSWy_10balatro_rs12static_joker11StaticJokerNtNtB6_5joker5Joker14validate_stateB6_
FN:1003,_RNvYNtNtCsfztrlbScSWy_10balatro_rs12static_joker11StaticJokerNtNtB6_5joker5Joker15modify_discardsB6_
FN:1033,_RNvYNtNtCsfztrlbScSWy_10balatro_rs12static_joker11StaticJokerNtNtB6_5joker5Joker15serialize_stateB6_
FN:1141,_RNvYNtNtCsfztrlbScSWy_10balatro_rs12static_joker11StaticJokerNtNtB6_5joker5Joker16initialize_stateB6_
FN:981,_RNvYNtNtCsfztrlbScSWy_10balatro_rs12static_joker11StaticJokerNtNtB6_5joker5Joker16modify_hand_sizeB6_
FN:1070,_RNvYNtNtCsfztrlbScSWy_10balatro_rs12static_joker11StaticJokerNtNtB6_5joker5Joker17deserialize_stateB6_
FN:915,_RNvYNtNtCsfztrlbScSWy_10balatro_rs10joker_impl10CrazyJokerNtNtB6_5joker5Joker10on_cleanupB6_
FN:827,_RNvYNtNtCsfztrlbScSWy_10balatro_rs10joker_impl10CrazyJokerNtNtB6_5joker5Joker10on_createdB6_
FN:776,_RNvYNtNtCsfztrlbScSWy_10balatro_rs10joker_impl10CrazyJokerNtNtB6_5joker5Joker10on_discardB6_
FN:667,_RNvYNtNtCsfztrlbScSWy_10balatro_rs10joker_impl10CrazyJokerNtNtB6_5joker5Joker10sell_valueB6_
FN:959,_RNvYNtNtCsfztrlbScSWy_10balatro_rs10joker_impl10CrazyJokerNtNtB6_5joker5Joker11modify_multB6_
FN:938,_RNvYNtNtCsfztrlbScSWy_10balatro_rs10joker_impl10CrazyJokerNtNtB6_5joker5Joker12modify_chipsB6_
FN:856,_RNvYNtNtCsfztrlbScSWy_10balatro_rs10joker_impl10CrazyJokerNtNtB6_5joker5Joker12on_activatedB6_
FN:798,_RNvYNtNtCsfztrlbScSWy_10balatro_rs10joker_impl10CrazyJokerNtNtB6_5joker5Joker12on_round_endB6_
FN:761,_RNvYNtNtCsfztrlbScSWy_10balatro_rs10joker_impl10CrazyJokerNtNtB6_5joker5Joker12on_shop_openB6_
FN:1178,_RNvYNtNtCsfztrlbScSWy_10balatro_rs10joker_impl10CrazyJokerNtNtB6_5joker5Joker13migrate_stateB6_
FN:747,_RNvYNtNtCsfztrlbScSWy_10balatro_rs10joker_impl10CrazyJokerNtNtB6_5joker5Joker14on_blind_startB6_
FN:725,_RNvYNtNtCsfztrlbScSWy_10balatro_rs10joker_impl10CrazyJokerNtNtB6_5joker5Joker14on_card_scoredB6_
FN:885,_RNvYNtNtCsfztrlbScSWy_10balatro_rs10joker_impl10CrazyJokerNtNtB6_5joker5Joker14on_deactivatedB6_
FN:1107,_RNvYNtNtCsfztrlbScSWy_10balatro_rs10joker_impl10CrazyJokerNtNtB6_5joker5Joker14validate_stateB6_
FN:1003,_RNvYNtNtCsfztrlbScSWy_10balatro_rs10joker_impl10CrazyJokerNtNtB6_5joker5Joker15modify_discardsB6_
FN:1033,_RNvYNtNtCsfztrlbScSWy_10balatro_rs10joker_impl10CrazyJokerNtNtB6_5joker5Joker15serialize_stateB6_
FN:1141,_RNvYNtNtCsfztrlbScSWy_10balatro_rs10joker_impl10CrazyJokerNtNtB6_5joker5Joker16initialize_stateB6_
FN:981,_RNvYNtNtCsfztrlbScSWy_10balatro_rs10joker_impl10CrazyJokerNtNtB6_5joker5Joker16modify_hand_sizeB6_
FN:1070,_RNvYNtNtCsfztrlbScSWy_10balatro_rs10joker_impl10CrazyJokerNtNtB6_5joker5Joker17deserialize_stateB6_
FN:915,_RNvYNtNtCsfztrlbScSWy_10balatro_rs10joker_impl10DrollJokerNtNtB6_5joker5Joker10on_cleanupB6_
FN:827,_RNvYNtNtCsfztrlbScSWy_10balatro_rs10joker_impl10DrollJokerNtNtB6_5joker5Joker10on_createdB6_
FN:776,_RNvYNtNtCsfztrlbScSWy_10balatro_rs10joker_impl10DrollJokerNtNtB6_5joker5Joker10on_discardB6_
FN:667,_RNvYNtNtCsfztrlbScSWy_10balatro_rs10joker_impl10DrollJokerNtNtB6_5joker5Joker10sell_valueB6_
FN:959,_RNvYNtNtCsfztrlbScSWy_10balatro_rs10joker_impl10DrollJokerNtNtB6_5joker5Joker11modify_multB6_
FN:938,_RNvYNtNtCsfztrlbScSWy_10balatro_rs10joker_impl10DrollJokerNtNtB6_5joker5Joker12modify_chipsB6_
FN:856,_RNvYNtNtCsfztrlbScSWy_10balatro_rs10joker_impl10DrollJokerNtNtB6_5joker5Joker12on_activatedB6_
FN:798,_RNvYNtNtCsfztrlbScSWy_10balatro_rs10joker_impl10DrollJokerNtNtB6_5joker5Joker12on_round_endB6_
FN:761,_RNvYNtNtCsfztrlbScSWy_10balatro_rs10joker_impl10DrollJokerNtNtB6_5joker5Joker12on_shop_openB6_
FN:1178,_RNvYNtNtCsfztrlbScSWy_10balatro_rs10joker_impl10DrollJokerNtNtB6_5joker5Joker13migrate_stateB6_
FN:747,_RNvYNtNtCsfztrlbScSWy_10balatro_rs10joker_impl10DrollJokerNtNtB6_5joker5Joker14on_blind_startB6_
FN:725,_RNvYNtNtCsfztrlbScSWy_10balatro_rs10joker_impl10DrollJokerNtNtB6_5joker5Joker14on_card_scoredB6_
FN:885,_RNvYNtNtCsfztrlbScSWy_10balatro_rs10joker_impl10DrollJokerNtNtB6_5joker5Joker14on_deactivatedB6_
FN:1107,_RNvYNtNtCsfztrlbScSWy_10balatro_rs10joker_impl10DrollJokerNtNtB6_5joker5Joker14validate_stateB6_
FN:1003,_RNvYNtNtCsfztrlbScSWy_10balatro_rs10joker_impl10DrollJokerNtNtB6_5joker5Joker15modify_discardsB6_
FN:1033,_RNvYNtNtCsfztrlbScSWy_10balatro_rs10joker_impl10DrollJokerNtNtB6_5joker5Joker15serialize_stateB6_
FN:1141,_RNvYNtNtCsfztrlbScSWy_10balatro_rs10joker_impl10DrollJokerNtNtB6_5joker5Joker16initialize_stateB6_
FN:981,_RNvYNtNtCsfztrlbScSWy_10balatro_rs10joker_impl10DrollJokerNtNtB6_5joker5Joker16modify_hand_sizeB6_
FN:1070,_RNvYNtNtCsfztrlbScSWy_10balatro_rs10joker_impl10DrollJokerNtNtB6_5joker5Joker17deserialize_stateB6_
FN:915,_RNvYNtNtCsfztrlbScSWy_10balatro_rs10joker_impl10JollyJokerNtNtB6_5joker5Joker10on_cleanupB6_
FN:827,_RNvYNtNtCsfztrlbScSWy_10balatro_rs10joker_impl10JollyJokerNtNtB6_5joker5Joker10on_createdB6_
FN:776,_RNvYNtNtCsfztrlbScSWy_10balatro_rs10joker_impl10JollyJokerNtNtB6_5joker5Joker10on_discardB6_
FN:667,_RNvYNtNtCsfztrlbScSWy_10balatro_rs10joker_impl10JollyJokerNtNtB6_5joker5Joker10sell_valueB6_
FN:959,_RNvYNtNtCsfztrlbScSWy_10balatro_rs10joker_impl10JollyJokerNtNtB6_5joker5Joker11modify_multB6_
FN:938,_RNvYNtNtCsfztrlbScSWy_10balatro_rs10joker_impl10JollyJokerNtNtB6_5joker5Joker12modify_chipsB6_
FN:856,_RNvYNtNtCsfztrlbScSWy_10balatro_rs10joker_impl10JollyJokerNtNtB6_5joker5Joker12on_activatedB6_
FN:798,_RNvYNtNtCsfztrlbScSWy_10balatro_rs10joker_impl10JollyJokerNtNtB6_5joker5Joker12on_round_endB6_
FN:761,_RNvYNtNtCsfztrlbScSWy_10balatro_rs10joker_impl10JollyJokerNtNtB6_5joker5Joker12on_shop_openB6_
FN:1178,_RNvYNtNtCsfztrlbScSWy_10balatro_rs10joker_impl10JollyJokerNtNtB6_5joker5Joker13migrate_stateB6_
FN:747,_RNvYNtNtCsfztrlbScSWy_10balatro_rs10joker_impl10JollyJokerNtNtB6_5joker5Joker14on_blind_startB6_
FN:725,_RNvYNtNtCsfztrlbScSWy_10balatro_rs10joker_impl10JollyJokerNtNtB6_5joker5Joker14on_card_scoredB6_
FN:885,_RNvYNtNtCsfztrlbScSWy_10balatro_rs10joker_impl10JollyJokerNtNtB6_5joker5Joker14on_deactivatedB6_
FN:1107,_RNvYNtNtCsfztrlbScSWy_10balatro_rs10joker_impl10JollyJokerNtNtB6_5joker5Joker14validate_stateB6_
FN:1003,_RNvYNtNtCsfztrlbScSWy_10balatro_rs10joker_impl10JollyJokerNtNtB6_5joker5Joker15modify_discardsB6_
FN:1033,_RNvYNtNtCsfztrlbScSWy_10balatro_rs10joker_impl10JollyJokerNtNtB6_5joker5Joker15serialize_stateB6_
FN:1141,_RNvYNtNtCsfztrlbScSWy_10balatro_rs10joker_impl10JollyJokerNtNtB6_5joker5Joker16initialize_stateB6_
FN:981,_RNvYNtNtCsfztrlbScSWy_10balatro_rs10joker_impl10JollyJokerNtNtB6_5joker5Joker16modify_hand_sizeB6_
FN:1070,_RNvYNtNtCsfztrlbScSWy_10balatro_rs10joker_impl10JollyJokerNtNtB6_5joker5Joker17deserialize_stateB6_
FN:915,_RNvYNtNtCsfztrlbScSWy_10balatro_rs10joker_impl10LustyJokerNtNtB6_5joker5Joker10on_cleanupB6_
FN:827,_RNvYNtNtCsfztrlbScSWy_10balatro_rs10joker_impl10LustyJokerNtNtB6_5joker5Joker10on_createdB6_
FN:776,_RNvYNtNtCsfztrlbScSWy_10balatro_rs10joker_impl10LustyJokerNtNtB6_5joker5Joker10on_discardB6_
FN:667,_RNvYNtNtCsfztrlbScSWy_10balatro_rs10joker_impl10LustyJokerNtNtB6_5joker5Joker10sell_valueB6_
FN:959,_RNvYNtNtCsfztrlbScSWy_10balatro_rs10joker_impl10LustyJokerNtNtB6_5joker5Joker11modify_multB6_
FN:938,_RNvYNtNtCsfztrlbScSWy_10balatro_rs10joker_impl10LustyJokerNtNtB6_5joker5Joker12modify_chipsB6_
FN:856,_RNvYNtNtCsfztrlbScSWy_10balatro_rs10joker_impl10LustyJokerNtNtB6_5joker5Joker12on_activatedB6_
FN:798,_RNvYNtNtCsfztrlbScSWy_10balatro_rs10joker_impl10LustyJokerNtNtB6_5joker5Joker12on_round_endB6_
FN:761,_RNvYNtNtCsfztrlbScSWy_10balatro_rs10joker_impl10LustyJokerNtNtB6_5joker5Joker12on_shop_openB6_
FN:1178,_RNvYNtNtCsfztrlbScSWy_10balatro_rs10joker_impl10LustyJokerNtNtB6_5joker5Joker13migrate_stateB6_
FN:747,_RNvYNtNtCsfztrlbScSWy_10balatro_rs10joker_impl10LustyJokerNtNtB6_5joker5Joker14on_blind_startB6_
FN:885,_RNvYNtNtCsfztrlbScSWy_10balatro_rs10joker_impl10LustyJokerNtNtB6_5joker5Joker14on_deactivatedB6_
FN:695,_RNvYNtNtCsfztrlbScSWy_10balatro_rs10joker_impl10LustyJokerNtNtB6_5joker5Joker14on_hand_playedB6_
FN:1107,_RNvYNtNtCsfztrlbScSWy_10balatro_rs10joker_impl10LustyJokerNtNtB6_5joker5Joker14validate_stateB6_
FN:1003,_RNvYNtNtCsfztrlbScSWy_10balatro_rs10joker_impl10LustyJokerNtNtB6_5joker5Joker15modify_discardsB6_
FN:1033,_RNvYNtNtCsfztrlbScSWy_10balatro_rs10joker_impl10LustyJokerNtNtB6_5joker5Joker15serialize_stateB6_
FN:1141,_RNvYNtNtCsfztrlbScSWy_10balatro_rs10joker_impl10LustyJokerNtNtB6_5joker5Joker16initialize_stateB6_
FN:981,_RNvYNtNtCsfztrlbScSWy_10balatro_rs10joker_impl10LustyJokerNtNtB6_5joker5Joker16modify_hand_sizeB6_
FN:1070,_RNvYNtNtCsfztrlbScSWy_10balatro_rs10joker_impl10LustyJokerNtNtB6_5joker5Joker17deserialize_stateB6_
FN:915,_RNvYNtNtCsfztrlbScSWy_10balatro_rs10joker_impl10SpaceJokerNtNtB6_5joker5Joker10on_cleanupB6_
FN:827,_RNvYNtNtCsfztrlbScSWy_10balatro_rs10joker_impl10SpaceJokerNtNtB6_5joker5Joker10on_createdB6_
FN:776,_RNvYNtNtCsfztrlbScSWy_10balatro_rs10joker_impl10SpaceJokerNtNtB6_5joker5Joker10on_discardB6_
FN:667,_RNvYNtNtCsfztrlbScSWy_10balatro_rs10joker_impl10SpaceJokerNtNtB6_5joker5Joker10sell_valueB6_
FN:959,_RNvYNtNtCsfztrlbScSWy_10balatro_rs10joker_impl10SpaceJokerNtNtB6_5joker5Joker11modify_multB6_
FN:938,_RNvYNtNtCsfztrlbScSWy_10balatro_rs10joker_impl10SpaceJokerNtNtB6_5joker5Joker12modify_chipsB6_
FN:856,_RNvYNtNtCsfztrlbScSWy_10balatro_rs10joker_impl10SpaceJokerNtNtB6_5joker5Joker12on_activatedB6_
FN:798,_RNvYNtNtCsfztrlbScSWy_10balatro_rs10joker_impl10SpaceJokerNtNtB6_5joker5Joker12on_round_endB6_
FN:761,_RNvYNtNtCsfztrlbScSWy_10balatro_rs10joker_impl10SpaceJokerNtNtB6_5joker5Joker12on_shop_openB6_
FN:1178,_RNvYNtNtCsfztrlbScSWy_10balatro_rs10joker_impl10SpaceJokerNtNtB6_5joker5Joker13migrate_stateB6_
FN:747,_RNvYNtNtCsfztrlbScSWy_10balatro_rs10joker_impl10SpaceJokerNtNtB6_5joker5Joker14on_blind_startB6_
FN:725,_RNvYNtNtCsfztrlbScSWy_10balatro_rs10joker_impl10SpaceJokerNtNtB6_5joker5Joker14on_card_scoredB6_
FN:885,_RNvYNtNtCsfztrlbScSWy_10balatro_rs10joker_impl10SpaceJokerNtNtB6_5joker5Joker14on_deactivatedB6_
FN:1107,_RNvYNtNtCsfztrlbScSWy_10balatro_rs10joker_impl10SpaceJokerNtNtB6_5joker5Joker14validate_stateB6_
FN:1003,_RNvYNtNtCsfztrlbScSWy_10balatro_rs10joker_impl10SpaceJokerNtNtB6_5joker5Joker15modify_discardsB6_
FN:1033,_RNvYNtNtCsfztrlbScSWy_10balatro_rs10joker_impl10SpaceJokerNtNtB6_5joker5Joker15serialize_stateB6_
FN:1141,_RNvYNtNtCsfztrlbScSWy_10balatro_rs10joker_impl10SpaceJokerNtNtB6_5joker5Joker16initialize_stateB6_
FN:981,_RNvYNtNtCsfztrlbScSWy_10balatro_rs10joker_impl10SpaceJokerNtNtB6_5joker5Joker16modify_hand_sizeB6_
FN:1070,_RNvYNtNtCsfztrlbScSWy_10balatro_rs10joker_impl10SpaceJokerNtNtB6_5joker5Joker17deserialize_stateB6_
FN:915,_RNvYNtNtCsfztrlbScSWy_10balatro_rs10joker_impl11CleverJokerNtNtB6_5joker5Joker10on_cleanupB6_
FN:827,_RNvYNtNtCsfztrlbScSWy_10balatro_rs10joker_impl11CleverJokerNtNtB6_5joker5Joker10on_createdB6_
FN:776,_RNvYNtNtCsfztrlbScSWy_10balatro_rs10joker_impl11CleverJokerNtNtB6_5joker5Joker10on_discardB6_
FN:667,_RNvYNtNtCsfztrlbScSWy_10balatro_rs10joker_impl11CleverJokerNtNtB6_5joker5Joker10sell_valueB6_
FN:959,_RNvYNtNtCsfztrlbScSWy_10balatro_rs10joker_impl11CleverJokerNtNtB6_5joker5Joker11modify_multB6_
FN:938,_RNvYNtNtCsfztrlbScSWy_10balatro_rs10joker_impl11CleverJokerNtNtB6_5joker5Joker12modify_chipsB6_
FN:856,_RNvYNtNtCsfztrlbScSWy_10balatro_rs10joker_impl11CleverJokerNtNtB6_5joker5Joker12on_activatedB6_
FN:798,_RNvYNtNtCsfztrlbScSWy_10balatro_rs10joker_impl11CleverJokerNtNtB6_5joker5Joker12on_round_endB6_
FN:761,_RNvYNtNtCsfztrlbScSWy_10balatro_rs10joker_impl11CleverJokerNtNtB6_5joker5Joker12on_shop_openB6_
FN:1178,_RNvYNtNtCsfztrlbScSWy_10balatro_rs10joker_impl11CleverJokerNtNtB6_5joker5Joker13migrate_stateB6_
FN:747,_RNvYNtNtCsfztrlbScSWy_10balatro_rs10joker_impl11CleverJokerNtNtB6_5joker5Joker14on_blind_startB6_
FN:725,_RNvYNtNtCsfztrlbScSWy_10balatro_rs10joker_impl11CleverJokerNtNtB6_5joker5Joker14on_card_scoredB6_
FN:885,_RNvYNtNtCsfztrlbScSWy_10balatro_rs10joker_impl11CleverJokerNtNtB6_5joker5Joker14on_deactivatedB6_
FN:1107,_RNvYNtNtCsfztrlbScSWy_10balatro_rs10joker_impl11CleverJokerNtNtB6_5joker5Joker14validate_stateB6_
FN:1003,_RNvYNtNtCsfztrlbScSWy_10balatro_rs10joker_impl11CleverJokerNtNtB6_5joker5Joker15modify_discardsB6_
FN:1033,_RNvYNtNtCsfztrlbScSWy_10balatro_rs10joker_impl11CleverJokerNtNtB6_5joker5Joker15serialize_stateB6_
FN:1141,_RNvYNtNtCsfztrlbScSWy_10balatro_rs10joker_impl11CleverJokerNtNtB6_5joker5Joker16initialize_stateB6_
FN:981,_RNvYNtNtCsfztrlbScSWy_10balatro_rs10joker_impl11CleverJokerNtNtB6_5joker5Joker16modify_hand_sizeB6_
FN:1070,_RNvYNtNtCsfztrlbScSWy_10balatro_rs10joker_impl11CleverJokerNtNtB6_5joker5Joker17deserialize_stateB6_
FN:915,_RNvYNtNtCsfztrlbScSWy_10balatro_rs10joker_impl11CraftyJokerNtNtB6_5joker5Joker10on_cleanupB6_
FN:827,_RNvYNtNtCsfztrlbScSWy_10balatro_rs10joker_impl11CraftyJokerNtNtB6_5joker5Joker10on_createdB6_
FN:776,_RNvYNtNtCsfztrlbScSWy_10balatro_rs10joker_impl11CraftyJokerNtNtB6_5joker5Joker10on_discardB6_
FN:667,_RNvYNtNtCsfztrlbScSWy_10balatro_rs10joker_impl11CraftyJokerNtNtB6_5joker5Joker10sell_valueB6_
FN:959,_RNvYNtNtCsfztrlbScSWy_10balatro_rs10joker_impl11CraftyJokerNtNtB6_5joker5Joker11modify_multB6_
FN:938,_RNvYNtNtCsfztrlbScSWy_10balatro_rs10joker_impl11CraftyJokerNtNtB6_5joker5Joker12modify_chipsB6_
FN:856,_RNvYNtNtCsfztrlbScSWy_10balatro_rs10joker_impl11CraftyJokerNtNtB6_5joker5Joker12on_activatedB6_
FN:798,_RNvYNtNtCsfztrlbScSWy_10balatro_rs10joker_impl11CraftyJokerNtNtB6_5joker5Joker12on_round_endB6_
FN:761,_RNvYNtNtCsfztrlbScSWy_10balatro_rs10joker_impl11CraftyJokerNtNtB6_5joker5Joker12on_shop_openB6_
FN:1178,_RNvYNtNtCsfztrlbScSWy_10balatro_rs10joker_impl11CraftyJokerNtNtB6_5joker5Joker13migrate_stateB6_
FN:747,_RNvYNtNtCsfztrlbScSWy_10balatro_rs10joker_impl11CraftyJokerNtNtB6_5joker5Joker14on_blind_startB6_
FN:725,_RNvYNtNtCsfztrlbScSWy_10balatro_rs10joker_impl11CraftyJokerNtNtB6_5joker5Joker14on_card_scoredB6_
FN:885,_RNvYNtNtCsfztrlbScSWy_10balatro_rs10joker_impl11CraftyJokerNtNtB6_5joker5Joker14on_deactivatedB6_
FN:1107,_RNvYNtNtCsfztrlbScSWy_10balatro_rs10joker_impl11CraftyJokerNtNtB6_5joker5Joker14validate_stateB6_
FN:1003,_RNvYNtNtCsfztrlbScSWy_10balatro_rs10joker_impl11CraftyJokerNtNtB6_5joker5Joker15modify_discardsB6_
FN:1033,_RNvYNtNtCsfztrlbScSWy_10balatro_rs10joker_impl11CraftyJokerNtNtB6_5joker5Joker15serialize_stateB6_
FN:1141,_RNvYNtNtCsfztrlbScSWy_10balatro_rs10joker_impl11CraftyJokerNtNtB6_5joker5Joker16initialize_stateB6_
FN:981,_RNvYNtNtCsfztrlbScSWy_10balatro_rs10joker_impl11CraftyJokerNtNtB6_5joker5Joker16modify_hand_sizeB6_
FN:1070,_RNvYNtNtCsfztrlbScSWy_10balatro_rs10joker_impl11CraftyJokerNtNtB6_5joker5Joker17deserialize_stateB6_
FN:915,_RNvYNtNtCsfztrlbScSWy_10balatro_rs10joker_impl11GreedyJokerNtNtB6_5joker5Joker10on_cleanupB6_
FN:827,_RNvYNtNtCsfztrlbScSWy_10balatro_rs10joker_impl11GreedyJokerNtNtB6_5joker5Joker10on_createdB6_
FN:776,_RNvYNtNtCsfztrlbScSWy_10balatro_rs10joker_impl11GreedyJokerNtNtB6_5joker5Joker10on_discardB6_
FN:667,_RNvYNtNtCsfztrlbScSWy_10balatro_rs10joker_impl11GreedyJokerNtNtB6_5joker5Joker10sell_valueB6_
FN:959,_RNvYNtNtCsfztrlbScSWy_10balatro_rs10joker_impl11GreedyJokerNtNtB6_5joker5Joker11modify_multB6_
FN:938,_RNvYNtNtCsfztrlbScSWy_10balatro_rs10joker_impl11GreedyJokerNtNtB6_5joker5Joker12modify_chipsB6_
FN:856,_RNvYNtNtCsfztrlbScSWy_10balatro_rs10joker_impl11GreedyJokerNtNtB6_5joker5Joker12on_activatedB6_
FN:798,_RNvYNtNtCsfztrlbScSWy_10balatro_rs10joker_impl11GreedyJokerNtNtB6_5joker5Joker12on_round_endB6_
FN:761,_RNvYNtNtCsfztrlbScSWy_10balatro_rs10joker_impl11GreedyJokerNtNtB6_5joker5Joker12on_shop_openB6_
FN:1178,_RNvYNtNtCsfztrlbScSWy_10balatro_rs10joker_impl11GreedyJokerNtNtB6_5joker5Joker13migrate_stateB6_
FN:747,_RNvYNtNtCsfztrlbScSWy_10balatro_rs10joker_impl11GreedyJokerNtNtB6_5joker5Joker14on_blind_startB6_
FN:885,_RNvYNtNtCsfztrlbScSWy_10balatro_rs10joker_impl11GreedyJokerNtNtB6_5joker5Joker14on_deactivatedB6_
FN:695,_RNvYNtNtCsfztrlbScSWy_10balatro_rs10joker_impl11GreedyJokerNtNtB6_5joker5Joker14on_hand_playedB6_
FN:1107,_RNvYNtNtCsfztrlbScSWy_10balatro_rs10joker_impl11GreedyJokerNtNtB6_5joker5Joker14validate_stateB6_
FN:1003,_RNvYNtNtCsfztrlbScSWy_10balatro_rs10joker_impl11GreedyJokerNtNtB6_5joker5Joker15modify_discardsB6_
FN:1033,_RNvYNtNtCsfztrlbScSWy_10balatro_rs10joker_impl11GreedyJokerNtNtB6_5joker5Joker15serialize_stateB6_
FN:1141,_RNvYNtNtCsfztrlbScSWy_10balatro_rs10joker_impl11GreedyJokerNtNtB6_5joker5Joker16initialize_stateB6_
FN:981,_RNvYNtNtCsfztrlbScSWy_10balatro_rs10joker_impl11GreedyJokerNtNtB6_5joker5Joker16modify_hand_sizeB6_
FN:1070,_RNvYNtNtCsfztrlbScSWy_10balatro_rs10joker_impl11GreedyJokerNtNtB6_5joker5Joker17deserialize_stateB6_
FN:915,_RNvYNtNtCsfztrlbScSWy_10balatro_rs10joker_impl11RunnerJokerNtNtB6_5joker5Joker10on_cleanupB6_
FN:827,_RNvYNtNtCsfztrlbScSWy_10balatro_rs10joker_impl11RunnerJokerNtNtB6_5joker5Joker10on_createdB6_
FN:776,_RNvYNtNtCsfztrlbScSWy_10balatro_rs10joker_impl11RunnerJokerNtNtB6_5joker5Joker10on_discardB6_
FN:667,_RNvYNtNtCsfztrlbScSWy_10balatro_rs10joker_impl11RunnerJokerNtNtB6_5joker5Joker10sell_valueB6_
FN:959,_RNvYNtNtCsfztrlbScSWy_10balatro_rs10joker_impl11RunnerJokerNtNtB6_5joker5Joker11modify_multB6_
FN:938,_RNvYNtNtCsfztrlbScSWy_10balatro_rs10joker_impl11RunnerJokerNtNtB6_5joker5Joker12modify_chipsB6_
FN:856,_RNvYNtNtCsfztrlbScSWy_10balatro_rs10joker_impl11RunnerJokerNtNtB6_5joker5Joker12on_activatedB6_
FN:798,_RNvYNtNtCsfztrlbScSWy_10balatro_rs10joker_impl11RunnerJokerNtNtB6_5joker5Joker12on_round_endB6_
FN:761,_RNvYNtNtCsfztrlbScSWy_10balatro_rs10joker_impl11RunnerJokerNtNtB6_5joker5Joker12on_shop_openB6_
FN:1178,_RNvYNtNtCsfztrlbScSWy_10balatro_rs10joker_impl11RunnerJokerNtNtB6_5joker5Joker13migrate_stateB6_
FN:747,_RNvYNtNtCsfztrlbScSWy_10balatro_rs10joker_impl11RunnerJokerNtNtB6_5joker5Joker14on_blind_startB6_
FN:725,_RNvYNtNtCsfztrlbScSWy_10balatro_rs10joker_impl11RunnerJokerNtNtB6_5joker5Joker14on_card_scoredB6_
FN:885,_RNvYNtNtCsfztrlbScSWy_10balatro_rs10joker_impl11RunnerJokerNtNtB6_5joker5Joker14on_deactivatedB6_
FN:1107,_RNvYNtNtCsfztrlbScSWy_10balatro_rs10joker_impl11RunnerJokerNtNtB6_5joker5Joker14validate_stateB6_
FN:1003,_RNvYNtNtCsfztrlbScSWy_10balatro_rs10joker_impl11RunnerJokerNtNtB6_5joker5Joker15modify_discardsB6_
FN:1033,_RNvYNtNtCsfztrlbScSWy_10balatro_rs10joker_impl11RunnerJokerNtNtB6_5joker5Joker15serialize_stateB6_
FN:1141,_RNvYNtNtCsfztrlbScSWy_10balatro_rs10joker_impl11RunnerJokerNtNtB6_5joker5Joker16initialize_stateB6_
FN:981,_RNvYNtNtCsfztrlbScSWy_10balatro_rs10joker_impl11RunnerJokerNtNtB6_5joker5Joker16modify_hand_sizeB6_
FN:1070,_RNvYNtNtCsfztrlbScSWy_10balatro_rs10joker_impl11RunnerJokerNtNtB6_5joker5Joker17deserialize_stateB6_
FN:915,_RNvYNtNtCsfztrlbScSWy_10balatro_rs10joker_impl12BusinessCardNtNtB6_5joker5Joker10on_cleanupB6_
FN:827,_RNvYNtNtCsfztrlbScSWy_10balatro_rs10joker_impl12BusinessCardNtNtB6_5joker5Joker10on_createdB6_
FN:776,_RNvYNtNtCsfztrlbScSWy_10balatro_rs10joker_impl12BusinessCardNtNtB6_5joker5Joker10on_discardB6_
FN:667,_RNvYNtNtCsfztrlbScSWy_10balatro_rs10joker_impl12BusinessCardNtNtB6_5joker5Joker10sell_valueB6_
FN:959,_RNvYNtNtCsfztrlbScSWy_10balatro_rs10joker_impl12BusinessCardNtNtB6_5joker5Joker11modify_multB6_
FN:938,_RNvYNtNtCsfztrlbScSWy_10balatro_rs10joker_impl12BusinessCardNtNtB6_5joker5Joker12modify_chipsB6_
FN:856,_RNvYNtNtCsfztrlbScSWy_10balatro_rs10joker_impl12BusinessCardNtNtB6_5joker5Joker12on_activatedB6_
FN:798,_RNvYNtNtCsfztrlbScSWy_10balatro_rs10joker_impl12BusinessCardNtNtB6_5joker5Joker12on_round_endB6_
FN:761,_RNvYNtNtCsfztrlbScSWy_10balatro_rs10joker_impl12BusinessCardNtNtB6_5joker5Joker12on_shop_openB6_
FN:1178,_RNvYNtNtCsfztrlbScSWy_10balatro_rs10joker_impl12BusinessCardNtNtB6_5joker5Joker13migrate_stateB6_
FN:747,_RNvYNtNtCsfztrlbScSWy_10balatro_rs10joker_impl12BusinessCardNtNtB6_5joker5Joker14on_blind_startB6_
FN:885,_RNvYNtNtCsfztrlbScSWy_10balatro_rs10joker_impl12BusinessCardNtNtB6_5joker5Joker14on_deactivatedB6_
FN:695,_RNvYNtNtCsfztrlbScSWy_10balatro_rs10joker_impl12BusinessCardNtNtB6_5joker5Joker14on_hand_playedB6_
FN:1107,_RNvYNtNtCsfztrlbScSWy_10balatro_rs10joker_impl12BusinessCardNtNtB6_5joker5Joker14validate_stateB6_
FN:1003,_RNvYNtNtCsfztrlbScSWy_10balatro_rs10joker_impl12BusinessCardNtNtB6_5joker5Joker15modify_discardsB6_
FN:1033,_RNvYNtNtCsfztrlbScSWy_10balatro_rs10joker_impl12BusinessCardNtNtB6_5joker5Joker15serialize_stateB6_
FN:1141,_RNvYNtNtCsfztrlbScSWy_10balatro_rs10joker_impl12BusinessCardNtNtB6_5joker5Joker16initialize_stateB6_
FN:981,_RNvYNtNtCsfztrlbScSWy_10balatro_rs10joker_impl12BusinessCardNtNtB6_5joker5Joker16modify_hand_sizeB6_
FN:1070,_RNvYNtNtCsfztrlbScSWy_10balatro_rs10joker_impl12BusinessCardNtNtB6_5joker5Joker17deserialize_stateB6_
FN:915,_RNvYNtNtCsfztrlbScSWy_10balatro_rs10joker_impl12DeviousJokerNtNtB6_5joker5Joker10on_cleanupB6_
FN:827,_RNvYNtNtCsfztrlbScSWy_10balatro_rs10joker_impl12DeviousJokerNtNtB6_5joker5Joker10on_createdB6_
FN:776,_RNvYNtNtCsfztrlbScSWy_10balatro_rs10joker_impl12DeviousJokerNtNtB6_5joker5Joker10on_discardB6_
FN:667,_RNvYNtNtCsfztrlbScSWy_10balatro_rs10joker_impl12DeviousJokerNtNtB6_5joker5Joker10sell_valueB6_
FN:959,_RNvYNtNtCsfztrlbScSWy_10balatro_rs10joker_impl12DeviousJokerNtNtB6_5joker5Joker11modify_multB6_
FN:938,_RNvYNtNtCsfztrlbScSWy_10balatro_rs10joker_impl12DeviousJokerNtNtB6_5joker5Joker12modify_chipsB6_
FN:856,_RNvYNtNtCsfztrlbScSWy_10balatro_rs10joker_impl12DeviousJokerNtNtB6_5joker5Joker12on_activatedB6_
FN:798,_RNvYNtNtCsfztrlbScSWy_10balatro_rs10joker_impl12DeviousJokerNtNtB6_5joker5Joker12on_round_endB6_
FN:761,_RNvYNtNtCsfztrlbScSWy_10balatro_rs10joker_impl12DeviousJokerNtNtB6_5joker5Joker12on_shop_openB6_
FN:1178,_RNvYNtNtCsfztrlbScSWy_10balatro_rs10joker_impl12DeviousJokerNtNtB6_5joker5Joker13migrate_stateB6_
FN:747,_RNvYNtNtCsfztrlbScSWy_10balatro_rs10joker_impl12DeviousJokerNtNtB6_5joker5Joker14on_blind_startB6_
FN:725,_RNvYNtNtCsfztrlbScSWy_10balatro_rs10joker_impl12DeviousJokerNtNtB6_5joker5Joker14on_card_scoredB6_
FN:885,_RNvYNtNtCsfztrlbScSWy_10balatro_rs10joker_impl12DeviousJokerNtNtB6_5joker5Joker14on_deactivatedB6_
FN:1107,_RNvYNtNtCsfztrlbScSWy_10balatro_rs10joker_impl12DeviousJokerNtNtB6_5joker5Joker14validate_stateB6_
FN:1003,_RNvYNtNtCsfztrlbScSWy_10balatro_rs10joker_impl12DeviousJokerNtNtB6_5joker5Joker15modify_discardsB6_
FN:1033,_RNvYNtNtCsfztrlbScSWy_10balatro_rs10joker_impl12DeviousJokerNtNtB6_5joker5Joker15serialize_stateB6_
FN:1141,_RNvYNtNtCsfztrlbScSWy_10balatro_rs10joker_impl12DeviousJokerNtNtB6_5joker5Joker16initialize_stateB6_
FN:981,_RNvYNtNtCsfztrlbScSWy_10balatro_rs10joker_impl12DeviousJokerNtNtB6_5joker5Joker16modify_hand_sizeB6_
FN:1070,_RNvYNtNtCsfztrlbScSWy_10balatro_rs10joker_impl12DeviousJokerNtNtB6_5joker5Joker17deserialize_stateB6_
FN:915,_RNvYNtNtCsfztrlbScSWy_10balatro_rs10joker_impl13IceCreamJokerNtNtB6_5joker5Joker10on_cleanupB6_
FN:776,_RNvYNtNtCsfztrlbScSWy_10balatro_rs10joker_impl13IceCreamJokerNtNtB6_5joker5Joker10on_discardB6_
FN:667,_RNvYNtNtCsfztrlbScSWy_10balatro_rs10joker_impl13IceCreamJokerNtNtB6_5joker5Joker10sell_valueB6_
FN:959,_RNvYNtNtCsfztrlbScSWy_10balatro_rs10joker_impl13IceCreamJokerNtNtB6_5joker5Joker11modify_multB6_
FN:938,_RNvYNtNtCsfztrlbScSWy_10balatro_rs10joker_impl13IceCreamJokerNtNtB6_5joker5Joker12modify_chipsB6_
FN:856,_RNvYNtNtCsfztrlbScSWy_10balatro_rs10joker_impl13IceCreamJokerNtNtB6_5joker5Joker12on_activatedB6_
FN:798,_RNvYNtNtCsfztrlbScSWy_10balatro_rs10joker_impl13IceCreamJokerNtNtB6_5joker5Joker12on_round_endB6_
FN:761,_RNvYNtNtCsfztrlbScSWy_10balatro_rs10joker_impl13IceCreamJokerNtNtB6_5joker5Joker12on_shop_openB6_
FN:1178,_RNvYNtNtCsfztrlbScSWy_10balatro_rs10joker_impl13IceCreamJokerNtNtB6_5joker5Joker13migrate_stateB6_
FN:747,_RNvYNtNtCsfztrlbScSWy_10balatro_rs10joker_impl13IceCreamJokerNtNtB6_5joker5Joker14on_blind_startB6_
FN:725,_RNvYNtNtCsfztrlbScSWy_10balatro_rs10joker_impl13IceCreamJokerNtNtB6_5joker5Joker14on_card_scoredB6_
FN:885,_RNvYNtNtCsfztrlbScSWy_10balatro_rs10joker_impl13IceCreamJokerNtNtB6_5joker5Joker14on_deactivatedB6_
FN:1107,_RNvYNtNtCsfztrlbScSWy_10balatro_rs10joker_impl13IceCreamJokerNtNtB6_5joker5Joker14validate_stateB6_
FN:1003,_RNvYNtNtCsfztrlbScSWy_10balatro_rs10joker_impl13IceCreamJokerNtNtB6_5joker5Joker15modify_discardsB6_
FN:1033,_RNvYNtNtCsfztrlbScSWy_10balatro_rs10joker_impl13IceCreamJokerNtNtB6_5joker5Joker15serialize_stateB6_
FN:1141,_RNvYNtNtCsfztrlbScSWy_10balatro_rs10joker_impl13IceCreamJokerNtNtB6_5joker5Joker16initialize_stateB6_
FN:981,_RNvYNtNtCsfztrlbScSWy_10balatro_rs10joker_impl13IceCreamJokerNtNtB6_5joker5Joker16modify_hand_sizeB6_
FN:1070,_RNvYNtNtCsfztrlbScSWy_10balatro_rs10joker_impl13IceCreamJokerNtNtB6_5joker5Joker17deserialize_stateB6_
FN:915,_RNvYNtNtCsfztrlbScSWy_10balatro_rs10joker_impl13WrathfulJokerNtNtB6_5joker5Joker10on_cleanupB6_
FN:827,_RNvYNtNtCsfztrlbScSWy_10balatro_rs10joker_impl13WrathfulJokerNtNtB6_5joker5Joker10on_createdB6_
FN:776,_RNvYNtNtCsfztrlbScSWy_10balatro_rs10joker_impl13WrathfulJokerNtNtB6_5joker5Joker10on_discardB6_
FN:667,_RNvYNtNtCsfztrlbScSWy_10balatro_rs10joker_impl13WrathfulJokerNtNtB6_5joker5Joker10sell_valueB6_
FN:959,_RNvYNtNtCsfztrlbScSWy_10balatro_rs10joker_impl13WrathfulJokerNtNtB6_5joker5Joker11modify_multB6_
FN:938,_RNvYNtNtCsfztrlbScSWy_10balatro_rs10joker_impl13WrathfulJokerNtNtB6_5joker5Joker12modify_chipsB6_
FN:856,_RNvYNtNtCsfztrlbScSWy_10balatro_rs10joker_impl13WrathfulJokerNtNtB6_5joker5Joker12on_activatedB6_
FN:798,_RNvYNtNtCsfztrlbScSWy_10balatro_rs10joker_impl13WrathfulJokerNtNtB6_5joker5Joker12on_round_endB6_
FN:761,_RNvYNtNtCsfztrlbScSWy_10balatro_rs10joker_impl13WrathfulJokerNtNtB6_5joker5Joker12on_shop_openB6_
FN:1178,_RNvYNtNtCsfztrlbScSWy_10balatro_rs10joker_impl13WrathfulJokerNtNtB6_5joker5Joker13migrate_stateB6_
FN:747,_RNvYNtNtCsfztrlbScSWy_10balatro_rs10joker_impl13WrathfulJokerNtNtB6_5joker5Joker14on_blind_startB6_
FN:885,_RNvYNtNtCsfztrlbScSWy_10balatro_rs10joker_impl13WrathfulJokerNtNtB6_5joker5Joker14on_deactivatedB6_
FN:695,_RNvYNtNtCsfztrlbScSWy_10balatro_rs10joker_impl13WrathfulJokerNtNtB6_5joker5Joker14on_hand_playedB6_
FN:1107,_RNvYNtNtCsfztrlbScSWy_10balatro_rs10joker_impl13WrathfulJokerNtNtB6_5joker5Joker14validate_stateB6_
FN:1003,_RNvYNtNtCsfztrlbScSWy_10balatro_rs10joker_impl13WrathfulJokerNtNtB6_5joker5Joker15modify_discardsB6_
FN:1033,_RNvYNtNtCsfztrlbScSWy_10balatro_rs10joker_impl13WrathfulJokerNtNtB6_5joker5Joker15serialize_stateB6_
FN:1141,_RNvYNtNtCsfztrlbScSWy_10balatro_rs10joker_impl13WrathfulJokerNtNtB6_5joker5Joker16initialize_stateB6_
FN:981,_RNvYNtNtCsfztrlbScSWy_10balatro_rs10joker_impl13WrathfulJokerNtNtB6_5joker5Joker16modify_hand_sizeB6_
FN:1070,_RNvYNtNtCsfztrlbScSWy_10balatro_rs10joker_impl13WrathfulJokerNtNtB6_5joker5Joker17deserialize_stateB6_
FN:915,_RNvYNtNtCsfztrlbScSWy_10balatro_rs10joker_impl14SupernovaJokerNtNtB6_5joker5Joker10on_cleanupB6_
FN:827,_RNvYNtNtCsfztrlbScSWy_10balatro_rs10joker_impl14SupernovaJokerNtNtB6_5joker5Joker10on_createdB6_
FN:776,_RNvYNtNtCsfztrlbScSWy_10balatro_rs10joker_impl14SupernovaJokerNtNtB6_5joker5Joker10on_discardB6_
FN:667,_RNvYNtNtCsfztrlbScSWy_10balatro_rs10joker_impl14SupernovaJokerNtNtB6_5joker5Joker10sell_valueB6_
FN:959,_RNvYNtNtCsfztrlbScSWy_10balatro_rs10joker_impl14SupernovaJokerNtNtB6_5joker5Joker11modify_multB6_
FN:938,_RNvYNtNtCsfztrlbScSWy_10balatro_rs10joker_impl14SupernovaJokerNtNtB6_5joker5Joker12modify_chipsB6_
FN:856,_RNvYNtNtCsfztrlbScSWy_10balatro_rs10joker_impl14SupernovaJokerNtNtB6_5joker5Joker12on_activatedB6_
FN:798,_RNvYNtNtCsfztrlbScSWy_10balatro_rs10joker_impl14SupernovaJokerNtNtB6_5joker5Joker12on_round_endB6_
FN:761,_RNvYNtNtCsfztrlbScSWy_10balatro_rs10joker_impl14SupernovaJokerNtNtB6_5joker5Joker12on_shop_openB6_
FN:1178,_RNvYNtNtCsfztrlbScSWy_10balatro_rs10joker_impl14SupernovaJokerNtNtB6_5joker5Joker13migrate_stateB6_
FN:747,_RNvYNtNtCsfztrlbScSWy_10balatro_rs10joker_impl14SupernovaJokerNtNtB6_5joker5Joker14on_blind_startB6_
FN:725,_RNvYNtNtCsfztrlbScSWy_10balatro_rs10joker_impl14SupernovaJokerNtNtB6_5joker5Joker14on_card_scoredB6_
FN:885,_RNvYNtNtCsfztrlbScSWy_10balatro_rs10joker_impl14SupernovaJokerNtNtB6_5joker5Joker14on_deactivatedB6_
FN:1107,_RNvYNtNtCsfztrlbScSWy_10balatro_rs10joker_impl14SupernovaJokerNtNtB6_5joker5Joker14validate_stateB6_
FN:1003,_RNvYNtNtCsfztrlbScSWy_10balatro_rs10joker_impl14SupernovaJokerNtNtB6_5joker5Joker15modify_discardsB6_
FN:1033,_RNvYNtNtCsfztrlbScSWy_10balatro_rs10joker_impl14SupernovaJokerNtNtB6_5joker5Joker15serialize_stateB6_
FN:1141,_RNvYNtNtCsfztrlbScSWy_10balatro_rs10joker_impl14SupernovaJokerNtNtB6_5joker5Joker16initialize_stateB6_
FN:981,_RNvYNtNtCsfztrlbScSWy_10balatro_rs10joker_impl14SupernovaJokerNtNtB6_5joker5Joker16modify_hand_sizeB6_
FN:1070,_RNvYNtNtCsfztrlbScSWy_10balatro_rs10joker_impl14SupernovaJokerNtNtB6_5joker5Joker17deserialize_stateB6_
FN:915,_RNvYNtNtCsfztrlbScSWy_10balatro_rs10joker_impl15GluttonousJokerNtNtB6_5joker5Joker10on_cleanupB6_
FN:827,_RNvYNtNtCsfztrlbScSWy_10balatro_rs10joker_impl15GluttonousJokerNtNtB6_5joker5Joker10on_createdB6_
FN:776,_RNvYNtNtCsfztrlbScSWy_10balatro_rs10joker_impl15GluttonousJokerNtNtB6_5joker5Joker10on_discardB6_
FN:667,_RNvYNtNtCsfztrlbScSWy_10balatro_rs10joker_impl15GluttonousJokerNtNtB6_5joker5Joker10sell_valueB6_
FN:959,_RNvYNtNtCsfztrlbScSWy_10balatro_rs10joker_impl15GluttonousJokerNtNtB6_5joker5Joker11modify_multB6_
FN:938,_RNvYNtNtCsfztrlbScSWy_10balatro_rs10joker_impl15GluttonousJokerNtNtB6_5joker5Joker12modify_chipsB6_
FN:856,_RNvYNtNtCsfztrlbScSWy_10balatro_rs10joker_impl15GluttonousJokerNtNtB6_5joker5Joker12on_activatedB6_
FN:798,_RNvYNtNtCsfztrlbScSWy_10balatro_rs10joker_impl15GluttonousJokerNtNtB6_5joker5Joker12on_round_endB6_
FN:761,_RNvYNtNtCsfztrlbScSWy_10balatro_rs10joker_impl15GluttonousJokerNtNtB6_5joker5Joker12on_shop_openB6_
FN:1178,_RNvYNtNtCsfztrlbScSWy_10balatro_rs10joker_impl15GluttonousJokerNtNtB6_5joker5Joker13migrate_stateB6_
FN:747,_RNvYNtNtCsfztrlbScSWy_10balatro_rs10joker_impl15GluttonousJokerNtNtB6_5joker5Joker14on_blind_startB6_
FN:885,_RNvYNtNtCsfztrlbScSWy_10balatro_rs10joker_impl15GluttonousJokerNtNtB6_5joker5Joker14on_deactivatedB6_
FN:695,_RNvYNtNtCsfztrlbScSWy_10balatro_rs10joker_impl15GluttonousJokerNtNtB6_5joker5Joker14on_hand_playedB6_
FN:1107,_RNvYNtNtCsfztrlbScSWy_10balatro_rs10joker_impl15GluttonousJokerNtNtB6_5joker5Joker14validate_stateB6_
FN:1003,_RNvYNtNtCsfztrlbScSWy_10balatro_rs10joker_impl15GluttonousJokerNtNtB6_5joker5Joker15modify_discardsB6_
FN:1033,_RNvYNtNtCsfztrlbScSWy_10balatro_rs10joker_impl15GluttonousJokerNtNtB6_5joker5Joker15serialize_stateB6_
FN:1141,_RNvYNtNtCsfztrlbScSWy_10balatro_rs10joker_impl15GluttonousJokerNtNtB6_5joker5Joker16initialize_stateB6_
FN:981,_RNvYNtNtCsfztrlbScSWy_10balatro_rs10joker_impl15GluttonousJokerNtNtB6_5joker5Joker16modify_hand_sizeB6_
FN:1070,_RNvYNtNtCsfztrlbScSWy_10balatro_rs10joker_impl15GluttonousJokerNtNtB6_5joker5Joker17deserialize_stateB6_
FN:915,_RNvYNtNtCsfztrlbScSWy_10balatro_rs10joker_impl3EggNtNtB6_5joker5Joker10on_cleanupB6_
FN:827,_RNvYNtNtCsfztrlbScSWy_10balatro_rs10joker_impl3EggNtNtB6_5joker5Joker10on_createdB6_
FN:776,_RNvYNtNtCsfztrlbScSWy_10balatro_rs10joker_impl3EggNtNtB6_5joker5Joker10on_discardB6_
FN:959,_RNvYNtNtCsfztrlbScSWy_10balatro_rs10joker_impl3EggNtNtB6_5joker5Joker11modify_multB6_
FN:938,_RNvYNtNtCsfztrlbScSWy_10balatro_rs10joker_impl3EggNtNtB6_5joker5Joker12modify_chipsB6_
FN:856,_RNvYNtNtCsfztrlbScSWy_10balatro_rs10joker_impl3EggNtNtB6_5joker5Joker12on_activatedB6_
FN:761,_RNvYNtNtCsfztrlbScSWy_10balatro_rs10joker_impl3EggNtNtB6_5joker5Joker12on_shop_openB6_
FN:1178,_RNvYNtNtCsfztrlbScSWy_10balatro_rs10joker_impl3EggNtNtB6_5joker5Joker13migrate_stateB6_
FN:747,_RNvYNtNtCsfztrlbScSWy_10balatro_rs10joker_impl3EggNtNtB6_5joker5Joker14on_blind_startB6_
FN:725,_RNvYNtNtCsfztrlbScSWy_10balatro_rs10joker_impl3EggNtNtB6_5joker5Joker14on_card_scoredB6_
FN:885,_RNvYNtNtCsfztrlbScSWy_10balatro_rs10joker_impl3EggNtNtB6_5joker5Joker14on_deactivatedB6_
FN:695,_RNvYNtNtCsfztrlbScSWy_10balatro_rs10joker_impl3EggNtNtB6_5joker5Joker14on_hand_playedB6_
FN:1107,_RNvYNtNtCsfztrlbScSWy_10balatro_rs10joker_impl3EggNtNtB6_5joker5Joker14validate_stateB6_
FN:1003,_RNvYNtNtCsfztrlbScSWy_10balatro_rs10joker_impl3EggNtNtB6_5joker5Joker15modify_discardsB6_
FN:1033,_RNvYNtNtCsfztrlbScSWy_10balatro_rs10joker_impl3EggNtNtB6_5joker5Joker15serialize_stateB6_
FN:1141,_RNvYNtNtCsfztrlbScSWy_10balatro_rs10joker_impl3EggNtNtB6_5joker5Joker16initialize_stateB6_
FN:981,_RNvYNtNtCsfztrlbScSWy_10balatro_rs10joker_impl3EggNtNtB6_5joker5Joker16modify_hand_sizeB6_
FN:1070,_RNvYNtNtCsfztrlbScSWy_10balatro_rs10joker_impl3EggNtNtB6_5joker5Joker17deserialize_stateB6_
FN:915,_RNvYNtNtCsfztrlbScSWy_10balatro_rs10joker_impl7BurglarNtNtB6_5joker5Joker10on_cleanupB6_
FN:827,_RNvYNtNtCsfztrlbScSWy_10balatro_rs10joker_impl7BurglarNtNtB6_5joker5Joker10on_createdB6_
FN:776,_RNvYNtNtCsfztrlbScSWy_10balatro_rs10joker_impl7BurglarNtNtB6_5joker5Joker10on_discardB6_
FN:667,_RNvYNtNtCsfztrlbScSWy_10balatro_rs10joker_impl7BurglarNtNtB6_5joker5Joker10sell_valueB6_
FN:959,_RNvYNtNtCsfztrlbScSWy_10balatro_rs10joker_impl7BurglarNtNtB6_5joker5Joker11modify_multB6_
FN:938,_RNvYNtNtCsfztrlbScSWy_10balatro_rs10joker_impl7BurglarNtNtB6_5joker5Joker12modify_chipsB6_
FN:856,_RNvYNtNtCsfztrlbScSWy_10balatro_rs10joker_impl7BurglarNtNtB6_5joker5Joker12on_activatedB6_
FN:798,_RNvYNtNtCsfztrlbScSWy_10balatro_rs10joker_impl7BurglarNtNtB6_5joker5Joker12on_round_endB6_
FN:761,_RNvYNtNtCsfztrlbScSWy_10balatro_rs10joker_impl7BurglarNtNtB6_5joker5Joker12on_shop_openB6_
FN:1178,_RNvYNtNtCsfztrlbScSWy_10balatro_rs10joker_impl7BurglarNtNtB6_5joker5Joker13migrate_stateB6_
FN:725,_RNvYNtNtCsfztrlbScSWy_10balatro_rs10joker_impl7BurglarNtNtB6_5joker5Joker14on_card_scoredB6_
FN:885,_RNvYNtNtCsfztrlbScSWy_10balatro_rs10joker_impl7BurglarNtNtB6_5joker5Joker14on_deactivatedB6_
FN:695,_RNvYNtNtCsfztrlbScSWy_10balatro_rs10joker_impl7BurglarNtNtB6_5joker5Joker14on_hand_playedB6_
FN:1107,_RNvYNtNtCsfztrlbScSWy_10balatro_rs10joker_impl7BurglarNtNtB6_5joker5Joker14validate_stateB6_
FN:1003,_RNvYNtNtCsfztrlbScSWy_10balatro_rs10joker_impl7BurglarNtNtB6_5joker5Joker15modify_discardsB6_
FN:1033,_RNvYNtNtCsfztrlbScSWy_10balatro_rs10joker_impl7BurglarNtNtB6_5joker5Joker15serialize_stateB6_
FN:1141,_RNvYNtNtCsfztrlbScSWy_10balatro_rs10joker_impl7BurglarNtNtB6_5joker5Joker16initialize_stateB6_
FN:981,_RNvYNtNtCsfztrlbScSWy_10balatro_rs10joker_impl7BurglarNtNtB6_5joker5Joker16modify_hand_sizeB6_
FN:1070,_RNvYNtNtCsfztrlbScSWy_10balatro_rs10joker_impl7BurglarNtNtB6_5joker5Joker17deserialize_stateB6_
FN:915,_RNvYNtNtCsfztrlbScSWy_10balatro_rs10joker_impl8MadJokerNtNtB6_5joker5Joker10on_cleanupB6_
FN:827,_RNvYNtNtCsfztrlbScSWy_10balatro_rs10joker_impl8MadJokerNtNtB6_5joker5Joker10on_createdB6_
FN:776,_RNvYNtNtCsfztrlbScSWy_10balatro_rs10joker_impl8MadJokerNtNtB6_5joker5Joker10on_discardB6_
FN:667,_RNvYNtNtCsfztrlbScSWy_10balatro_rs10joker_impl8MadJokerNtNtB6_5joker5Joker10sell_valueB6_
FN:959,_RNvYNtNtCsfztrlbScSWy_10balatro_rs10joker_impl8MadJokerNtNtB6_5joker5Joker11modify_multB6_
FN:938,_RNvYNtNtCsfztrlbScSWy_10balatro_rs10joker_impl8MadJokerNtNtB6_5joker5Joker12modify_chipsB6_
FN:856,_RNvYNtNtCsfztrlbScSWy_10balatro_rs10joker_impl8MadJokerNtNtB6_5joker5Joker12on_activatedB6_
FN:798,_RNvYNtNtCsfztrlbScSWy_10balatro_rs10joker_impl8MadJokerNtNtB6_5joker5Joker12on_round_endB6_
FN:761,_RNvYNtNtCsfztrlbScSWy_10balatro_rs10joker_impl8MadJokerNtNtB6_5joker5Joker12on_shop_openB6_
FN:1178,_RNvYNtNtCsfztrlbScSWy_10balatro_rs10joker_impl8MadJokerNtNtB6_5joker5Joker13migrate_stateB6_
FN:747,_RNvYNtNtCsfztrlbScSWy_10balatro_rs10joker_impl8MadJokerNtNtB6_5joker5Joker14on_blind_startB6_
FN:725,_RNvYNtNtCsfztrlbScSWy_10balatro_rs10joker_impl8MadJokerNtNtB6_5joker5Joker14on_card_scoredB6_
FN:885,_RNvYNtNtCsfztrlbScSWy_10balatro_rs10joker_impl8MadJokerNtNtB6_5joker5Joker14on_deactivatedB6_
FN:1107,_RNvYNtNtCsfztrlbScSWy_10balatro_rs10joker_impl8MadJokerNtNtB6_5joker5Joker14validate_stateB6_
FN:1003,_RNvYNtNtCsfztrlbScSWy_10balatro_rs10joker_impl8MadJokerNtNtB6_5joker5Joker15modify_discardsB6_
FN:1033,_RNvYNtNtCsfztrlbScSWy_10balatro_rs10joker_impl8MadJokerNtNtB6_5joker5Joker15serialize_stateB6_
FN:1141,_RNvYNtNtCsfztrlbScSWy_10balatro_rs10joker_impl8MadJokerNtNtB6_5joker5Joker16initialize_stateB6_
FN:981,_RNvYNtNtCsfztrlbScSWy_10balatro_rs10joker_impl8MadJokerNtNtB6_5joker5Joker16modify_hand_sizeB6_
FN:1070,_RNvYNtNtCsfztrlbScSWy_10balatro_rs10joker_impl8MadJokerNtNtB6_5joker5Joker17deserialize_stateB6_
FN:915,_RNvYNtNtCsfztrlbScSWy_10balatro_rs10joker_impl8SlyJokerNtNtB6_5joker5Joker10on_cleanupB6_
FN:827,_RNvYNtNtCsfztrlbScSWy_10balatro_rs10joker_impl8SlyJokerNtNtB6_5joker5Joker10on_createdB6_
FN:776,_RNvYNtNtCsfztrlbScSWy_10balatro_rs10joker_impl8SlyJokerNtNtB6_5joker5Joker10on_discardB6_
FN:667,_RNvYNtNtCsfztrlbScSWy_10balatro_rs10joker_impl8SlyJokerNtNtB6_5joker5Joker10sell_valueB6_
FN:959,_RNvYNtNtCsfztrlbScSWy_10balatro_rs10joker_impl8SlyJokerNtNtB6_5joker5Joker11modify_multB6_
FN:938,_RNvYNtNtCsfztrlbScSWy_10balatro_rs10joker_impl8SlyJokerNtNtB6_5joker5Joker12modify_chipsB6_
FN:856,_RNvYNtNtCsfztrlbScSWy_10balatro_rs10joker_impl8SlyJokerNtNtB6_5joker5Joker12on_activatedB6_
FN:798,_RNvYNtNtCsfztrlbScSWy_10balatro_rs10joker_impl8SlyJokerNtNtB6_5joker5Joker12on_round_endB6_
FN:761,_RNvYNtNtCsfztrlbScSWy_10balatro_rs10joker_impl8SlyJokerNtNtB6_5joker5Joker12on_shop_openB6_
FN:1178,_RNvYNtNtCsfztrlbScSWy_10balatro_rs10joker_impl8SlyJokerNtNtB6_5joker5Joker13migrate_stateB6_
FN:747,_RNvYNtNtCsfztrlbScSWy_10balatro_rs10joker_impl8SlyJokerNtNtB6_5joker5Joker14on_blind_startB6_
FN:725,_RNvYNtNtCsfztrlbScSWy_10balatro_rs10joker_impl8SlyJokerNtNtB6_5joker5Joker14on_card_scoredB6_
FN:885,_RNvYNtNtCsfztrlbScSWy_10balatro_rs10joker_impl8SlyJokerNtNtB6_5joker5Joker14on_deactivatedB6_
FN:1107,_RNvYNtNtCsfztrlbScSWy_10balatro_rs10joker_impl8SlyJokerNtNtB6_5joker5Joker14validate_stateB6_
FN:1003,_RNvYNtNtCsfztrlbScSWy_10balatro_rs10joker_impl8SlyJokerNtNtB6_5joker5Joker15modify_discardsB6_
FN:1033,_RNvYNtNtCsfztrlbScSWy_10balatro_rs10joker_impl8SlyJokerNtNtB6_5joker5Joker15serialize_stateB6_
FN:1141,_RNvYNtNtCsfztrlbScSWy_10balatro_rs10joker_impl8SlyJokerNtNtB6_5joker5Joker16initialize_stateB6_
FN:981,_RNvYNtNtCsfztrlbScSWy_10balatro_rs10joker_impl8SlyJokerNtNtB6_5joker5Joker16modify_hand_sizeB6_
FN:1070,_RNvYNtNtCsfztrlbScSWy_10balatro_rs10joker_impl8SlyJokerNtNtB6_5joker5Joker17deserialize_stateB6_
FN:915,_RNvYNtNtCsfztrlbScSWy_10balatro_rs10joker_impl8TheJokerNtNtB6_5joker5Joker10on_cleanupB6_
FN:827,_RNvYNtNtCsfztrlbScSWy_10balatro_rs10joker_impl8TheJokerNtNtB6_5joker5Joker10on_createdB6_
FN:776,_RNvYNtNtCsfztrlbScSWy_10balatro_rs10joker_impl8TheJokerNtNtB6_5joker5Joker10on_discardB6_
FN:667,_RNvYNtNtCsfztrlbScSWy_10balatro_rs10joker_impl8TheJokerNtNtB6_5joker5Joker10sell_valueB6_
FN:959,_RNvYNtNtCsfztrlbScSWy_10balatro_rs10joker_impl8TheJokerNtNtB6_5joker5Joker11modify_multB6_
FN:938,_RNvYNtNtCsfztrlbScSWy_10balatro_rs10joker_impl8TheJokerNtNtB6_5joker5Joker12modify_chipsB6_
FN:856,_RNvYNtNtCsfztrlbScSWy_10balatro_rs10joker_impl8TheJokerNtNtB6_5joker5Joker12on_activatedB6_
FN:798,_RNvYNtNtCsfztrlbScSWy_10balatro_rs10joker_impl8TheJokerNtNtB6_5joker5Joker12on_round_endB6_
FN:761,_RNvYNtNtCsfztrlbScSWy_10balatro_rs10joker_impl8TheJokerNtNtB6_5joker5Joker12on_shop_openB6_
FN:1178,_RNvYNtNtCsfztrlbScSWy_10balatro_rs10joker_impl8TheJokerNtNtB6_5joker5Joker13migrate_stateB6_
FN:747,_RNvYNtNtCsfztrlbScSWy_10balatro_rs10joker_impl8TheJokerNtNtB6_5joker5Joker14on_blind_startB6_
FN:725,_RNvYNtNtCsfztrlbScSWy_10balatro_rs10joker_impl8TheJokerNtNtB6_5joker5Joker14on_card_scoredB6_
FN:885,_RNvYNtNtCsfztrlbScSWy_10balatro_rs10joker_impl8TheJokerNtNtB6_5joker5Joker14on_deactivatedB6_
FN:1107,_RNvYNtNtCsfztrlbScSWy_10balatro_rs10joker_impl8TheJokerNtNtB6_5joker5Joker14validate_stateB6_
FN:1003,_RNvYNtNtCsfztrlbScSWy_10balatro_rs10joker_impl8TheJokerNtNtB6_5joker5Joker15modify_discardsB6_
FN:1033,_RNvYNtNtCsfztrlbScSWy_10balatro_rs10joker_impl8TheJokerNtNtB6_5joker5Joker15serialize_stateB6_
FN:1141,_RNvYNtNtCsfztrlbScSWy_10balatro_rs10joker_impl8TheJokerNtNtB6_5joker5Joker16initialize_stateB6_
FN:981,_RNvYNtNtCsfztrlbScSWy_10balatro_rs10joker_impl8TheJokerNtNtB6_5joker5Joker16modify_hand_sizeB6_
FN:1070,_RNvYNtNtCsfztrlbScSWy_10balatro_rs10joker_impl8TheJokerNtNtB6_5joker5Joker17deserialize_stateB6_
FN:915,_RNvYNtNtCsfztrlbScSWy_10balatro_rs10joker_impl9WilyJokerNtNtB6_5joker5Joker10on_cleanupB6_
FN:827,_RNvYNtNtCsfztrlbScSWy_10balatro_rs10joker_impl9WilyJokerNtNtB6_5joker5Joker10on_createdB6_
FN:776,_RNvYNtNtCsfztrlbScSWy_10balatro_rs10joker_impl9WilyJokerNtNtB6_5joker5Joker10on_discardB6_
FN:667,_RNvYNtNtCsfztrlbScSWy_10balatro_rs10joker_impl9WilyJokerNtNtB6_5joker5Joker10sell_valueB6_
FN:959,_RNvYNtNtCsfztrlbScSWy_10balatro_rs10joker_impl9WilyJokerNtNtB6_5joker5Joker11modify_multB6_
FN:938,_RNvYNtNtCsfztrlbScSWy_10balatro_rs10joker_impl9WilyJokerNtNtB6_5joker5Joker12modify_chipsB6_
FN:856,_RNvYNtNtCsfztrlbScSWy_10balatro_rs10joker_impl9WilyJokerNtNtB6_5joker5Joker12on_activatedB6_
FN:798,_RNvYNtNtCsfztrlbScSWy_10balatro_rs10joker_impl9WilyJokerNtNtB6_5joker5Joker12on_round_endB6_
FN:761,_RNvYNtNtCsfztrlbScSWy_10balatro_rs10joker_impl9WilyJokerNtNtB6_5joker5Joker12on_shop_openB6_
FN:1178,_RNvYNtNtCsfztrlbScSWy_10balatro_rs10joker_impl9WilyJokerNtNtB6_5joker5Joker13migrate_stateB6_
FN:747,_RNvYNtNtCsfztrlbScSWy_10balatro_rs10joker_impl9WilyJokerNtNtB6_5joker5Joker14on_blind_startB6_
FN:725,_RNvYNtNtCsfztrlbScSWy_10balatro_rs10joker_impl9WilyJokerNtNtB6_5joker5Joker14on_card_scoredB6_
FN:885,_RNvYNtNtCsfztrlbScSWy_10balatro_rs10joker_impl9WilyJokerNtNtB6_5joker5Joker14on_deactivatedB6_
FN:1107,_RNvYNtNtCsfztrlbScSWy_10balatro_rs10joker_impl9WilyJokerNtNtB6_5joker5Joker14validate_stateB6_
FN:1003,_RNvYNtNtCsfztrlbScSWy_10balatro_rs10joker_impl9WilyJokerNtNtB6_5joker5Joker15modify_discardsB6_
FN:1033,_RNvYNtNtCsfztrlbScSWy_10balatro_rs10joker_impl9WilyJokerNtNtB6_5joker5Joker15serialize_stateB6_
FN:1141,_RNvYNtNtCsfztrlbScSWy_10balatro_rs10joker_impl9WilyJokerNtNtB6_5joker5Joker16initialize_stateB6_
FN:981,_RNvYNtNtCsfztrlbScSWy_10balatro_rs10joker_impl9WilyJokerNtNtB6_5joker5Joker16modify_hand_sizeB6_
FN:1070,_RNvYNtNtCsfztrlbScSWy_10balatro_rs10joker_impl9WilyJokerNtNtB6_5joker5Joker17deserialize_stateB6_
FN:915,_RNvYNtNtCsfztrlbScSWy_10balatro_rs10joker_impl9ZanyJokerNtNtB6_5joker5Joker10on_cleanupB6_
FN:827,_RNvYNtNtCsfztrlbScSWy_10balatro_rs10joker_impl9ZanyJokerNtNtB6_5joker5Joker10on_createdB6_
FN:776,_RNvYNtNtCsfztrlbScSWy_10balatro_rs10joker_impl9ZanyJokerNtNtB6_5joker5Joker10on_discardB6_
FN:667,_RNvYNtNtCsfztrlbScSWy_10balatro_rs10joker_impl9ZanyJokerNtNtB6_5joker5Joker10sell_valueB6_
FN:959,_RNvYNtNtCsfztrlbScSWy_10balatro_rs10joker_impl9ZanyJokerNtNtB6_5joker5Joker11modify_multB6_
FN:938,_RNvYNtNtCsfztrlbScSWy_10balatro_rs10joker_impl9ZanyJokerNtNtB6_5joker5Joker12modify_chipsB6_
FN:856,_RNvYNtNtCsfztrlbScSWy_10balatro_rs10joker_impl9ZanyJokerNtNtB6_5joker5Joker12on_activatedB6_
FN:798,_RNvYNtNtCsfztrlbScSWy_10balatro_rs10joker_impl9ZanyJokerNtNtB6_5joker5Joker12on_round_endB6_
FN:761,_RNvYNtNtCsfztrlbScSWy_10balatro_rs10joker_impl9ZanyJokerNtNtB6_5joker5Joker12on_shop_openB6_
FN:1178,_RNvYNtNtCsfztrlbScSWy_10balatro_rs10joker_impl9ZanyJokerNtNtB6_5joker5Joker13migrate_stateB6_
FN:747,_RNvYNtNtCsfztrlbScSWy_10balatro_rs10joker_impl9ZanyJokerNtNtB6_5joker5Joker14on_blind_startB6_
FN:725,_RNvYNtNtCsfztrlbScSWy_10balatro_rs10joker_impl9ZanyJokerNtNtB6_5joker5Joker14on_card_scoredB6_
FN:885,_RNvYNtNtCsfztrlbScSWy_10balatro_rs10joker_impl9ZanyJokerNtNtB6_5joker5Joker14on_deactivatedB6_
FN:1107,_RNvYNtNtCsfztrlbScSWy_10balatro_rs10joker_impl9ZanyJokerNtNtB6_5joker5Joker14validate_stateB6_
FN:1003,_RNvYNtNtCsfztrlbScSWy_10balatro_rs10joker_impl9ZanyJokerNtNtB6_5joker5Joker15modify_discardsB6_
FN:1033,_RNvYNtNtCsfztrlbScSWy_10balatro_rs10joker_impl9ZanyJokerNtNtB6_5joker5Joker15serialize_stateB6_
FN:1141,_RNvYNtNtCsfztrlbScSWy_10balatro_rs10joker_impl9ZanyJokerNtNtB6_5joker5Joker16initialize_stateB6_
FN:981,_RNvYNtNtCsfztrlbScSWy_10balatro_rs10joker_impl9ZanyJokerNtNtB6_5joker5Joker16modify_hand_sizeB6_
FN:1070,_RNvYNtNtCsfztrlbScSWy_10balatro_rs10joker_impl9ZanyJokerNtNtB6_5joker5Joker17deserialize_stateB6_
FN:1184,_RNCNvYNtCshZyfRyD2rsG_24joker_effect_system_test18TestLifecycleJokerNtNtCsfztrlbScSWy_10balatro_rs5joker5Joker13migrate_state0B6_
FN:1184,_RNCNvYNtCshZyfRyD2rsG_24joker_effect_system_test19TestMultiplierJokerNtNtCsfztrlbScSWy_10balatro_rs5joker5Joker13migrate_state0B6_
FN:915,_RNvYNtCshZyfRyD2rsG_24joker_effect_system_test18TestLifecycleJokerNtNtCsfztrlbScSWy_10balatro_rs5joker5Joker10on_cleanupB4_
FN:827,_RNvYNtCshZyfRyD2rsG_24joker_effect_system_test18TestLifecycleJokerNtNtCsfztrlbScSWy_10balatro_rs5joker5Joker10on_createdB4_
FN:776,_RNvYNtCshZyfRyD2rsG_24joker_effect_system_test18TestLifecycleJokerNtNtCsfztrlbScSWy_10balatro_rs5joker5Joker10on_discardB4_
FN:667,_RNvYNtCshZyfRyD2rsG_24joker_effect_system_test18TestLifecycleJokerNtNtCsfztrlbScSWy_10balatro_rs5joker5Joker10sell_valueB4_
FN:959,_RNvYNtCshZyfRyD2rsG_24joker_effect_system_test18TestLifecycleJokerNtNtCsfztrlbScSWy_10balatro_rs5joker5Joker11modify_multB4_
FN:938,_RNvYNtCshZyfRyD2rsG_24joker_effect_system_test18TestLifecycleJokerNtNtCsfztrlbScSWy_10balatro_rs5joker5Joker12modify_chipsB4_
FN:856,_RNvYNtCshZyfRyD2rsG_24joker_effect_system_test18TestLifecycleJokerNtNtCsfztrlbScSWy_10balatro_rs5joker5Joker12on_activatedB4_
FN:798,_RNvYNtCshZyfRyD2rsG_24joker_effect_system_test18TestLifecycleJokerNtNtCsfztrlbScSWy_10balatro_rs5joker5Joker12on_round_endB4_
FN:761,_RNvYNtCshZyfRyD2rsG_24joker_effect_system_test18TestLifecycleJokerNtNtCsfztrlbScSWy_10balatro_rs5joker5Joker12on_shop_openB4_
FN:1178,_RNvYNtCshZyfRyD2rsG_24joker_effect_system_test18TestLifecycleJokerNtNtCsfztrlbScSWy_10balatro_rs5joker5Joker13migrate_stateB4_
FN:725,_RNvYNtCshZyfRyD2rsG_24joker_effect_system_test18TestLifecycleJokerNtNtCsfztrlbScSWy_10balatro_rs5joker5Joker14on_card_scoredB4_
FN:885,_RNvYNtCshZyfRyD2rsG_24joker_effect_system_test18TestLifecycleJokerNtNtCsfztrlbScSWy_10balatro_rs5joker5Joker14on_deactivatedB4_
FN:695,_RNvYNtCshZyfRyD2rsG_24joker_effect_system_test18TestLifecycleJokerNtNtCsfztrlbScSWy_10balatro_rs5joker5Joker14on_hand_playedB4_
FN:1107,_RNvYNtCshZyfRyD2rsG_24joker_effect_system_test18TestLifecycleJokerNtNtCsfztrlbScSWy_10balatro_rs5joker5Joker14validate_stateB4_
FN:1003,_RNvYNtCshZyfRyD2rsG_24joker_effect_system_test18TestLifecycleJokerNtNtCsfztrlbScSWy_10balatro_rs5joker5Joker15modify_discardsB4_
FN:1033,_RNvYNtCshZyfRyD2rsG_24joker_effect_system_test18TestLifecycleJokerNtNtCsfztrlbScSWy_10balatro_rs5joker5Joker15serialize_stateB4_
FN:1141,_RNvYNtCshZyfRyD2rsG_24joker_effect_system_test18TestLifecycleJokerNtNtCsfztrlbScSWy_10balatro_rs5joker5Joker16initialize_stateB4_
FN:981,_RNvYNtCshZyfRyD2rsG_24joker_effect_system_test18TestLifecycleJokerNtNtCsfztrlbScSWy_10balatro_rs5joker5Joker16modify_hand_sizeB4_
FN:1070,_RNvYNtCshZyfRyD2rsG_24joker_effect_system_test18TestLifecycleJokerNtNtCsfztrlbScSWy_10balatro_rs5joker5Joker17deserialize_stateB4_
FN:657,_RNvYNtCshZyfRyD2rsG_24joker_effect_system_test18TestLifecycleJokerNtNtCsfztrlbScSWy_10balatro_rs5joker5Joker4costB4_
FN:915,_RNvYNtCshZyfRyD2rsG_24joker_effect_system_test19TestMultiplierJokerNtNtCsfztrlbScSWy_10balatro_rs5joker5Joker10on_cleanupB4_
FN:827,_RNvYNtCshZyfRyD2rsG_24joker_effect_system_test19TestMultiplierJokerNtNtCsfztrlbScSWy_10balatro_rs5joker5Joker10on_createdB4_
FN:776,_RNvYNtCshZyfRyD2rsG_24joker_effect_system_test19TestMultiplierJokerNtNtCsfztrlbScSWy_10balatro_rs5joker5Joker10on_discardB4_
FN:667,_RNvYNtCshZyfRyD2rsG_24joker_effect_system_test19TestMultiplierJokerNtNtCsfztrlbScSWy_10balatro_rs5joker5Joker10sell_valueB4_
FN:959,_RNvYNtCshZyfRyD2rsG_24joker_effect_system_test19TestMultiplierJokerNtNtCsfztrlbScSWy_10balatro_rs5joker5Joker11modify_multB4_
FN:938,_RNvYNtCshZyfRyD2rsG_24joker_effect_system_test19TestMultiplierJokerNtNtCsfztrlbScSWy_10balatro_rs5joker5Joker12modify_chipsB4_
FN:856,_RNvYNtCshZyfRyD2rsG_24joker_effect_system_test19TestMultiplierJokerNtNtCsfztrlbScSWy_10balatro_rs5joker5Joker12on_activatedB4_
FN:798,_RNvYNtCshZyfRyD2rsG_24joker_effect_system_test19TestMultiplierJokerNtNtCsfztrlbScSWy_10balatro_rs5joker5Joker12on_round_endB4_
FN:761,_RNvYNtCshZyfRyD2rsG_24joker_effect_system_test19TestMultiplierJokerNtNtCsfztrlbScSWy_10balatro_rs5joker5Joker12on_shop_openB4_
FN:1178,_RNvYNtCshZyfRyD2rsG_24joker_effect_system_test19TestMultiplierJokerNtNtCsfztrlbScSWy_10balatro_rs5joker5Joker13migrate_stateB4_
FN:747,_RNvYNtCshZyfRyD2rsG_24joker_effect_system_test19TestMultiplierJokerNtNtCsfztrlbScSWy_10balatro_rs5joker5Joker14on_blind_startB4_
FN:725,_RNvYNtCshZyfRyD2rsG_24joker_effect_system_test19TestMultiplierJokerNtNtCsfztrlbScSWy_10balatro_rs5joker5Joker14on_card_scoredB4_
FN:885,_RNvYNtCshZyfRyD2rsG_24joker_effect_system_test19TestMultiplierJokerNtNtCsfztrlbScSWy_10balatro_rs5joker5Joker14on_deactivatedB4_
FN:1107,_RNvYNtCshZyfRyD2rsG_24joker_effect_system_test19TestMultiplierJokerNtNtCsfztrlbScSWy_10balatro_rs5joker5Joker14validate_stateB4_
FN:1003,_RNvYNtCshZyfRyD2rsG_24joker_effect_system_test19TestMultiplierJokerNtNtCsfztrlbScSWy_10balatro_rs5joker5Joker15modify_discardsB4_
FN:1033,_RNvYNtCshZyfRyD2rsG_24joker_effect_system_test19TestMultiplierJokerNtNtCsfztrlbScSWy_10balatro_rs5joker5Joker15serialize_stateB4_
FN:1141,_RNvYNtCshZyfRyD2rsG_24joker_effect_system_test19TestMultiplierJokerNtNtCsfztrlbScSWy_10balatro_rs5joker5Joker16initialize_stateB4_
FN:981,_RNvYNtCshZyfRyD2rsG_24joker_effect_system_test19TestMultiplierJokerNtNtCsfztrlbScSWy_10balatro_rs5joker5Joker16modify_hand_sizeB4_
FN:1070,_RNvYNtCshZyfRyD2rsG_24joker_effect_system_test19TestMultiplierJokerNtNtCsfztrlbScSWy_10balatro_rs5joker5Joker17deserialize_stateB4_
FN:657,_RNvYNtCshZyfRyD2rsG_24joker_effect_system_test19TestMultiplierJokerNtNtCsfztrlbScSWy_10balatro_rs5joker5Joker4costB4_
FN:915,_RNvYNtNtCsfztrlbScSWy_10balatro_rs18basic_chips_jokers10StoneJokerNtNtB6_5joker5Joker10on_cleanupCshW9MzHmoBJh_23test_basic_chips_jokers
FN:827,_RNvYNtNtCsfztrlbScSWy_10balatro_rs18basic_chips_jokers10StoneJokerNtNtB6_5joker5Joker10on_createdCshW9MzHmoBJh_23test_basic_chips_jokers
FN:776,_RNvYNtNtCsfztrlbScSWy_10balatro_rs18basic_chips_jokers10StoneJokerNtNtB6_5joker5Joker10on_discardCshW9MzHmoBJh_23test_basic_chips_jokers
FN:667,_RNvYNtNtCsfztrlbScSWy_10balatro_rs18basic_chips_jokers10StoneJokerNtNtB6_5joker5Joker10sell_valueCshW9MzHmoBJh_23test_basic_chips_jokers
FN:959,_RNvYNtNtCsfztrlbScSWy_10balatro_rs18basic_chips_jokers10StoneJokerNtNtB6_5joker5Joker11modify_multCshW9MzHmoBJh_23test_basic_chips_jokers
FN:938,_RNvYNtNtCsfztrlbScSWy_10balatro_rs18basic_chips_jokers10StoneJokerNtNtB6_5joker5Joker12modify_chipsCshW9MzHmoBJh_23test_basic_chips_jokers
FN:856,_RNvYNtNtCsfztrlbScSWy_10balatro_rs18basic_chips_jokers10StoneJokerNtNtB6_5joker5Joker12on_activatedCshW9MzHmoBJh_23test_basic_chips_jokers
FN:798,_RNvYNtNtCsfztrlbScSWy_10balatro_rs18basic_chips_jokers10StoneJokerNtNtB6_5joker5Joker12on_round_endCshW9MzHmoBJh_23test_basic_chips_jokers
FN:761,_RNvYNtNtCsfztrlbScSWy_10balatro_rs18basic_chips_jokers10StoneJokerNtNtB6_5joker5Joker12on_shop_openCshW9MzHmoBJh_23test_basic_chips_jokers
FN:1178,_RNvYNtNtCsfztrlbScSWy_10balatro_rs18basic_chips_jokers10StoneJokerNtNtB6_5joker5Joker13migrate_stateCshW9MzHmoBJh_23test_basic_chips_jokers
FN:747,_RNvYNtNtCsfztrlbScSWy_10balatro_rs18basic_chips_jokers10StoneJokerNtNtB6_5joker5Joker14on_blind_startCshW9MzHmoBJh_23test_basic_chips_jokers
FN:725,_RNvYNtNtCsfztrlbScSWy_10balatro_rs18basic_chips_jokers10StoneJokerNtNtB6_5joker5Joker14on_card_scoredCshW9MzHmoBJh_23test_basic_chips_jokers
FN:885,_RNvYNtNtCsfztrlbScSWy_10balatro_rs18basic_chips_jokers10StoneJokerNtNtB6_5joker5Joker14on_deactivatedCshW9MzHmoBJh_23test_basic_chips_jokers
FN:1107,_RNvYNtNtCsfztrlbScSWy_10balatro_rs18basic_chips_jokers10StoneJokerNtNtB6_5joker5Joker14validate_stateCshW9MzHmoBJh_23test_basic_chips_jokers
FN:1003,_RNvYNtNtCsfztrlbScSWy_10balatro_rs18basic_chips_jokers10StoneJokerNtNtB6_5joker5Joker15modify_discardsCshW9MzHmoBJh_23test_basic_chips_jokers
FN:1033,_RNvYNtNtCsfztrlbScSWy_10balatro_rs18basic_chips_jokers10StoneJokerNtNtB6_5joker5Joker15serialize_stateCshW9MzHmoBJh_23test_basic_chips_jokers
FN:1141,_RNvYNtNtCsfztrlbScSWy_10balatro_rs18basic_chips_jokers10StoneJokerNtNtB6_5joker5Joker16initialize_stateCshW9MzHmoBJh_23test_basic_chips_jokers
FN:981,_RNvYNtNtCsfztrlbScSWy_10balatro_rs18basic_chips_jokers10StoneJokerNtNtB6_5joker5Joker16modify_hand_sizeCshW9MzHmoBJh_23test_basic_chips_jokers
FN:1070,_RNvYNtNtCsfztrlbScSWy_10balatro_rs18basic_chips_jokers10StoneJokerNtNtB6_5joker5Joker17deserialize_stateCshW9MzHmoBJh_23test_basic_chips_jokers
FN:915,_RNvYNtNtCsfztrlbScSWy_10balatro_rs18basic_chips_jokers11BannerJokerNtNtB6_5joker5Joker10on_cleanupCshW9MzHmoBJh_23test_basic_chips_jokers
FN:827,_RNvYNtNtCsfztrlbScSWy_10balatro_rs18basic_chips_jokers11BannerJokerNtNtB6_5joker5Joker10on_createdCshW9MzHmoBJh_23test_basic_chips_jokers
FN:776,_RNvYNtNtCsfztrlbScSWy_10balatro_rs18basic_chips_jokers11BannerJokerNtNtB6_5joker5Joker10on_discardCshW9MzHmoBJh_23test_basic_chips_jokers
FN:667,_RNvYNtNtCsfztrlbScSWy_10balatro_rs18basic_chips_jokers11BannerJokerNtNtB6_5joker5Joker10sell_valueCshW9MzHmoBJh_23test_basic_chips_jokers
FN:959,_RNvYNtNtCsfztrlbScSWy_10balatro_rs18basic_chips_jokers11BannerJokerNtNtB6_5joker5Joker11modify_multCshW9MzHmoBJh_23test_basic_chips_jokers
FN:938,_RNvYNtNtCsfztrlbScSWy_10balatro_rs18basic_chips_jokers11BannerJokerNtNtB6_5joker5Joker12modify_chipsCshW9MzHmoBJh_23test_basic_chips_jokers
FN:856,_RNvYNtNtCsfztrlbScSWy_10balatro_rs18basic_chips_jokers11BannerJokerNtNtB6_5joker5Joker12on_activatedCshW9MzHmoBJh_23test_basic_chips_jokers
FN:798,_RNvYNtNtCsfztrlbScSWy_10balatro_rs18basic_chips_jokers11BannerJokerNtNtB6_5joker5Joker12on_round_endCshW9MzHmoBJh_23test_basic_chips_jokers
FN:761,_RNvYNtNtCsfztrlbScSWy_10balatro_rs18basic_chips_jokers11BannerJokerNtNtB6_5joker5Joker12on_shop_openCshW9MzHmoBJh_23test_basic_chips_jokers
FN:1178,_RNvYNtNtCsfztrlbScSWy_10balatro_rs18basic_chips_jokers11BannerJokerNtNtB6_5joker5Joker13migrate_stateCshW9MzHmoBJh_23test_basic_chips_jokers
FN:747,_RNvYNtNtCsfztrlbScSWy_10balatro_rs18basic_chips_jokers11BannerJokerNtNtB6_5joker5Joker14on_blind_startCshW9MzHmoBJh_23test_basic_chips_jokers
FN:725,_RNvYNtNtCsfztrlbScSWy_10balatro_rs18basic_chips_jokers11BannerJokerNtNtB6_5joker5Joker14on_card_scoredCshW9MzHmoBJh_23test_basic_chips_jokers
FN:885,_RNvYNtNtCsfztrlbScSWy_10balatro_rs18basic_chips_jokers11BannerJokerNtNtB6_5joker5Joker14on_deactivatedCshW9MzHmoBJh_23test_basic_chips_jokers
FN:1107,_RNvYNtNtCsfztrlbScSWy_10balatro_rs18basic_chips_jokers11BannerJokerNtNtB6_5joker5Joker14validate_stateCshW9MzHmoBJh_23test_basic_chips_jokers
FN:1003,_RNvYNtNtCsfztrlbScSWy_10balatro_rs18basic_chips_jokers11BannerJokerNtNtB6_5joker5Joker15modify_discardsCshW9MzHmoBJh_23test_basic_chips_jokers
FN:1033,_RNvYNtNtCsfztrlbScSWy_10balatro_rs18basic_chips_jokers11BannerJokerNtNtB6_5joker5Joker15serialize_stateCshW9MzHmoBJh_23test_basic_chips_jokers
FN:1141,_RNvYNtNtCsfztrlbScSWy_10balatro_rs18basic_chips_jokers11BannerJokerNtNtB6_5joker5Joker16initialize_stateCshW9MzHmoBJh_23test_basic_chips_jokers
FN:981,_RNvYNtNtCsfztrlbScSWy_10balatro_rs18basic_chips_jokers11BannerJokerNtNtB6_5joker5Joker16modify_hand_sizeCshW9MzHmoBJh_23test_basic_chips_jokers
FN:1070,_RNvYNtNtCsfztrlbScSWy_10balatro_rs18basic_chips_jokers11BannerJokerNtNtB6_5joker5Joker17deserialize_stateCshW9MzHmoBJh_23test_basic_chips_jokers
FN:915,_RNvYNtNtCsfztrlbScSWy_10balatro_rs18basic_chips_jokers14ScaryFaceJokerNtNtB6_5joker5Joker10on_cleanupCshW9MzHmoBJh_23test_basic_chips_jokers
FN:827,_RNvYNtNtCsfztrlbScSWy_10balatro_rs18basic_chips_jokers14ScaryFaceJokerNtNtB6_5joker5Joker10on_createdCshW9MzHmoBJh_23test_basic_chips_jokers
FN:776,_RNvYNtNtCsfztrlbScSWy_10balatro_rs18basic_chips_jokers14ScaryFaceJokerNtNtB6_5joker5Joker10on_discardCshW9MzHmoBJh_23test_basic_chips_jokers
FN:667,_RNvYNtNtCsfztrlbScSWy_10balatro_rs18basic_chips_jokers14ScaryFaceJokerNtNtB6_5joker5Joker10sell_valueCshW9MzHmoBJh_23test_basic_chips_jokers
FN:959,_RNvYNtNtCsfztrlbScSWy_10balatro_rs18basic_chips_jokers14ScaryFaceJokerNtNtB6_5joker5Joker11modify_multCshW9MzHmoBJh_23test_basic_chips_jokers
FN:938,_RNvYNtNtCsfztrlbScSWy_10balatro_rs18basic_chips_jokers14ScaryFaceJokerNtNtB6_5joker5Joker12modify_chipsCshW9MzHmoBJh_23test_basic_chips_jokers
FN:856,_RNvYNtNtCsfztrlbScSWy_10balatro_rs18basic_chips_jokers14ScaryFaceJokerNtNtB6_5joker5Joker12on_activatedCshW9MzHmoBJh_23test_basic_chips_jokers
FN:798,_RNvYNtNtCsfztrlbScSWy_10balatro_rs18basic_chips_jokers14ScaryFaceJokerNtNtB6_5joker5Joker12on_round_endCshW9MzHmoBJh_23test_basic_chips_jokers
FN:761,_RNvYNtNtCsfztrlbScSWy_10balatro_rs18basic_chips_jokers14ScaryFaceJokerNtNtB6_5joker5Joker12on_shop_openCshW9MzHmoBJh_23test_basic_chips_jokers
FN:1178,_RNvYNtNtCsfztrlbScSWy_10balatro_rs18basic_chips_jokers14ScaryFaceJokerNtNtB6_5joker5Joker13migrate_stateCshW9MzHmoBJh_23test_basic_chips_jokers
FN:747,_RNvYNtNtCsfztrlbScSWy_10balatro_rs18basic_chips_jokers14ScaryFaceJokerNtNtB6_5joker5Joker14on_blind_startCshW9MzHmoBJh_23test_basic_chips_jokers
FN:885,_RNvYNtNtCsfztrlbScSWy_10balatro_rs18basic_chips_jokers14ScaryFaceJokerNtNtB6_5joker5Joker14on_deactivatedCshW9MzHmoBJh_23test_basic_chips_jokers
FN:695,_RNvYNtNtCsfztrlbScSWy_10balatro_rs18basic_chips_jokers14ScaryFaceJokerNtNtB6_5joker5Joker14on_hand_playedCshW9MzHmoBJh_23test_basic_chips_jokers
FN:1107,_RNvYNtNtCsfztrlbScSWy_10balatro_rs18basic_chips_jokers14ScaryFaceJokerNtNtB6_5joker5Joker14validate_stateCshW9MzHmoBJh_23test_basic_chips_jokers
FN:1003,_RNvYNtNtCsfztrlbScSWy_10balatro_rs18basic_chips_jokers14ScaryFaceJokerNtNtB6_5joker5Joker15modify_discardsCshW9MzHmoBJh_23test_basic_chips_jokers
FN:1033,_RNvYNtNtCsfztrlbScSWy_10balatro_rs18basic_chips_jokers14ScaryFaceJokerNtNtB6_5joker5Joker15serialize_stateCshW9MzHmoBJh_23test_basic_chips_jokers
FN:1141,_RNvYNtNtCsfztrlbScSWy_10balatro_rs18basic_chips_jokers14ScaryFaceJokerNtNtB6_5joker5Joker16initialize_stateCshW9MzHmoBJh_23test_basic_chips_jokers
FN:981,_RNvYNtNtCsfztrlbScSWy_10balatro_rs18basic_chips_jokers14ScaryFaceJokerNtNtB6_5joker5Joker16modify_hand_sizeCshW9MzHmoBJh_23test_basic_chips_jokers
FN:1070,_RNvYNtNtCsfztrlbScSWy_10balatro_rs18basic_chips_jokers14ScaryFaceJokerNtNtB6_5joker5Joker17deserialize_stateCshW9MzHmoBJh_23test_basic_chips_jokers
FN:915,_RNvYNtNtCsfztrlbScSWy_10balatro_rs18basic_chips_jokers9BlueJokerNtNtB6_5joker5Joker10on_cleanupCshW9MzHmoBJh_23test_basic_chips_jokers
FN:827,_RNvYNtNtCsfztrlbScSWy_10balatro_rs18basic_chips_jokers9BlueJokerNtNtB6_5joker5Joker10on_createdCshW9MzHmoBJh_23test_basic_chips_jokers
FN:776,_RNvYNtNtCsfztrlbScSWy_10balatro_rs18basic_chips_jokers9BlueJokerNtNtB6_5joker5Joker10on_discardCshW9MzHmoBJh_23test_basic_chips_jokers
FN:667,_RNvYNtNtCsfztrlbScSWy_10balatro_rs18basic_chips_jokers9BlueJokerNtNtB6_5joker5Joker10sell_valueCshW9MzHmoBJh_23test_basic_chips_jokers
FN:959,_RNvYNtNtCsfztrlbScSWy_10balatro_rs18basic_chips_jokers9BlueJokerNtNtB6_5joker5Joker11modify_multCshW9MzHmoBJh_23test_basic_chips_jokers
FN:938,_RNvYNtNtCsfztrlbScSWy_10balatro_rs18basic_chips_jokers9BlueJokerNtNtB6_5joker5Joker12modify_chipsCshW9MzHmoBJh_23test_basic_chips_jokers
FN:856,_RNvYNtNtCsfztrlbScSWy_10balatro_rs18basic_chips_jokers9BlueJokerNtNtB6_5joker5Joker12on_activatedCshW9MzHmoBJh_23test_basic_chips_jokers
FN:798,_RNvYNtNtCsfztrlbScSWy_10balatro_rs18basic_chips_jokers9BlueJokerNtNtB6_5joker5Joker12on_round_endCshW9MzHmoBJh_23test_basic_chips_jokers
FN:761,_RNvYNtNtCsfztrlbScSWy_10balatro_rs18basic_chips_jokers9BlueJokerNtNtB6_5joker5Joker12on_shop_openCshW9MzHmoBJh_23test_basic_chips_jokers
FN:1178,_RNvYNtNtCsfztrlbScSWy_10balatro_rs18basic_chips_jokers9BlueJokerNtNtB6_5joker5Joker13migrate_stateCshW9MzHmoBJh_23test_basic_chips_jokers
FN:747,_RNvYNtNtCsfztrlbScSWy_10balatro_rs18basic_chips_jokers9BlueJokerNtNtB6_5joker5Joker14on_blind_startCshW9MzHmoBJh_23test_basic_chips_jokers
FN:725,_RNvYNtNtCsfztrlbScSWy_10balatro_rs18basic_chips_jokers9BlueJokerNtNtB6_5joker5Joker14on_card_scoredCshW9MzHmoBJh_23test_basic_chips_jokers
FN:885,_RNvYNtNtCsfztrlbScSWy_10balatro_rs18basic_chips_jokers9BlueJokerNtNtB6_5joker5Joker14on_deactivatedCshW9MzHmoBJh_23test_basic_chips_jokers
FN:1107,_RNvYNtNtCsfztrlbScSWy_10balatro_rs18basic_chips_jokers9BlueJokerNtNtB6_5joker5Joker14validate_stateCshW9MzHmoBJh_23test_basic_chips_jokers
FN:1003,_RNvYNtNtCsfztrlbScSWy_10balatro_rs18basic_chips_jokers9BlueJokerNtNtB6_5joker5Joker15modify_discardsCshW9MzHmoBJh_23test_basic_chips_jokers
FN:1033,_RNvYNtNtCsfztrlbScSWy_10balatro_rs18basic_chips_jokers9BlueJokerNtNtB6_5joker5Joker15serialize_stateCshW9MzHmoBJh_23test_basic_chips_jokers
FN:1141,_RNvYNtNtCsfztrlbScSWy_10balatro_rs18basic_chips_jokers9BlueJokerNtNtB6_5joker5Joker16initialize_stateCshW9MzHmoBJh_23test_basic_chips_jokers
FN:981,_RNvYNtNtCsfztrlbScSWy_10balatro_rs18basic_chips_jokers9BlueJokerNtNtB6_5joker5Joker16modify_hand_sizeCshW9MzHmoBJh_23test_basic_chips_jokers
FN:1070,_RNvYNtNtCsfztrlbScSWy_10balatro_rs18basic_chips_jokers9BlueJokerNtNtB6_5joker5Joker17deserialize_stateCshW9MzHmoBJh_23test_basic_chips_jokers
FN:915,_RNvYNtNtCsfztrlbScSWy_10balatro_rs18basic_chips_jokers9BullJokerNtNtB6_5joker5Joker10on_cleanupCshW9MzHmoBJh_23test_basic_chips_jokers
FN:827,_RNvYNtNtCsfztrlbScSWy_10balatro_rs18basic_chips_jokers9BullJokerNtNtB6_5joker5Joker10on_createdCshW9MzHmoBJh_23test_basic_chips_jokers
FN:776,_RNvYNtNtCsfztrlbScSWy_10balatro_rs18basic_chips_jokers9BullJokerNtNtB6_5joker5Joker10on_discardCshW9MzHmoBJh_23test_basic_chips_jokers
FN:667,_RNvYNtNtCsfztrlbScSWy_10balatro_rs18basic_chips_jokers9BullJokerNtNtB6_5joker5Joker10sell_valueCshW9MzHmoBJh_23test_basic_chips_jokers
FN:959,_RNvYNtNtCsfztrlbScSWy_10balatro_rs18basic_chips_jokers9BullJokerNtNtB6_5joker5Joker11modify_multCshW9MzHmoBJh_23test_basic_chips_jokers
FN:938,_RNvYNtNtCsfztrlbScSWy_10balatro_rs18basic_chips_jokers9BullJokerNtNtB6_5joker5Joker12modify_chipsCshW9MzHmoBJh_23test_basic_chips_jokers
FN:856,_RNvYNtNtCsfztrlbScSWy_10balatro_rs18basic_chips_jokers9BullJokerNtNtB6_5joker5Joker12on_activatedCshW9MzHmoBJh_23test_basic_chips_jokers
FN:798,_RNvYNtNtCsfztrlbScSWy_10balatro_rs18basic_chips_jokers9BullJokerNtNtB6_5joker5Joker12on_round_endCshW9MzHmoBJh_23test_basic_chips_jokers
FN:761,_RNvYNtNtCsfztrlbScSWy_10balatro_rs18basic_chips_jokers9BullJokerNtNtB6_5joker5Joker12on_shop_openCshW9MzHmoBJh_23test_basic_chips_jokers
FN:1178,_RNvYNtNtCsfztrlbScSWy_10balatro_rs18basic_chips_jokers9BullJokerNtNtB6_5joker5Joker13migrate_stateCshW9MzHmoBJh_23test_basic_chips_jokers
FN:747,_RNvYNtNtCsfztrlbScSWy_10balatro_rs18basic_chips_jokers9BullJokerNtNtB6_5joker5Joker14on_blind_startCshW9MzHmoBJh_23test_basic_chips_jokers
FN:725,_RNvYNtNtCsfztrlbScSWy_10balatro_rs18basic_chips_jokers9BullJokerNtNtB6_5joker5Joker14on_card_scoredCshW9MzHmoBJh_23test_basic_chips_jokers
FN:885,_RNvYNtNtCsfztrlbScSWy_10balatro_rs18basic_chips_jokers9BullJokerNtNtB6_5joker5Joker14on_deactivatedCshW9MzHmoBJh_23test_basic_chips_jokers
FN:1107,_RNvYNtNtCsfztrlbScSWy_10balatro_rs18basic_chips_jokers9BullJokerNtNtB6_5joker5Joker14validate_stateCshW9MzHmoBJh_23test_basic_chips_jokers
FN:1003,_RNvYNtNtCsfztrlbScSWy_10balatro_rs18basic_chips_jokers9BullJokerNtNtB6_5joker5Joker15modify_discardsCshW9MzHmoBJh_23test_basic_chips_jokers
FN:1033,_RNvYNtNtCsfztrlbScSWy_10balatro_rs18basic_chips_jokers9BullJokerNtNtB6_5joker5Joker15serialize_stateCshW9MzHmoBJh_23test_basic_chips_jokers
FN:1141,_RNvYNtNtCsfztrlbScSWy_10balatro_rs18basic_chips_jokers9BullJokerNtNtB6_5joker5Joker16initialize_stateCshW9MzHmoBJh_23test_basic_chips_jokers
FN:981,_RNvYNtNtCsfztrlbScSWy_10balatro_rs18basic_chips_jokers9BullJokerNtNtB6_5joker5Joker16modify_hand_sizeCshW9MzHmoBJh_23test_basic_chips_jokers
FN:1070,_RNvYNtNtCsfztrlbScSWy_10balatro_rs18basic_chips_jokers9BullJokerNtNtB6_5joker5Joker17deserialize_stateCshW9MzHmoBJh_23test_basic_chips_jokers
FN:1184,_RNCNvYNtNtCsfztrlbScSWy_10balatro_rs18basic_chips_jokers10StoneJokerNtNtB8_5joker5Joker13migrate_state0CshW9MzHmoBJh_23test_basic_chips_jokers
FN:1184,_RNCNvYNtNtCsfztrlbScSWy_10balatro_rs18basic_chips_jokers11BannerJokerNtNtB8_5joker5Joker13migrate_state0CshW9MzHmoBJh_23test_basic_chips_jokers
FN:1184,_RNCNvYNtNtCsfztrlbScSWy_10balatro_rs18basic_chips_jokers14ScaryFaceJokerNtNtB8_5joker5Joker13migrate_state0CshW9MzHmoBJh_23test_basic_chips_jokers
FN:1184,_RNCNvYNtNtCsfztrlbScSWy_10balatro_rs18basic_chips_jokers9BlueJokerNtNtB8_5joker5Joker13migrate_state0CshW9MzHmoBJh_23test_basic_chips_jokers
FN:1184,_RNCNvYNtNtCsfztrlbScSWy_10balatro_rs18basic_chips_jokers9BullJokerNtNtB8_5joker5Joker13migrate_state0CshW9MzHmoBJh_23test_basic_chips_jokers
FNDA:1,_RNvNtNtCs6ewEfsi5izM_10balatro_rs5joker5testss_23test_joker_trait_bounds
FNDA:0,_RINvXs0_NvXNvNtCs6ewEfsi5izM_10balatro_rs5jokers2_1__NtBb_11JokerRarityNtNtCsWuCv7H75Ac_5serde2de11Deserialize11deserializeNtB6_9___VisitorNtB19_7Visitor10visit_enumpEBd_
FNDA:0,_RINvXs0_NvXNvNtCs6ewEfsi5izM_10balatro_rs5jokers5_1__NtBb_11JokerEffectNtNtCsWuCv7H75Ac_5serde2de11Deserialize11deserializeNtB6_9___VisitorNtB19_7Visitor9visit_mappEBd_
FNDA:0,_RINvXs0_NvXNvNtCs6ewEfsi5izM_10balatro_rs5jokers5_1__NtBb_11JokerEffectNtNtCsWuCv7H75Ac_5serde2de11Deserialize11deserializeNtB6_9___VisitorNtB19_7Visitor9visit_seqpEBd_
FNDA:0,_RNvXNtCs6ewEfsi5izM_10balatro_rs5jokerNtB2_11JokerRarityNtNtCs1p5UDGgVI4d_4core3fmt7Display3fmt
FNDA:0,_RNvYpNtNtCs6ewEfsi5izM_10balatro_rs5joker5Joker4costB7_
FNDA:0,_RNvYNtNtCs6ewEfsi5izM_10balatro_rs12static_joker11StaticJokerNtNtB6_5joker5Joker10on_cleanupB6_
FNDA:0,_RNvYNtNtCs6ewEfsi5izM_10balatro_rs12static_joker11StaticJokerNtNtB6_5joker5Joker10on_createdB6_
FNDA:0,_RNvYNtNtCs6ewEfsi5izM_10balatro_rs12static_joker11StaticJokerNtNtB6_5joker5Joker10on_discardB6_
FNDA:0,_RNvYNtNtCs6ewEfsi5izM_10balatro_rs12static_joker11StaticJokerNtNtB6_5joker5Joker10sell_valueB6_
FNDA:0,_RNvYNtNtCs6ewEfsi5izM_10balatro_rs12static_joker11StaticJokerNtNtB6_5joker5Joker11modify_multB6_
FNDA:0,_RNvYNtNtCs6ewEfsi5izM_10balatro_rs12static_joker11StaticJokerNtNtB6_5joker5Joker12modify_chipsB6_
FNDA:0,_RNvYNtNtCs6ewEfsi5izM_10balatro_rs12static_joker11StaticJokerNtNtB6_5joker5Joker12on_activatedB6_
FNDA:0,_RNvYNtNtCs6ewEfsi5izM_10balatro_rs12static_joker11StaticJokerNtNtB6_5joker5Joker12on_round_endB6_
FNDA:0,_RNvYNtNtCs6ewEfsi5izM_10balatro_rs12static_joker11StaticJokerNtNtB6_5joker5Joker12on_shop_openB6_
FNDA:0,_RNvYNtNtCs6ewEfsi5izM_10balatro_rs12static_joker11StaticJokerNtNtB6_5joker5Joker13migrate_stateB6_
FNDA:0,_RNvYNtNtCs6ewEfsi5izM_10balatro_rs12static_joker11StaticJokerNtNtB6_5joker5Joker14on_blind_startB6_
FNDA:0,_RNvYNtNtCs6ewEfsi5izM_10balatro_rs12static_joker11StaticJokerNtNtB6_5joker5Joker14on_deactivatedB6_
FNDA:0,_RNvYNtNtCs6ewEfsi5izM_10balatro_rs12static_joker11StaticJokerNtNtB6_5joker5Joker14validate_stateB6_
FNDA:0,_RNvYNtNtCs6ewEfsi5izM_10balatro_rs12static_joker11StaticJokerNtNtB6_5joker5Joker15modify_discardsB6_
FNDA:0,_RNvYNtNtCs6ewEfsi5izM_10balatro_rs12static_joker11StaticJokerNtNtB6_5joker5Joker15serialize_stateB6_
FNDA:0,_RNvYNtNtCs6ewEfsi5izM_10balatro_rs12static_joker11StaticJokerNtNtB6_5joker5Joker16initialize_stateB6_
FNDA:0,_RNvYNtNtCs6ewEfsi5izM_10balatro_rs12static_joker11StaticJokerNtNtB6_5joker5Joker16modify_hand_sizeB6_
FNDA:0,_RNvYNtNtCs6ewEfsi5izM_10balatro_rs12static_joker11StaticJokerNtNtB6_5joker5Joker17deserialize_stateB6_
FNDA:0,_RINvXs0_NvXNvNtCs6ewEfsi5izM_10balatro_rs5jokers_1__NtBb_7JokerIdNtNtCsWuCv7H75Ac_5serde2de11Deserialize11deserializeNtB6_9___VisitorNtB13_7Visitor10visit_enumINtNtCs9DWYcYz1PvJ_10serde_json2de13VariantAccessNtNtB2C_4read7StrReadEEBd_
FNDA:0,_RINvXs0_NvXNvNtCs6ewEfsi5izM_10balatro_rs5jokers_1__NtBb_7JokerIdNtNtCsWuCv7H75Ac_5serde2de11Deserialize11deserializeNtB6_9___VisitorNtB13_7Visitor10visit_enumINtNtCs9DWYcYz1PvJ_10serde_json2de17UnitVariantAccessNtNtB2C_4read7StrReadEEBd_
FNDA:0,_RNCNvYNtNtCs6ewEfsi5izM_10balatro_rs10joker_impl10CrazyJokerNtNtB8_5joker5Joker13migrate_state0B8_
FNDA:0,_RNCNvYNtNtCs6ewEfsi5izM_10balatro_rs10joker_impl10DrollJokerNtNtB8_5joker5Joker13migrate_state0B8_
FNDA:0,_RNCNvYNtNtCs6ewEfsi5izM_10balatro_rs10joker_impl10JollyJokerNtNtB8_5joker5Joker13migrate_state0B8_
FNDA:0,_RNCNvYNtNtCs6ewEfsi5izM_10balatro_rs10joker_impl10LustyJokerNtNtB8_5joker5Joker13migrate_state0B8_
FNDA:0,_RNCNvYNtNtCs6ewEfsi5izM_10balatro_rs10joker_impl10SpaceJokerNtNtB8_5joker5Joker13migrate_state0B8_
FNDA:0,_RNCNvYNtNtCs6ewEfsi5izM_10balatro_rs10joker_impl11CleverJokerNtNtB8_5joker5Joker13migrate_state0B8_
FNDA:0,_RNCNvYNtNtCs6ewEfsi5izM_10balatro_rs10joker_impl11CraftyJokerNtNtB8_5joker5Joker13migrate_state0B8_
FNDA:0,_RNCNvYNtNtCs6ewEfsi5izM_10balatro_rs10joker_impl11GreedyJokerNtNtB8_5joker5Joker13migrate_state0B8_
FNDA:0,_RNCNvYNtNtCs6ewEfsi5izM_10balatro_rs10joker_impl11RunnerJokerNtNtB8_5joker5Joker13migrate_state0B8_
FNDA:0,_RNCNvYNtNtCs6ewEfsi5izM_10balatro_rs10joker_impl12BusinessCardNtNtB8_5joker5Joker13migrate_state0B8_
FNDA:0,_RNCNvYNtNtCs6ewEfsi5izM_10balatro_rs10joker_impl12DeviousJokerNtNtB8_5joker5Joker13migrate_state0B8_
FNDA:0,_RNCNvYNtNtCs6ewEfsi5izM_10balatro_rs10joker_impl13IceCreamJokerNtNtB8_5joker5Joker13migrate_state0B8_
FNDA:0,_RNCNvYNtNtCs6ewEfsi5izM_10balatro_rs10joker_impl13WrathfulJokerNtNtB8_5joker5Joker13migrate_state0B8_
FNDA:0,_RNCNvYNtNtCs6ewEfsi5izM_10balatro_rs10joker_impl14SupernovaJokerNtNtB8_5joker5Joker13migrate_state0B8_
FNDA:0,_RNCNvYNtNtCs6ewEfsi5izM_10balatro_rs10joker_impl15GluttonousJokerNtNtB8_5joker5Joker13migrate_state0B8_
FNDA:0,_RNCNvYNtNtCs6ewEfsi5izM_10balatro_rs10joker_impl3EggNtNtB8_5joker5Joker13migrate_state0B8_
FNDA:0,_RNCNvYNtNtCs6ewEfsi5izM_10balatro_rs10joker_impl7BurglarNtNtB8_5joker5Joker13migrate_state0B8_
FNDA:0,_RNCNvYNtNtCs6ewEfsi5izM_10balatro_rs10joker_impl8MadJokerNtNtB8_5joker5Joker13migrate_state0B8_
FNDA:0,_RNCNvYNtNtCs6ewEfsi5izM_10balatro_rs10joker_impl8SlyJokerNtNtB8_5joker5Joker13migrate_state0B8_
FNDA:0,_RNCNvYNtNtCs6ewEfsi5izM_10balatro_rs10joker_impl8TheJokerNtNtB8_5joker5Joker13migrate_state0B8_
FNDA:0,_RNCNvYNtNtCs6ewEfsi5izM_10balatro_rs10joker_impl9WilyJokerNtNtB8_5joker5Joker13migrate_state0B8_
FNDA:0,_RNCNvYNtNtCs6ewEfsi5izM_10balatro_rs10joker_impl9ZanyJokerNtNtB8_5joker5Joker13migrate_state0B8_
FNDA:0,_RNCNvYNtNtCs6ewEfsi5izM_10balatro_rs12static_joker11StaticJokerNtNtB8_5joker5Joker13migrate_state0B8_
FNDA:0,_RNCNvYNtNtNtCs6ewEfsi5izM_10balatro_rs5joker23hand_composition_jokers8DnaJokerNtB8_5Joker13migrate_state0Ba_
FNDA:0,_RNvYNtNtNtCs6ewEfsi5izM_10balatro_rs5joker23hand_composition_jokers8DnaJokerNtB6_5Joker10on_cleanupB8_
FNDA:0,_RNvYNtNtNtCs6ewEfsi5izM_10balatro_rs5joker23hand_composition_jokers8DnaJokerNtB6_5Joker10on_createdB8_
FNDA:0,_RNvYNtNtNtCs6ewEfsi5izM_10balatro_rs5joker23hand_composition_jokers8DnaJokerNtB6_5Joker10sell_valueB8_
FNDA:0,_RNvYNtNtNtCs6ewEfsi5izM_10balatro_rs5joker23hand_composition_jokers8DnaJokerNtB6_5Joker11modify_multB8_
FNDA:0,_RNvYNtNtNtCs6ewEfsi5izM_10balatro_rs5joker23hand_composition_jokers8DnaJokerNtB6_5Joker12modify_chipsB8_
FNDA:0,_RNvYNtNtNtCs6ewEfsi5izM_10balatro_rs5joker23hand_composition_jokers8DnaJokerNtB6_5Joker12on_activatedB8_
FNDA:0,_RNvYNtNtNtCs6ewEfsi5izM_10balatro_rs5joker23hand_composition_jokers8DnaJokerNtB6_5Joker13migrate_stateB8_
FNDA:0,_RNvYNtNtNtCs6ewEfsi5izM_10balatro_rs5joker23hand_composition_jokers8DnaJokerNtB6_5Joker14on_deactivatedB8_
FNDA:0,_RNvYNtNtNtCs6ewEfsi5izM_10balatro_rs5joker23hand_composition_jokers8DnaJokerNtB6_5Joker14validate_stateB8_
FNDA:0,_RNvYNtNtNtCs6ewEfsi5izM_10balatro_rs5joker23hand_composition_jokers8DnaJokerNtB6_5Joker15modify_discardsB8_
FNDA:0,_RNvYNtNtNtCs6ewEfsi5izM_10balatro_rs5joker23hand_composition_jokers8DnaJokerNtB6_5Joker15serialize_stateB8_
FNDA:0,_RNvYNtNtNtCs6ewEfsi5izM_10balatro_rs5joker23hand_composition_jokers8DnaJokerNtB6_5Joker16initialize_stateB8_
FNDA:0,_RNvYNtNtNtCs6ewEfsi5izM_10balatro_rs5joker23hand_composition_jokers8DnaJokerNtB6_5Joker16modify_hand_sizeB8_
FNDA:0,_RNvYNtNtNtCs6ewEfsi5izM_10balatro_rs5joker23hand_composition_jokers8DnaJokerNtB6_5Joker17deserialize_stateB8_
FNDA:0,_RNvYNtNtCs6ewEfsi5izM_10balatro_rs10joker_impl10CrazyJokerNtNtB6_5joker5Joker10on_cleanupB6_
FNDA:0,_RNvYNtNtCs6ewEfsi5izM_10balatro_rs10joker_impl10CrazyJokerNtNtB6_5joker5Joker10on_createdB6_
FNDA:0,_RNvYNtNtCs6ewEfsi5izM_10balatro_rs10joker_impl10CrazyJokerNtNtB6_5joker5Joker10on_discardB6_
FNDA:0,_RNvYNtNtCs6ewEfsi5izM_10balatro_rs10joker_impl10CrazyJokerNtNtB6_5joker5Joker10sell_valueB6_
FNDA:0,_RNvYNtNtCs6ewEfsi5izM_10balatro_rs10joker_impl10CrazyJokerNtNtB6_5joker5Joker11modify_multB6_
FNDA:0,_RNvYNtNtCs6ewEfsi5izM_10balatro_rs10joker_impl10CrazyJokerNtNtB6_5joker5Joker12modify_chipsB6_
FNDA:0,_RNvYNtNtCs6ewEfsi5izM_10balatro_rs10joker_impl10CrazyJokerNtNtB6_5joker5Joker12on_activatedB6_
FNDA:0,_RNvYNtNtCs6ewEfsi5izM_10balatro_rs10joker_impl10CrazyJokerNtNtB6_5joker5Joker12on_round_endB6_
FNDA:0,_RNvYNtNtCs6ewEfsi5izM_10balatro_rs10joker_impl10CrazyJokerNtNtB6_5joker5Joker12on_shop_openB6_
FNDA:0,_RNvYNtNtCs6ewEfsi5izM_10balatro_rs10joker_impl10CrazyJokerNtNtB6_5joker5Joker13migrate_stateB6_
FNDA:0,_RNvYNtNtCs6ewEfsi5izM_10balatro_rs10joker_impl10CrazyJokerNtNtB6_5joker5Joker14on_blind_startB6_
FNDA:5,_RNvYNtNtCs6ewEfsi5izM_10balatro_rs10joker_impl10CrazyJokerNtNtB6_5joker5Joker14on_card_scoredB6_
FNDA:0,_RNvYNtNtCs6ewEfsi5izM_10balatro_rs10joker_impl10CrazyJokerNtNtB6_5joker5Joker14on_deactivatedB6_
FNDA:0,_RNvYNtNtCs6ewEfsi5izM_10balatro_rs10joker_impl10CrazyJokerNtNtB6_5joker5Joker14validate_stateB6_
FNDA:0,_RNvYNtNtCs6ewEfsi5izM_10balatro_rs10joker_impl10CrazyJokerNtNtB6_5joker5Joker15modify_discardsB6_
FNDA:0,_RNvYNtNtCs6ewEfsi5izM_10balatro_rs10joker_impl10CrazyJokerNtNtB6_5joker5Joker15serialize_stateB6_
FNDA:0,_RNvYNtNtCs6ewEfsi5izM_10balatro_rs10joker_impl10CrazyJokerNtNtB6_5joker5Joker16initialize_stateB6_
FNDA:0,_RNvYNtNtCs6ewEfsi5izM_10balatro_rs10joker_impl10CrazyJokerNtNtB6_5joker5Joker16modify_hand_sizeB6_
FNDA:0,_RNvYNtNtCs6ewEfsi5izM_10balatro_rs10joker_impl10CrazyJokerNtNtB6_5joker5Joker17deserialize_stateB6_
FNDA:0,_RNvYNtNtCs6ewEfsi5izM_10balatro_rs10joker_impl10DrollJokerNtNtB6_5joker5Joker10on_cleanupB6_
FNDA:0,_RNvYNtNtCs6ewEfsi5izM_10balatro_rs10joker_impl10DrollJokerNtNtB6_5joker5Joker10on_createdB6_
FNDA:0,_RNvYNtNtCs6ewEfsi5izM_10balatro_rs10joker_impl10DrollJokerNtNtB6_5joker5Joker10on_discardB6_
FNDA:0,_RNvYNtNtCs6ewEfsi5izM_10balatro_rs10joker_impl10DrollJokerNtNtB6_5joker5Joker10sell_valueB6_
FNDA:0,_RNvYNtNtCs6ewEfsi5izM_10balatro_rs10joker_impl10DrollJokerNtNtB6_5joker5Joker11modify_multB6_
FNDA:0,_RNvYNtNtCs6ewEfsi5izM_10balatro_rs10joker_impl10DrollJokerNtNtB6_5joker5Joker12modify_chipsB6_
FNDA:0,_RNvYNtNtCs6ewEfsi5izM_10balatro_rs10joker_impl10DrollJokerNtNtB6_5joker5Joker12on_activatedB6_
FNDA:0,_RNvYNtNtCs6ewEfsi5izM_10balatro_rs10joker_impl10DrollJokerNtNtB6_5joker5Joker12on_round_endB6_
FNDA:0,_RNvYNtNtCs6ewEfsi5izM_10balatro_rs10joker_impl10DrollJokerNtNtB6_5joker5Joker12on_shop_openB6_
FNDA:0,_RNvYNtNtCs6ewEfsi5izM_10balatro_rs10joker_impl10DrollJokerNtNtB6_5joker5Joker13migrate_stateB6_
FNDA:0,_RNvYNtNtCs6ewEfsi5izM_10balatro_rs10joker_impl10DrollJokerNtNtB6_5joker5Joker14on_blind_startB6_
FNDA:5,_RNvYNtNtCs6ewEfsi5izM_10balatro_rs10joker_impl10DrollJokerNtNtB6_5joker5Joker14on_card_scoredB6_
FNDA:0,_RNvYNtNtCs6ewEfsi5izM_10balatro_rs10joker_impl10DrollJokerNtNtB6_5joker5Joker14on_deactivatedB6_
FNDA:0,_RNvYNtNtCs6ewEfsi5izM_10balatro_rs10joker_impl10DrollJokerNtNtB6_5joker5Joker14validate_stateB6_
FNDA:0,_RNvYNtNtCs6ewEfsi5izM_10balatro_rs10joker_impl10DrollJokerNtNtB6_5joker5Joker15modify_discardsB6_
FNDA:0,_RNvYNtNtCs6ewEfsi5izM_10balatro_rs10joker_impl10DrollJokerNtNtB6_5joker5Joker15serialize_stateB6_
FNDA:0,_RNvYNtNtCs6ewEfsi5izM_10balatro_rs10joker_impl10DrollJokerNtNtB6_5joker5Joker16initialize_stateB6_
FNDA:0,_RNvYNtNtCs6ewEfsi5izM_10balatro_rs10joker_impl10DrollJokerNtNtB6_5joker5Joker16modify_hand_sizeB6_
FNDA:0,_RNvYNtNtCs6ewEfsi5izM_10balatro_rs10joker_impl10DrollJokerNtNtB6_5joker5Joker17deserialize_stateB6_
FNDA:0,_RNvYNtNtCs6ewEfsi5izM_10balatro_rs10joker_impl10JollyJokerNtNtB6_5joker5Joker10on_cleanupB6_
FNDA:0,_RNvYNtNtCs6ewEfsi5izM_10balatro_rs10joker_impl10JollyJokerNtNtB6_5joker5Joker10on_createdB6_
FNDA:0,_RNvYNtNtCs6ewEfsi5izM_10balatro_rs10joker_impl10JollyJokerNtNtB6_5joker5Joker10on_discardB6_
FNDA:0,_RNvYNtNtCs6ewEfsi5izM_10balatro_rs10joker_impl10JollyJokerNtNtB6_5joker5Joker10sell_valueB6_
FNDA:0,_RNvYNtNtCs6ewEfsi5izM_10balatro_rs10joker_impl10JollyJokerNtNtB6_5joker5Joker11modify_multB6_
FNDA:0,_RNvYNtNtCs6ewEfsi5izM_10balatro_rs10joker_impl10JollyJokerNtNtB6_5joker5Joker12modify_chipsB6_
FNDA:0,_RNvYNtNtCs6ewEfsi5izM_10balatro_rs10joker_impl10JollyJokerNtNtB6_5joker5Joker12on_activatedB6_
FNDA:0,_RNvYNtNtCs6ewEfsi5izM_10balatro_rs10joker_impl10JollyJokerNtNtB6_5joker5Joker12on_round_endB6_
FNDA:0,_RNvYNtNtCs6ewEfsi5izM_10balatro_rs10joker_impl10JollyJokerNtNtB6_5joker5Joker12on_shop_openB6_
FNDA:0,_RNvYNtNtCs6ewEfsi5izM_10balatro_rs10joker_impl10JollyJokerNtNtB6_5joker5Joker13migrate_stateB6_
FNDA:0,_RNvYNtNtCs6ewEfsi5izM_10balatro_rs10joker_impl10JollyJokerNtNtB6_5joker5Joker14on_blind_startB6_
FNDA:4,_RNvYNtNtCs6ewEfsi5izM_10balatro_rs10joker_impl10JollyJokerNtNtB6_5joker5Joker14on_card_scoredB6_
FNDA:0,_RNvYNtNtCs6ewEfsi5izM_10balatro_rs10joker_impl10JollyJokerNtNtB6_5joker5Joker14on_deactivatedB6_
FNDA:0,_RNvYNtNtCs6ewEfsi5izM_10balatro_rs10joker_impl10JollyJokerNtNtB6_5joker5Joker14validate_stateB6_
FNDA:0,_RNvYNtNtCs6ewEfsi5izM_10balatro_rs10joker_impl10JollyJokerNtNtB6_5joker5Joker15modify_discardsB6_
FNDA:0,_RNvYNtNtCs6ewEfsi5izM_10balatro_rs10joker_impl10JollyJokerNtNtB6_5joker5Joker15serialize_stateB6_
FNDA:0,_RNvYNtNtCs6ewEfsi5izM_10balatro_rs10joker_impl10JollyJokerNtNtB6_5joker5Joker16initialize_stateB6_
FNDA:0,_RNvYNtNtCs6ewEfsi5izM_10balatro_rs10joker_impl10JollyJokerNtNtB6_5joker5Joker16modify_hand_sizeB6_
FNDA:0,_RNvYNtNtCs6ewEfsi5izM_10balatro_rs10joker_impl10JollyJokerNtNtB6_5joker5Joker17deserialize_stateB6_
FNDA:0,_RNvYNtNtCs6ewEfsi5izM_10balatro_rs10joker_impl10LustyJokerNtNtB6_5joker5Joker10on_cleanupB6_
FNDA:0,_RNvYNtNtCs6ewEfsi5izM_10balatro_rs10joker_impl10LustyJokerNtNtB6_5joker5Joker10on_createdB6_
FNDA:0,_RNvYNtNtCs6ewEfsi5izM_10balatro_rs10joker_impl10LustyJokerNtNtB6_5joker5Joker10on_discardB6_
FNDA:0,_RNvYNtNtCs6ewEfsi5izM_10balatro_rs10joker_impl10LustyJokerNtNtB6_5joker5Joker10sell_valueB6_
FNDA:0,_RNvYNtNtCs6ewEfsi5izM_10balatro_rs10joker_impl10LustyJokerNtNtB6_5joker5Joker11modify_multB6_
FNDA:0,_RNvYNtNtCs6ewEfsi5izM_10balatro_rs10joker_impl10LustyJokerNtNtB6_5joker5Joker12modify_chipsB6_
FNDA:0,_RNvYNtNtCs6ewEfsi5izM_10balatro_rs10joker_impl10LustyJokerNtNtB6_5joker5Joker12on_activatedB6_
FNDA:0,_RNvYNtNtCs6ewEfsi5izM_10balatro_rs10joker_impl10LustyJokerNtNtB6_5joker5Joker12on_round_endB6_
FNDA:0,_RNvYNtNtCs6ewEfsi5izM_10balatro_rs10joker_impl10LustyJokerNtNtB6_5joker5Joker12on_shop_openB6_
FNDA:0,_RNvYNtNtCs6ewEfsi5izM_10balatro_rs10joker_impl10LustyJokerNtNtB6_5joker5Joker13migrate_stateB6_
FNDA:0,_RNvYNtNtCs6ewEfsi5izM_10balatro_rs10joker_impl10LustyJokerNtNtB6_5joker5Joker14on_blind_startB6_
FNDA:0,_RNvYNtNtCs6ewEfsi5izM_10balatro_rs10joker_impl10LustyJokerNtNtB6_5joker5Joker14on_deactivatedB6_
FNDA:1,_RNvYNtNtCs6ewEfsi5izM_10balatro_rs10joker_impl10LustyJokerNtNtB6_5joker5Joker14on_hand_playedB6_
FNDA:0,_RNvYNtNtCs6ewEfsi5izM_10balatro_rs10joker_impl10LustyJokerNtNtB6_5joker5Joker14validate_stateB6_
FNDA:0,_RNvYNtNtCs6ewEfsi5izM_10balatro_rs10joker_impl10LustyJokerNtNtB6_5joker5Joker15modify_discardsB6_
FNDA:0,_RNvYNtNtCs6ewEfsi5izM_10balatro_rs10joker_impl10LustyJokerNtNtB6_5joker5Joker15serialize_stateB6_
FNDA:0,_RNvYNtNtCs6ewEfsi5izM_10balatro_rs10joker_impl10LustyJokerNtNtB6_5joker5Joker16initialize_stateB6_
FNDA:0,_RNvYNtNtCs6ewEfsi5izM_10balatro_rs10joker_impl10LustyJokerNtNtB6_5joker5Joker16modify_hand_sizeB6_
FNDA:0,_RNvYNtNtCs6ewEfsi5izM_10balatro_rs10joker_impl10LustyJokerNtNtB6_5joker5Joker17deserialize_stateB6_
FNDA:0,_RNvYNtNtCs6ewEfsi5izM_10balatro_rs10joker_impl10SpaceJokerNtNtB6_5joker5Joker10on_cleanupB6_
FNDA:0,_RNvYNtNtCs6ewEfsi5izM_10balatro_rs10joker_impl10SpaceJokerNtNtB6_5joker5Joker10on_createdB6_
FNDA:0,_RNvYNtNtCs6ewEfsi5izM_10balatro_rs10joker_impl10SpaceJokerNtNtB6_5joker5Joker10on_discardB6_
FNDA:0,_RNvYNtNtCs6ewEfsi5izM_10balatro_rs10joker_impl10SpaceJokerNtNtB6_5joker5Joker10sell_valueB6_
FNDA:0,_RNvYNtNtCs6ewEfsi5izM_10balatro_rs10joker_impl10SpaceJokerNtNtB6_5joker5Joker11modify_multB6_
FNDA:0,_RNvYNtNtCs6ewEfsi5izM_10balatro_rs10joker_impl10SpaceJokerNtNtB6_5joker5Joker12modify_chipsB6_
FNDA:0,_RNvYNtNtCs6ewEfsi5izM_10balatro_rs10joker_impl10SpaceJokerNtNtB6_5joker5Joker12on_activatedB6_
FNDA:0,_RNvYNtNtCs6ewEfsi5izM_10balatro_rs10joker_impl10SpaceJokerNtNtB6_5joker5Joker12on_round_endB6_
FNDA:0,_RNvYNtNtCs6ewEfsi5izM_10balatro_rs10joker_impl10SpaceJokerNtNtB6_5joker5Joker12on_shop_openB6_
FNDA:0,_RNvYNtNtCs6ewEfsi5izM_10balatro_rs10joker_impl10SpaceJokerNtNtB6_5joker5Joker13migrate_stateB6_
FNDA:0,_RNvYNtNtCs6ewEfsi5izM_10balatro_rs10joker_impl10SpaceJokerNtNtB6_5joker5Joker14on_blind_startB6_
FNDA:0,_RNvYNtNtCs6ewEfsi5izM_10balatro_rs10joker_impl10SpaceJokerNtNtB6_5joker5Joker14on_card_scoredB6_
FNDA:0,_RNvYNtNtCs6ewEfsi5izM_10balatro_rs10joker_impl10SpaceJokerNtNtB6_5joker5Joker14on_deactivatedB6_
FNDA:0,_RNvYNtNtCs6ewEfsi5izM_10balatro_rs10joker_impl10SpaceJokerNtNtB6_5joker5Joker14validate_stateB6_
FNDA:0,_RNvYNtNtCs6ewEfsi5izM_10balatro_rs10joker_impl10SpaceJokerNtNtB6_5joker5Joker15modify_discardsB6_
FNDA:0,_RNvYNtNtCs6ewEfsi5izM_10balatro_rs10joker_impl10SpaceJokerNtNtB6_5joker5Joker15serialize_stateB6_
FNDA:0,_RNvYNtNtCs6ewEfsi5izM_10balatro_rs10joker_impl10SpaceJokerNtNtB6_5joker5Joker16initialize_stateB6_
FNDA:0,_RNvYNtNtCs6ewEfsi5izM_10balatro_rs10joker_impl10SpaceJokerNtNtB6_5joker5Joker16modify_hand_sizeB6_
FNDA:0,_RNvYNtNtCs6ewEfsi5izM_10balatro_rs10joker_impl10SpaceJokerNtNtB6_5joker5Joker17deserialize_stateB6_
FNDA:0,_RNvYNtNtCs6ewEfsi5izM_10balatro_rs10joker_impl11CleverJokerNtNtB6_5joker5Joker10on_cleanupB6_
FNDA:0,_RNvYNtNtCs6ewEfsi5izM_10balatro_rs10joker_impl11CleverJokerNtNtB6_5joker5Joker10on_createdB6_
FNDA:0,_RNvYNtNtCs6ewEfsi5izM_10balatro_rs10joker_impl11CleverJokerNtNtB6_5joker5Joker10on_discardB6_
FNDA:0,_RNvYNtNtCs6ewEfsi5izM_10balatro_rs10joker_impl11CleverJokerNtNtB6_5joker5Joker10sell_valueB6_
FNDA:0,_RNvYNtNtCs6ewEfsi5izM_10balatro_rs10joker_impl11CleverJokerNtNtB6_5joker5Joker11modify_multB6_
FNDA:0,_RNvYNtNtCs6ewEfsi5izM_10balatro_rs10joker_impl11CleverJokerNtNtB6_5joker5Joker12modify_chipsB6_
FNDA:0,_RNvYNtNtCs6ewEfsi5izM_10balatro_rs10joker_impl11CleverJokerNtNtB6_5joker5Joker12on_activatedB6_
FNDA:0,_RNvYNtNtCs6ewEfsi5izM_10balatro_rs10joker_impl11CleverJokerNtNtB6_5joker5Joker12on_round_endB6_
FNDA:0,_RNvYNtNtCs6ewEfsi5izM_10balatro_rs10joker_impl11CleverJokerNtNtB6_5joker5Joker12on_shop_openB6_
FNDA:0,_RNvYNtNtCs6ewEfsi5izM_10balatro_rs10joker_impl11CleverJokerNtNtB6_5joker5Joker13migrate_stateB6_
FNDA:0,_RNvYNtNtCs6ewEfsi5izM_10balatro_rs10joker_impl11CleverJokerNtNtB6_5joker5Joker14on_blind_startB6_
FNDA:4,_RNvYNtNtCs6ewEfsi5izM_10balatro_rs10joker_impl11CleverJokerNtNtB6_5joker5Joker14on_card_scoredB6_
FNDA:0,_RNvYNtNtCs6ewEfsi5izM_10balatro_rs10joker_impl11CleverJokerNtNtB6_5joker5Joker14on_deactivatedB6_
FNDA:0,_RNvYNtNtCs6ewEfsi5izM_10balatro_rs10joker_impl11CleverJokerNtNtB6_5joker5Joker14validate_stateB6_
FNDA:0,_RNvYNtNtCs6ewEfsi5izM_10balatro_rs10joker_impl11CleverJokerNtNtB6_5joker5Joker15modify_discardsB6_
FNDA:0,_RNvYNtNtCs6ewEfsi5izM_10balatro_rs10joker_impl11CleverJokerNtNtB6_5joker5Joker15serialize_stateB6_
FNDA:0,_RNvYNtNtCs6ewEfsi5izM_10balatro_rs10joker_impl11CleverJokerNtNtB6_5joker5Joker16initialize_stateB6_
FNDA:0,_RNvYNtNtCs6ewEfsi5izM_10balatro_rs10joker_impl11CleverJokerNtNtB6_5joker5Joker16modify_hand_sizeB6_
FNDA:0,_RNvYNtNtCs6ewEfsi5izM_10balatro_rs10joker_impl11CleverJokerNtNtB6_5joker5Joker17deserialize_stateB6_
FNDA:0,_RNvYNtNtCs6ewEfsi5izM_10balatro_rs10joker_impl11CraftyJokerNtNtB6_5joker5Joker10on_cleanupB6_
FNDA:0,_RNvYNtNtCs6ewEfsi5izM_10balatro_rs10joker_impl11CraftyJokerNtNtB6_5joker5Joker10on_createdB6_
FNDA:0,_RNvYNtNtCs6ewEfsi5izM_10balatro_rs10joker_impl11CraftyJokerNtNtB6_5joker5Joker10on_discardB6_
FNDA:0,_RNvYNtNtCs6ewEfsi5izM_10balatro_rs10joker_impl11CraftyJokerNtNtB6_5joker5Joker10sell_valueB6_
FNDA:0,_RNvYNtNtCs6ewEfsi5izM_10balatro_rs10joker_impl11CraftyJokerNtNtB6_5joker5Joker11modify_multB6_
FNDA:0,_RNvYNtNtCs6ewEfsi5izM_10balatro_rs10joker_impl11CraftyJokerNtNtB6_5joker5Joker12modify_chipsB6_
FNDA:0,_RNvYNtNtCs6ewEfsi5izM_10balatro_rs10joker_impl11CraftyJokerNtNtB6_5joker5Joker12on_activatedB6_
FNDA:0,_RNvYNtNtCs6ewEfsi5izM_10balatro_rs10joker_impl11CraftyJokerNtNtB6_5joker5Joker12on_round_endB6_
FNDA:0,_RNvYNtNtCs6ewEfsi5izM_10balatro_rs10joker_impl11CraftyJokerNtNtB6_5joker5Joker12on_shop_openB6_
FNDA:0,_RNvYNtNtCs6ewEfsi5izM_10balatro_rs10joker_impl11CraftyJokerNtNtB6_5joker5Joker13migrate_stateB6_
FNDA:0,_RNvYNtNtCs6ewEfsi5izM_10balatro_rs10joker_impl11CraftyJokerNtNtB6_5joker5Joker14on_blind_startB6_
FNDA:5,_RNvYNtNtCs6ewEfsi5izM_10balatro_rs10joker_impl11CraftyJokerNtNtB6_5joker5Joker14on_card_scoredB6_
FNDA:0,_RNvYNtNtCs6ewEfsi5izM_10balatro_rs10joker_impl11CraftyJokerNtNtB6_5joker5Joker14on_deactivatedB6_
FNDA:0,_RNvYNtNtCs6ewEfsi5izM_10balatro_rs10joker_impl11CraftyJokerNtNtB6_5joker5Joker14validate_stateB6_
FNDA:0,_RNvYNtNtCs6ewEfsi5izM_10balatro_rs10joker_impl11CraftyJokerNtNtB6_5joker5Joker15modify_discardsB6_
FNDA:0,_RNvYNtNtCs6ewEfsi5izM_10balatro_rs10joker_impl11CraftyJokerNtNtB6_5joker5Joker15serialize_stateB6_
FNDA:0,_RNvYNtNtCs6ewEfsi5izM_10balatro_rs10joker_impl11CraftyJokerNtNtB6_5joker5Joker16initialize_stateB6_
FNDA:0,_RNvYNtNtCs6ewEfsi5izM_10balatro_rs10joker_impl11CraftyJokerNtNtB6_5joker5Joker16modify_hand_sizeB6_
FNDA:0,_RNvYNtNtCs6ewEfsi5izM_10balatro_rs10joker_impl11CraftyJokerNtNtB6_5joker5Joker17deserialize_stateB6_
FNDA:0,_RNvYNtNtCs6ewEfsi5izM_10balatro_rs10joker_impl11GreedyJokerNtNtB6_5joker5Joker10on_cleanupB6_
FNDA:0,_RNvYNtNtCs6ewEfsi5izM_10balatro_rs10joker_impl11GreedyJokerNtNtB6_5joker5Joker10on_createdB6_
FNDA:0,_RNvYNtNtCs6ewEfsi5izM_10balatro_rs10joker_impl11GreedyJokerNtNtB6_5joker5Joker10on_discardB6_
FNDA:0,_RNvYNtNtCs6ewEfsi5izM_10balatro_rs10joker_impl11GreedyJokerNtNtB6_5joker5Joker10sell_valueB6_
FNDA:0,_RNvYNtNtCs6ewEfsi5izM_10balatro_rs10joker_impl11GreedyJokerNtNtB6_5joker5Joker11modify_multB6_
FNDA:0,_RNvYNtNtCs6ewEfsi5izM_10balatro_rs10joker_impl11GreedyJokerNtNtB6_5joker5Joker12modify_chipsB6_
FNDA:0,_RNvYNtNtCs6ewEfsi5izM_10balatro_rs10joker_impl11GreedyJokerNtNtB6_5joker5Joker12on_activatedB6_
FNDA:0,_RNvYNtNtCs6ewEfsi5izM_10balatro_rs10joker_impl11GreedyJokerNtNtB6_5joker5Joker12on_round_endB6_
FNDA:0,_RNvYNtNtCs6ewEfsi5izM_10balatro_rs10joker_impl11GreedyJokerNtNtB6_5joker5Joker12on_shop_openB6_
FNDA:0,_RNvYNtNtCs6ewEfsi5izM_10balatro_rs10joker_impl11GreedyJokerNtNtB6_5joker5Joker13migrate_stateB6_
FNDA:0,_RNvYNtNtCs6ewEfsi5izM_10balatro_rs10joker_impl11GreedyJokerNtNtB6_5joker5Joker14on_blind_startB6_
FNDA:0,_RNvYNtNtCs6ewEfsi5izM_10balatro_rs10joker_impl11GreedyJokerNtNtB6_5joker5Joker14on_deactivatedB6_
FNDA:1,_RNvYNtNtCs6ewEfsi5izM_10balatro_rs10joker_impl11GreedyJokerNtNtB6_5joker5Joker14on_hand_playedB6_
FNDA:0,_RNvYNtNtCs6ewEfsi5izM_10balatro_rs10joker_impl11GreedyJokerNtNtB6_5joker5Joker14validate_stateB6_
FNDA:0,_RNvYNtNtCs6ewEfsi5izM_10balatro_rs10joker_impl11GreedyJokerNtNtB6_5joker5Joker15modify_discardsB6_
FNDA:0,_RNvYNtNtCs6ewEfsi5izM_10balatro_rs10joker_impl11GreedyJokerNtNtB6_5joker5Joker15serialize_stateB6_
FNDA:0,_RNvYNtNtCs6ewEfsi5izM_10balatro_rs10joker_impl11GreedyJokerNtNtB6_5joker5Joker16initialize_stateB6_
FNDA:0,_RNvYNtNtCs6ewEfsi5izM_10balatro_rs10joker_impl11GreedyJokerNtNtB6_5joker5Joker16modify_hand_sizeB6_
FNDA:0,_RNvYNtNtCs6ewEfsi5izM_10balatro_rs10joker_impl11GreedyJokerNtNtB6_5joker5Joker17deserialize_stateB6_
FNDA:0,_RNvYNtNtCs6ewEfsi5izM_10balatro_rs10joker_impl11RunnerJokerNtNtB6_5joker5Joker10on_cleanupB6_
FNDA:0,_RNvYNtNtCs6ewEfsi5izM_10balatro_rs10joker_impl11RunnerJokerNtNtB6_5joker5Joker10on_createdB6_
FNDA:0,_RNvYNtNtCs6ewEfsi5izM_10balatro_rs10joker_impl11RunnerJokerNtNtB6_5joker5Joker10on_discardB6_
FNDA:0,_RNvYNtNtCs6ewEfsi5izM_10balatro_rs10joker_impl11RunnerJokerNtNtB6_5joker5Joker10sell_valueB6_
FNDA:0,_RNvYNtNtCs6ewEfsi5izM_10balatro_rs10joker_impl11RunnerJokerNtNtB6_5joker5Joker11modify_multB6_
FNDA:0,_RNvYNtNtCs6ewEfsi5izM_10balatro_rs10joker_impl11RunnerJokerNtNtB6_5joker5Joker12modify_chipsB6_
FNDA:0,_RNvYNtNtCs6ewEfsi5izM_10balatro_rs10joker_impl11RunnerJokerNtNtB6_5joker5Joker12on_activatedB6_
FNDA:0,_RNvYNtNtCs6ewEfsi5izM_10balatro_rs10joker_impl11RunnerJokerNtNtB6_5joker5Joker12on_round_endB6_
FNDA:0,_RNvYNtNtCs6ewEfsi5izM_10balatro_rs10joker_impl11RunnerJokerNtNtB6_5joker5Joker12on_shop_openB6_
FNDA:0,_RNvYNtNtCs6ewEfsi5izM_10balatro_rs10joker_impl11RunnerJokerNtNtB6_5joker5Joker13migrate_stateB6_
FNDA:0,_RNvYNtNtCs6ewEfsi5izM_10balatro_rs10joker_impl11RunnerJokerNtNtB6_5joker5Joker14on_blind_startB6_
FNDA:0,_RNvYNtNtCs6ewEfsi5izM_10balatro_rs10joker_impl11RunnerJokerNtNtB6_5joker5Joker14on_card_scoredB6_
FNDA:0,_RNvYNtNtCs6ewEfsi5izM_10balatro_rs10joker_impl11RunnerJokerNtNtB6_5joker5Joker14on_deactivatedB6_
FNDA:0,_RNvYNtNtCs6ewEfsi5izM_10balatro_rs10joker_impl11RunnerJokerNtNtB6_5joker5Joker14validate_stateB6_
FNDA:0,_RNvYNtNtCs6ewEfsi5izM_10balatro_rs10joker_impl11RunnerJokerNtNtB6_5joker5Joker15modify_discardsB6_
FNDA:0,_RNvYNtNtCs6ewEfsi5izM_10balatro_rs10joker_impl11RunnerJokerNtNtB6_5joker5Joker15serialize_stateB6_
FNDA:0,_RNvYNtNtCs6ewEfsi5izM_10balatro_rs10joker_impl11RunnerJokerNtNtB6_5joker5Joker16initialize_stateB6_
FNDA:0,_RNvYNtNtCs6ewEfsi5izM_10balatro_rs10joker_impl11RunnerJokerNtNtB6_5joker5Joker16modify_hand_sizeB6_
FNDA:0,_RNvYNtNtCs6ewEfsi5izM_10balatro_rs10joker_impl11RunnerJokerNtNtB6_5joker5Joker17deserialize_stateB6_
FNDA:0,_RNvYNtNtCs6ewEfsi5izM_10balatro_rs10joker_impl12BusinessCardNtNtB6_5joker5Joker10on_cleanupB6_
FNDA:0,_RNvYNtNtCs6ewEfsi5izM_10balatro_rs10joker_impl12BusinessCardNtNtB6_5joker5Joker10on_createdB6_
FNDA:0,_RNvYNtNtCs6ewEfsi5izM_10balatro_rs10joker_impl12BusinessCardNtNtB6_5joker5Joker10on_discardB6_
FNDA:0,_RNvYNtNtCs6ewEfsi5izM_10balatro_rs10joker_impl12BusinessCardNtNtB6_5joker5Joker10sell_valueB6_
FNDA:0,_RNvYNtNtCs6ewEfsi5izM_10balatro_rs10joker_impl12BusinessCardNtNtB6_5joker5Joker11modify_multB6_
FNDA:0,_RNvYNtNtCs6ewEfsi5izM_10balatro_rs10joker_impl12BusinessCardNtNtB6_5joker5Joker12modify_chipsB6_
FNDA:0,_RNvYNtNtCs6ewEfsi5izM_10balatro_rs10joker_impl12BusinessCardNtNtB6_5joker5Joker12on_activatedB6_
FNDA:0,_RNvYNtNtCs6ewEfsi5izM_10balatro_rs10joker_impl12BusinessCardNtNtB6_5joker5Joker12on_round_endB6_
FNDA:0,_RNvYNtNtCs6ewEfsi5izM_10balatro_rs10joker_impl12BusinessCardNtNtB6_5joker5Joker12on_shop_openB6_
FNDA:0,_RNvYNtNtCs6ewEfsi5izM_10balatro_rs10joker_impl12BusinessCardNtNtB6_5joker5Joker13migrate_stateB6_
FNDA:0,_RNvYNtNtCs6ewEfsi5izM_10balatro_rs10joker_impl12BusinessCardNtNtB6_5joker5Joker14on_blind_startB6_
FNDA:0,_RNvYNtNtCs6ewEfsi5izM_10balatro_rs10joker_impl12BusinessCardNtNtB6_5joker5Joker14on_deactivatedB6_
FNDA:0,_RNvYNtNtCs6ewEfsi5izM_10balatro_rs10joker_impl12BusinessCardNtNtB6_5joker5Joker14on_hand_playedB6_
FNDA:0,_RNvYNtNtCs6ewEfsi5izM_10balatro_rs10joker_impl12BusinessCardNtNtB6_5joker5Joker14validate_stateB6_
FNDA:0,_RNvYNtNtCs6ewEfsi5izM_10balatro_rs10joker_impl12BusinessCardNtNtB6_5joker5Joker15modify_discardsB6_
FNDA:0,_RNvYNtNtCs6ewEfsi5izM_10balatro_rs10joker_impl12BusinessCardNtNtB6_5joker5Joker15serialize_stateB6_
FNDA:0,_RNvYNtNtCs6ewEfsi5izM_10balatro_rs10joker_impl12BusinessCardNtNtB6_5joker5Joker16initialize_stateB6_
FNDA:0,_RNvYNtNtCs6ewEfsi5izM_10balatro_rs10joker_impl12BusinessCardNtNtB6_5joker5Joker16modify_hand_sizeB6_
FNDA:0,_RNvYNtNtCs6ewEfsi5izM_10balatro_rs10joker_impl12BusinessCardNtNtB6_5joker5Joker17deserialize_stateB6_
FNDA:0,_RNvYNtNtCs6ewEfsi5izM_10balatro_rs10joker_impl12DeviousJokerNtNtB6_5joker5Joker10on_cleanupB6_
FNDA:0,_RNvYNtNtCs6ewEfsi5izM_10balatro_rs10joker_impl12DeviousJokerNtNtB6_5joker5Joker10on_createdB6_
FNDA:0,_RNvYNtNtCs6ewEfsi5izM_10balatro_rs10joker_impl12DeviousJokerNtNtB6_5joker5Joker10on_discardB6_
FNDA:0,_RNvYNtNtCs6ewEfsi5izM_10balatro_rs10joker_impl12DeviousJokerNtNtB6_5joker5Joker10sell_valueB6_
FNDA:0,_RNvYNtNtCs6ewEfsi5izM_10balatro_rs10joker_impl12DeviousJokerNtNtB6_5joker5Joker11modify_multB6_
FNDA:0,_RNvYNtNtCs6ewEfsi5izM_10balatro_rs10joker_impl12DeviousJokerNtNtB6_5joker5Joker12modify_chipsB6_
FNDA:0,_RNvYNtNtCs6ewEfsi5izM_10balatro_rs10joker_impl12DeviousJokerNtNtB6_5joker5Joker12on_activatedB6_
FNDA:0,_RNvYNtNtCs6ewEfsi5izM_10balatro_rs10joker_impl12DeviousJokerNtNtB6_5joker5Joker12on_round_endB6_
FNDA:0,_RNvYNtNtCs6ewEfsi5izM_10balatro_rs10joker_impl12DeviousJokerNtNtB6_5joker5Joker12on_shop_openB6_
FNDA:0,_RNvYNtNtCs6ewEfsi5izM_10balatro_rs10joker_impl12DeviousJokerNtNtB6_5joker5Joker13migrate_stateB6_
FNDA:0,_RNvYNtNtCs6ewEfsi5izM_10balatro_rs10joker_impl12DeviousJokerNtNtB6_5joker5Joker14on_blind_startB6_
FNDA:5,_RNvYNtNtCs6ewEfsi5izM_10balatro_rs10joker_impl12DeviousJokerNtNtB6_5joker5Joker14on_card_scoredB6_
FNDA:0,_RNvYNtNtCs6ewEfsi5izM_10balatro_rs10joker_impl12DeviousJokerNtNtB6_5joker5Joker14on_deactivatedB6_
FNDA:0,_RNvYNtNtCs6ewEfsi5izM_10balatro_rs10joker_impl12DeviousJokerNtNtB6_5joker5Joker14validate_stateB6_
FNDA:0,_RNvYNtNtCs6ewEfsi5izM_10balatro_rs10joker_impl12DeviousJokerNtNtB6_5joker5Joker15modify_discardsB6_
FNDA:0,_RNvYNtNtCs6ewEfsi5izM_10balatro_rs10joker_impl12DeviousJokerNtNtB6_5joker5Joker15serialize_stateB6_
FNDA:0,_RNvYNtNtCs6ewEfsi5izM_10balatro_rs10joker_impl12DeviousJokerNtNtB6_5joker5Joker16initialize_stateB6_
FNDA:0,_RNvYNtNtCs6ewEfsi5izM_10balatro_rs10joker_impl12DeviousJokerNtNtB6_5joker5Joker16modify_hand_sizeB6_
FNDA:0,_RNvYNtNtCs6ewEfsi5izM_10balatro_rs10joker_impl12DeviousJokerNtNtB6_5joker5Joker17deserialize_stateB6_
FNDA:0,_RNvYNtNtCs6ewEfsi5izM_10balatro_rs10joker_impl13IceCreamJokerNtNtB6_5joker5Joker10on_cleanupB6_
FNDA:0,_RNvYNtNtCs6ewEfsi5izM_10balatro_rs10joker_impl13IceCreamJokerNtNtB6_5joker5Joker10on_discardB6_
FNDA:0,_RNvYNtNtCs6ewEfsi5izM_10balatro_rs10joker_impl13IceCreamJokerNtNtB6_5joker5Joker10sell_valueB6_
FNDA:0,_RNvYNtNtCs6ewEfsi5izM_10balatro_rs10joker_impl13IceCreamJokerNtNtB6_5joker5Joker11modify_multB6_
FNDA:0,_RNvYNtNtCs6ewEfsi5izM_10balatro_rs10joker_impl13IceCreamJokerNtNtB6_5joker5Joker12modify_chipsB6_
FNDA:0,_RNvYNtNtCs6ewEfsi5izM_10balatro_rs10joker_impl13IceCreamJokerNtNtB6_5joker5Joker12on_activatedB6_
FNDA:0,_RNvYNtNtCs6ewEfsi5izM_10balatro_rs10joker_impl13IceCreamJokerNtNtB6_5joker5Joker12on_round_endB6_
FNDA:0,_RNvYNtNtCs6ewEfsi5izM_10balatro_rs10joker_impl13IceCreamJokerNtNtB6_5joker5Joker12on_shop_openB6_
FNDA:0,_RNvYNtNtCs6ewEfsi5izM_10balatro_rs10joker_impl13IceCreamJokerNtNtB6_5joker5Joker13migrate_stateB6_
FNDA:0,_RNvYNtNtCs6ewEfsi5izM_10balatro_rs10joker_impl13IceCreamJokerNtNtB6_5joker5Joker14on_blind_startB6_
FNDA:12,_RNvYNtNtCs6ewEfsi5izM_10balatro_rs10joker_impl13IceCreamJokerNtNtB6_5joker5Joker14on_card_scoredB6_
FNDA:0,_RNvYNtNtCs6ewEfsi5izM_10balatro_rs10joker_impl13IceCreamJokerNtNtB6_5joker5Joker14on_deactivatedB6_
FNDA:0,_RNvYNtNtCs6ewEfsi5izM_10balatro_rs10joker_impl13IceCreamJokerNtNtB6_5joker5Joker14validate_stateB6_
FNDA:0,_RNvYNtNtCs6ewEfsi5izM_10balatro_rs10joker_impl13IceCreamJokerNtNtB6_5joker5Joker15modify_discardsB6_
FNDA:0,_RNvYNtNtCs6ewEfsi5izM_10balatro_rs10joker_impl13IceCreamJokerNtNtB6_5joker5Joker15serialize_stateB6_
FNDA:0,_RNvYNtNtCs6ewEfsi5izM_10balatro_rs10joker_impl13IceCreamJokerNtNtB6_5joker5Joker16initialize_stateB6_
FNDA:0,_RNvYNtNtCs6ewEfsi5izM_10balatro_rs10joker_impl13IceCreamJokerNtNtB6_5joker5Joker16modify_hand_sizeB6_
FNDA:0,_RNvYNtNtCs6ewEfsi5izM_10balatro_rs10joker_impl13IceCreamJokerNtNtB6_5joker5Joker17deserialize_stateB6_
FNDA:0,_RNvYNtNtCs6ewEfsi5izM_10balatro_rs10joker_impl13WrathfulJokerNtNtB6_5joker5Joker10on_cleanupB6_
FNDA:0,_RNvYNtNtCs6ewEfsi5izM_10balatro_rs10joker_impl13WrathfulJokerNtNtB6_5joker5Joker10on_createdB6_
FNDA:0,_RNvYNtNtCs6ewEfsi5izM_10balatro_rs10joker_impl13WrathfulJokerNtNtB6_5joker5Joker10on_discardB6_
FNDA:0,_RNvYNtNtCs6ewEfsi5izM_10balatro_rs10joker_impl13WrathfulJokerNtNtB6_5joker5Joker10sell_valueB6_
FNDA:0,_RNvYNtNtCs6ewEfsi5izM_10balatro_rs10joker_impl13WrathfulJokerNtNtB6_5joker5Joker11modify_multB6_
FNDA:0,_RNvYNtNtCs6ewEfsi5izM_10balatro_rs10joker_impl13WrathfulJokerNtNtB6_5joker5Joker12modify_chipsB6_
FNDA:0,_RNvYNtNtCs6ewEfsi5izM_10balatro_rs10joker_impl13WrathfulJokerNtNtB6_5joker5Joker12on_activatedB6_
FNDA:0,_RNvYNtNtCs6ewEfsi5izM_10balatro_rs10joker_impl13WrathfulJokerNtNtB6_5joker5Joker12on_round_endB6_
FNDA:0,_RNvYNtNtCs6ewEfsi5izM_10balatro_rs10joker_impl13WrathfulJokerNtNtB6_5joker5Joker12on_shop_openB6_
FNDA:0,_RNvYNtNtCs6ewEfsi5izM_10balatro_rs10joker_impl13WrathfulJokerNtNtB6_5joker5Joker13migrate_stateB6_
FNDA:0,_RNvYNtNtCs6ewEfsi5izM_10balatro_rs10joker_impl13WrathfulJokerNtNtB6_5joker5Joker14on_blind_startB6_
FNDA:0,_RNvYNtNtCs6ewEfsi5izM_10balatro_rs10joker_impl13WrathfulJokerNtNtB6_5joker5Joker14on_deactivatedB6_
FNDA:1,_RNvYNtNtCs6ewEfsi5izM_10balatro_rs10joker_impl13WrathfulJokerNtNtB6_5joker5Joker14on_hand_playedB6_
FNDA:0,_RNvYNtNtCs6ewEfsi5izM_10balatro_rs10joker_impl13WrathfulJokerNtNtB6_5joker5Joker14validate_stateB6_
FNDA:0,_RNvYNtNtCs6ewEfsi5izM_10balatro_rs10joker_impl13WrathfulJokerNtNtB6_5joker5Joker15modify_discardsB6_
FNDA:0,_RNvYNtNtCs6ewEfsi5izM_10balatro_rs10joker_impl13WrathfulJokerNtNtB6_5joker5Joker15serialize_stateB6_
FNDA:0,_RNvYNtNtCs6ewEfsi5izM_10balatro_rs10joker_impl13WrathfulJokerNtNtB6_5joker5Joker16initialize_stateB6_
FNDA:0,_RNvYNtNtCs6ewEfsi5izM_10balatro_rs10joker_impl13WrathfulJokerNtNtB6_5joker5Joker16modify_hand_sizeB6_
FNDA:0,_RNvYNtNtCs6ewEfsi5izM_10balatro_rs10joker_impl13WrathfulJokerNtNtB6_5joker5Joker17deserialize_stateB6_
FNDA:0,_RNvYNtNtCs6ewEfsi5izM_10balatro_rs10joker_impl14SupernovaJokerNtNtB6_5joker5Joker10on_cleanupB6_
FNDA:0,_RNvYNtNtCs6ewEfsi5izM_10balatro_rs10joker_impl14SupernovaJokerNtNtB6_5joker5Joker10on_createdB6_
FNDA:0,_RNvYNtNtCs6ewEfsi5izM_10balatro_rs10joker_impl14SupernovaJokerNtNtB6_5joker5Joker10on_discardB6_
FNDA:0,_RNvYNtNtCs6ewEfsi5izM_10balatro_rs10joker_impl14SupernovaJokerNtNtB6_5joker5Joker10sell_valueB6_
FNDA:0,_RNvYNtNtCs6ewEfsi5izM_10balatro_rs10joker_impl14SupernovaJokerNtNtB6_5joker5Joker11modify_multB6_
FNDA:0,_RNvYNtNtCs6ewEfsi5izM_10balatro_rs10joker_impl14SupernovaJokerNtNtB6_5joker5Joker12modify_chipsB6_
FNDA:0,_RNvYNtNtCs6ewEfsi5izM_10balatro_rs10joker_impl14SupernovaJokerNtNtB6_5joker5Joker12on_activatedB6_
FNDA:0,_RNvYNtNtCs6ewEfsi5izM_10balatro_rs10joker_impl14SupernovaJokerNtNtB6_5joker5Joker12on_round_endB6_
FNDA:0,_RNvYNtNtCs6ewEfsi5izM_10balatro_rs10joker_impl14SupernovaJokerNtNtB6_5joker5Joker12on_shop_openB6_
FNDA:0,_RNvYNtNtCs6ewEfsi5izM_10balatro_rs10joker_impl14SupernovaJokerNtNtB6_5joker5Joker13migrate_stateB6_
FNDA:0,_RNvYNtNtCs6ewEfsi5izM_10balatro_rs10joker_impl14SupernovaJokerNtNtB6_5joker5Joker14on_blind_startB6_
FNDA:0,_RNvYNtNtCs6ewEfsi5izM_10balatro_rs10joker_impl14SupernovaJokerNtNtB6_5joker5Joker14on_card_scoredB6_
FNDA:0,_RNvYNtNtCs6ewEfsi5izM_10balatro_rs10joker_impl14SupernovaJokerNtNtB6_5joker5Joker14on_deactivatedB6_
FNDA:0,_RNvYNtNtCs6ewEfsi5izM_10balatro_rs10joker_impl14SupernovaJokerNtNtB6_5joker5Joker14validate_stateB6_
FNDA:0,_RNvYNtNtCs6ewEfsi5izM_10balatro_rs10joker_impl14SupernovaJokerNtNtB6_5joker5Joker15modify_discardsB6_
FNDA:0,_RNvYNtNtCs6ewEfsi5izM_10balatro_rs10joker_impl14SupernovaJokerNtNtB6_5joker5Joker15serialize_stateB6_
FNDA:0,_RNvYNtNtCs6ewEfsi5izM_10balatro_rs10joker_impl14SupernovaJokerNtNtB6_5joker5Joker16initialize_stateB6_
FNDA:0,_RNvYNtNtCs6ewEfsi5izM_10balatro_rs10joker_impl14SupernovaJokerNtNtB6_5joker5Joker16modify_hand_sizeB6_
FNDA:0,_RNvYNtNtCs6ewEfsi5izM_10balatro_rs10joker_impl14SupernovaJokerNtNtB6_5joker5Joker17deserialize_stateB6_
FNDA:0,_RNvYNtNtCs6ewEfsi5izM_10balatro_rs10joker_impl15GluttonousJokerNtNtB6_5joker5Joker10on_cleanupB6_
FNDA:0,_RNvYNtNtCs6ewEfsi5izM_10balatro_rs10joker_impl15GluttonousJokerNtNtB6_5joker5Joker10on_createdB6_
FNDA:0,_RNvYNtNtCs6ewEfsi5izM_10balatro_rs10joker_impl15GluttonousJokerNtNtB6_5joker5Joker10on_discardB6_
FNDA:0,_RNvYNtNtCs6ewEfsi5izM_10balatro_rs10joker_impl15GluttonousJokerNtNtB6_5joker5Joker10sell_valueB6_
FNDA:0,_RNvYNtNtCs6ewEfsi5izM_10balatro_rs10joker_impl15GluttonousJokerNtNtB6_5joker5Joker11modify_multB6_
FNDA:0,_RNvYNtNtCs6ewEfsi5izM_10balatro_rs10joker_impl15GluttonousJokerNtNtB6_5joker5Joker12modify_chipsB6_
FNDA:0,_RNvYNtNtCs6ewEfsi5izM_10balatro_rs10joker_impl15GluttonousJokerNtNtB6_5joker5Joker12on_activatedB6_
FNDA:0,_RNvYNtNtCs6ewEfsi5izM_10balatro_rs10joker_impl15GluttonousJokerNtNtB6_5joker5Joker12on_round_endB6_
FNDA:0,_RNvYNtNtCs6ewEfsi5izM_10balatro_rs10joker_impl15GluttonousJokerNtNtB6_5joker5Joker12on_shop_openB6_
FNDA:0,_RNvYNtNtCs6ewEfsi5izM_10balatro_rs10joker_impl15GluttonousJokerNtNtB6_5joker5Joker13migrate_stateB6_
FNDA:0,_RNvYNtNtCs6ewEfsi5izM_10balatro_rs10joker_impl15GluttonousJokerNtNtB6_5joker5Joker14on_blind_startB6_
FNDA:0,_RNvYNtNtCs6ewEfsi5izM_10balatro_rs10joker_impl15GluttonousJokerNtNtB6_5joker5Joker14on_deactivatedB6_
FNDA:1,_RNvYNtNtCs6ewEfsi5izM_10balatro_rs10joker_impl15GluttonousJokerNtNtB6_5joker5Joker14on_hand_playedB6_
FNDA:0,_RNvYNtNtCs6ewEfsi5izM_10balatro_rs10joker_impl15GluttonousJokerNtNtB6_5joker5Joker14validate_stateB6_
FNDA:0,_RNvYNtNtCs6ewEfsi5izM_10balatro_rs10joker_impl15GluttonousJokerNtNtB6_5joker5Joker15modify_discardsB6_
FNDA:0,_RNvYNtNtCs6ewEfsi5izM_10balatro_rs10joker_impl15GluttonousJokerNtNtB6_5joker5Joker15serialize_stateB6_
FNDA:0,_RNvYNtNtCs6ewEfsi5izM_10balatro_rs10joker_impl15GluttonousJokerNtNtB6_5joker5Joker16initialize_stateB6_
FNDA:0,_RNvYNtNtCs6ewEfsi5izM_10balatro_rs10joker_impl15GluttonousJokerNtNtB6_5joker5Joker16modify_hand_sizeB6_
FNDA:0,_RNvYNtNtCs6ewEfsi5izM_10balatro_rs10joker_impl15GluttonousJokerNtNtB6_5joker5Joker17deserialize_stateB6_
FNDA:0,_RNvYNtNtCs6ewEfsi5izM_10balatro_rs10joker_impl3EggNtNtB6_5joker5Joker10on_cleanupB6_
FNDA:0,_RNvYNtNtCs6ewEfsi5izM_10balatro_rs10joker_impl3EggNtNtB6_5joker5Joker10on_createdB6_
FNDA:0,_RNvYNtNtCs6ewEfsi5izM_10balatro_rs10joker_impl3EggNtNtB6_5joker5Joker10on_discardB6_
FNDA:0,_RNvYNtNtCs6ewEfsi5izM_10balatro_rs10joker_impl3EggNtNtB6_5joker5Joker11modify_multB6_
FNDA:0,_RNvYNtNtCs6ewEfsi5izM_10balatro_rs10joker_impl3EggNtNtB6_5joker5Joker12modify_chipsB6_
FNDA:0,_RNvYNtNtCs6ewEfsi5izM_10balatro_rs10joker_impl3EggNtNtB6_5joker5Joker12on_activatedB6_
FNDA:0,_RNvYNtNtCs6ewEfsi5izM_10balatro_rs10joker_impl3EggNtNtB6_5joker5Joker12on_shop_openB6_
FNDA:0,_RNvYNtNtCs6ewEfsi5izM_10balatro_rs10joker_impl3EggNtNtB6_5joker5Joker13migrate_stateB6_
FNDA:0,_RNvYNtNtCs6ewEfsi5izM_10balatro_rs10joker_impl3EggNtNtB6_5joker5Joker14on_blind_startB6_
FNDA:0,_RNvYNtNtCs6ewEfsi5izM_10balatro_rs10joker_impl3EggNtNtB6_5joker5Joker14on_card_scoredB6_
FNDA:0,_RNvYNtNtCs6ewEfsi5izM_10balatro_rs10joker_impl3EggNtNtB6_5joker5Joker14on_deactivatedB6_
FNDA:0,_RNvYNtNtCs6ewEfsi5izM_10balatro_rs10joker_impl3EggNtNtB6_5joker5Joker14on_hand_playedB6_
FNDA:0,_RNvYNtNtCs6ewEfsi5izM_10balatro_rs10joker_impl3EggNtNtB6_5joker5Joker14validate_stateB6_
FNDA:0,_RNvYNtNtCs6ewEfsi5izM_10balatro_rs10joker_impl3EggNtNtB6_5joker5Joker15modify_discardsB6_
FNDA:0,_RNvYNtNtCs6ewEfsi5izM_10balatro_rs10joker_impl3EggNtNtB6_5joker5Joker15serialize_stateB6_
FNDA:0,_RNvYNtNtCs6ewEfsi5izM_10balatro_rs10joker_impl3EggNtNtB6_5joker5Joker16initialize_stateB6_
FNDA:0,_RNvYNtNtCs6ewEfsi5izM_10balatro_rs10joker_impl3EggNtNtB6_5joker5Joker16modify_hand_sizeB6_
FNDA:0,_RNvYNtNtCs6ewEfsi5izM_10balatro_rs10joker_impl3EggNtNtB6_5joker5Joker17deserialize_stateB6_
FNDA:0,_RNvYNtNtCs6ewEfsi5izM_10balatro_rs10joker_impl7BurglarNtNtB6_5joker5Joker10on_cleanupB6_
FNDA:0,_RNvYNtNtCs6ewEfsi5izM_10balatro_rs10joker_impl7BurglarNtNtB6_5joker5Joker10on_createdB6_
FNDA:0,_RNvYNtNtCs6ewEfsi5izM_10balatro_rs10joker_impl7BurglarNtNtB6_5joker5Joker10on_discardB6_
FNDA:0,_RNvYNtNtCs6ewEfsi5izM_10balatro_rs10joker_impl7BurglarNtNtB6_5joker5Joker10sell_valueB6_
FNDA:0,_RNvYNtNtCs6ewEfsi5izM_10balatro_rs10joker_impl7BurglarNtNtB6_5joker5Joker11modify_multB6_
FNDA:0,_RNvYNtNtCs6ewEfsi5izM_10balatro_rs10joker_impl7BurglarNtNtB6_5joker5Joker12modify_chipsB6_
FNDA:0,_RNvYNtNtCs6ewEfsi5izM_10balatro_rs10joker_impl7BurglarNtNtB6_5joker5Joker12on_activatedB6_
FNDA:0,_RNvYNtNtCs6ewEfsi5izM_10balatro_rs10joker_impl7BurglarNtNtB6_5joker5Joker12on_round_endB6_
FNDA:0,_RNvYNtNtCs6ewEfsi5izM_10balatro_rs10joker_impl7BurglarNtNtB6_5joker5Joker12on_shop_openB6_
FNDA:0,_RNvYNtNtCs6ewEfsi5izM_10balatro_rs10joker_impl7BurglarNtNtB6_5joker5Joker13migrate_stateB6_
FNDA:0,_RNvYNtNtCs6ewEfsi5izM_10balatro_rs10joker_impl7BurglarNtNtB6_5joker5Joker14on_card_scoredB6_
FNDA:0,_RNvYNtNtCs6ewEfsi5izM_10balatro_rs10joker_impl7BurglarNtNtB6_5joker5Joker14on_deactivatedB6_
FNDA:0,_RNvYNtNtCs6ewEfsi5izM_10balatro_rs10joker_impl7BurglarNtNtB6_5joker5Joker14on_hand_playedB6_
FNDA:0,_RNvYNtNtCs6ewEfsi5izM_10balatro_rs10joker_impl7BurglarNtNtB6_5joker5Joker14validate_stateB6_
FNDA:0,_RNvYNtNtCs6ewEfsi5izM_10balatro_rs10joker_impl7BurglarNtNtB6_5joker5Joker15modify_discardsB6_
FNDA:0,_RNvYNtNtCs6ewEfsi5izM_10balatro_rs10joker_impl7BurglarNtNtB6_5joker5Joker15serialize_stateB6_
FNDA:0,_RNvYNtNtCs6ewEfsi5izM_10balatro_rs10joker_impl7BurglarNtNtB6_5joker5Joker16initialize_stateB6_
FNDA:0,_RNvYNtNtCs6ewEfsi5izM_10balatro_rs10joker_impl7BurglarNtNtB6_5joker5Joker16modify_hand_sizeB6_
FNDA:0,_RNvYNtNtCs6ewEfsi5izM_10balatro_rs10joker_impl7BurglarNtNtB6_5joker5Joker17deserialize_stateB6_
FNDA:0,_RNvYNtNtCs6ewEfsi5izM_10balatro_rs10joker_impl8MadJokerNtNtB6_5joker5Joker10on_cleanupB6_
FNDA:0,_RNvYNtNtCs6ewEfsi5izM_10balatro_rs10joker_impl8MadJokerNtNtB6_5joker5Joker10on_createdB6_
FNDA:0,_RNvYNtNtCs6ewEfsi5izM_10balatro_rs10joker_impl8MadJokerNtNtB6_5joker5Joker10on_discardB6_
FNDA:0,_RNvYNtNtCs6ewEfsi5izM_10balatro_rs10joker_impl8MadJokerNtNtB6_5joker5Joker10sell_valueB6_
FNDA:0,_RNvYNtNtCs6ewEfsi5izM_10balatro_rs10joker_impl8MadJokerNtNtB6_5joker5Joker11modify_multB6_
FNDA:0,_RNvYNtNtCs6ewEfsi5izM_10balatro_rs10joker_impl8MadJokerNtNtB6_5joker5Joker12modify_chipsB6_
FNDA:0,_RNvYNtNtCs6ewEfsi5izM_10balatro_rs10joker_impl8MadJokerNtNtB6_5joker5Joker12on_activatedB6_
FNDA:0,_RNvYNtNtCs6ewEfsi5izM_10balatro_rs10joker_impl8MadJokerNtNtB6_5joker5Joker12on_round_endB6_
FNDA:0,_RNvYNtNtCs6ewEfsi5izM_10balatro_rs10joker_impl8MadJokerNtNtB6_5joker5Joker12on_shop_openB6_
FNDA:0,_RNvYNtNtCs6ewEfsi5izM_10balatro_rs10joker_impl8MadJokerNtNtB6_5joker5Joker13migrate_stateB6_
FNDA:0,_RNvYNtNtCs6ewEfsi5izM_10balatro_rs10joker_impl8MadJokerNtNtB6_5joker5Joker14on_blind_startB6_
FNDA:4,_RNvYNtNtCs6ewEfsi5izM_10balatro_rs10joker_impl8MadJokerNtNtB6_5joker5Joker14on_card_scoredB6_
FNDA:0,_RNvYNtNtCs6ewEfsi5izM_10balatro_rs10joker_impl8MadJokerNtNtB6_5joker5Joker14on_deactivatedB6_
FNDA:0,_RNvYNtNtCs6ewEfsi5izM_10balatro_rs10joker_impl8MadJokerNtNtB6_5joker5Joker14validate_stateB6_
FNDA:0,_RNvYNtNtCs6ewEfsi5izM_10balatro_rs10joker_impl8MadJokerNtNtB6_5joker5Joker15modify_discardsB6_
FNDA:0,_RNvYNtNtCs6ewEfsi5izM_10balatro_rs10joker_impl8MadJokerNtNtB6_5joker5Joker15serialize_stateB6_
FNDA:0,_RNvYNtNtCs6ewEfsi5izM_10balatro_rs10joker_impl8MadJokerNtNtB6_5joker5Joker16initialize_stateB6_
FNDA:0,_RNvYNtNtCs6ewEfsi5izM_10balatro_rs10joker_impl8MadJokerNtNtB6_5joker5Joker16modify_hand_sizeB6_
FNDA:0,_RNvYNtNtCs6ewEfsi5izM_10balatro_rs10joker_impl8MadJokerNtNtB6_5joker5Joker17deserialize_stateB6_
FNDA:0,_RNvYNtNtCs6ewEfsi5izM_10balatro_rs10joker_impl8SlyJokerNtNtB6_5joker5Joker10on_cleanupB6_
FNDA:0,_RNvYNtNtCs6ewEfsi5izM_10balatro_rs10joker_impl8SlyJokerNtNtB6_5joker5Joker10on_createdB6_
FNDA:0,_RNvYNtNtCs6ewEfsi5izM_10balatro_rs10joker_impl8SlyJokerNtNtB6_5joker5Joker10on_discardB6_
FNDA:0,_RNvYNtNtCs6ewEfsi5izM_10balatro_rs10joker_impl8SlyJokerNtNtB6_5joker5Joker10sell_valueB6_
FNDA:0,_RNvYNtNtCs6ewEfsi5izM_10balatro_rs10joker_impl8SlyJokerNtNtB6_5joker5Joker11modify_multB6_
FNDA:0,_RNvYNtNtCs6ewEfsi5izM_10balatro_rs10joker_impl8SlyJokerNtNtB6_5joker5Joker12modify_chipsB6_
FNDA:0,_RNvYNtNtCs6ewEfsi5izM_10balatro_rs10joker_impl8SlyJokerNtNtB6_5joker5Joker12on_activatedB6_
FNDA:0,_RNvYNtNtCs6ewEfsi5izM_10balatro_rs10joker_impl8SlyJokerNtNtB6_5joker5Joker12on_round_endB6_
FNDA:0,_RNvYNtNtCs6ewEfsi5izM_10balatro_rs10joker_impl8SlyJokerNtNtB6_5joker5Joker12on_shop_openB6_
FNDA:0,_RNvYNtNtCs6ewEfsi5izM_10balatro_rs10joker_impl8SlyJokerNtNtB6_5joker5Joker13migrate_stateB6_
FNDA:0,_RNvYNtNtCs6ewEfsi5izM_10balatro_rs10joker_impl8SlyJokerNtNtB6_5joker5Joker14on_blind_startB6_
FNDA:4,_RNvYNtNtCs6ewEfsi5izM_10balatro_rs10joker_impl8SlyJokerNtNtB6_5joker5Joker14on_card_scoredB6_
FNDA:0,_RNvYNtNtCs6ewEfsi5izM_10balatro_rs10joker_impl8SlyJokerNtNtB6_5joker5Joker14on_deactivatedB6_
FNDA:0,_RNvYNtNtCs6ewEfsi5izM_10balatro_rs10joker_impl8SlyJokerNtNtB6_5joker5Joker14validate_stateB6_
FNDA:0,_RNvYNtNtCs6ewEfsi5izM_10balatro_rs10joker_impl8SlyJokerNtNtB6_5joker5Joker15modify_discardsB6_
FNDA:0,_RNvYNtNtCs6ewEfsi5izM_10balatro_rs10joker_impl8SlyJokerNtNtB6_5joker5Joker15serialize_stateB6_
FNDA:0,_RNvYNtNtCs6ewEfsi5izM_10balatro_rs10joker_impl8SlyJokerNtNtB6_5joker5Joker16initialize_stateB6_
FNDA:0,_RNvYNtNtCs6ewEfsi5izM_10balatro_rs10joker_impl8SlyJokerNtNtB6_5joker5Joker16modify_hand_sizeB6_
FNDA:0,_RNvYNtNtCs6ewEfsi5izM_10balatro_rs10joker_impl8SlyJokerNtNtB6_5joker5Joker17deserialize_stateB6_
FNDA:0,_RNvYNtNtCs6ewEfsi5izM_10balatro_rs10joker_impl8TheJokerNtNtB6_5joker5Joker10on_cleanupB6_
FNDA:0,_RNvYNtNtCs6ewEfsi5izM_10balatro_rs10joker_impl8TheJokerNtNtB6_5joker5Joker10on_createdB6_
FNDA:0,_RNvYNtNtCs6ewEfsi5izM_10balatro_rs10joker_impl8TheJokerNtNtB6_5joker5Joker10on_discardB6_
FNDA:0,_RNvYNtNtCs6ewEfsi5izM_10balatro_rs10joker_impl8TheJokerNtNtB6_5joker5Joker10sell_valueB6_
FNDA:0,_RNvYNtNtCs6ewEfsi5izM_10balatro_rs10joker_impl8TheJokerNtNtB6_5joker5Joker11modify_multB6_
FNDA:0,_RNvYNtNtCs6ewEfsi5izM_10balatro_rs10joker_impl8TheJokerNtNtB6_5joker5Joker12modify_chipsB6_
FNDA:0,_RNvYNtNtCs6ewEfsi5izM_10balatro_rs10joker_impl8TheJokerNtNtB6_5joker5Joker12on_activatedB6_
FNDA:0,_RNvYNtNtCs6ewEfsi5izM_10balatro_rs10joker_impl8TheJokerNtNtB6_5joker5Joker12on_round_endB6_
FNDA:0,_RNvYNtNtCs6ewEfsi5izM_10balatro_rs10joker_impl8TheJokerNtNtB6_5joker5Joker12on_shop_openB6_
FNDA:0,_RNvYNtNtCs6ewEfsi5izM_10balatro_rs10joker_impl8TheJokerNtNtB6_5joker5Joker13migrate_stateB6_
FNDA:0,_RNvYNtNtCs6ewEfsi5izM_10balatro_rs10joker_impl8TheJokerNtNtB6_5joker5Joker14on_blind_startB6_
FNDA:4,_RNvYNtNtCs6ewEfsi5izM_10balatro_rs10joker_impl8TheJokerNtNtB6_5joker5Joker14on_card_scoredB6_
FNDA:0,_RNvYNtNtCs6ewEfsi5izM_10balatro_rs10joker_impl8TheJokerNtNtB6_5joker5Joker14on_deactivatedB6_
FNDA:0,_RNvYNtNtCs6ewEfsi5izM_10balatro_rs10joker_impl8TheJokerNtNtB6_5joker5Joker14validate_stateB6_
FNDA:0,_RNvYNtNtCs6ewEfsi5izM_10balatro_rs10joker_impl8TheJokerNtNtB6_5joker5Joker15modify_discardsB6_
FNDA:0,_RNvYNtNtCs6ewEfsi5izM_10balatro_rs10joker_impl8TheJokerNtNtB6_5joker5Joker15serialize_stateB6_
FNDA:0,_RNvYNtNtCs6ewEfsi5izM_10balatro_rs10joker_impl8TheJokerNtNtB6_5joker5Joker16initialize_stateB6_
FNDA:0,_RNvYNtNtCs6ewEfsi5izM_10balatro_rs10joker_impl8TheJokerNtNtB6_5joker5Joker16modify_hand_sizeB6_
FNDA:0,_RNvYNtNtCs6ewEfsi5izM_10balatro_rs10joker_impl8TheJokerNtNtB6_5joker5Joker17deserialize_stateB6_
FNDA:0,_RNvYNtNtCs6ewEfsi5izM_10balatro_rs10joker_impl9WilyJokerNtNtB6_5joker5Joker10on_cleanupB6_
FNDA:0,_RNvYNtNtCs6ewEfsi5izM_10balatro_rs10joker_impl9WilyJokerNtNtB6_5joker5Joker10on_createdB6_
FNDA:0,_RNvYNtNtCs6ewEfsi5izM_10balatro_rs10joker_impl9WilyJokerNtNtB6_5joker5Joker10on_discardB6_
FNDA:0,_RNvYNtNtCs6ewEfsi5izM_10balatro_rs10joker_impl9WilyJokerNtNtB6_5joker5Joker10sell_valueB6_
FNDA:0,_RNvYNtNtCs6ewEfsi5izM_10balatro_rs10joker_impl9WilyJokerNtNtB6_5joker5Joker11modify_multB6_
FNDA:0,_RNvYNtNtCs6ewEfsi5izM_10balatro_rs10joker_impl9WilyJokerNtNtB6_5joker5Joker12modify_chipsB6_
FNDA:0,_RNvYNtNtCs6ewEfsi5izM_10balatro_rs10joker_impl9WilyJokerNtNtB6_5joker5Joker12on_activatedB6_
FNDA:0,_RNvYNtNtCs6ewEfsi5izM_10balatro_rs10joker_impl9WilyJokerNtNtB6_5joker5Joker12on_round_endB6_
FNDA:0,_RNvYNtNtCs6ewEfsi5izM_10balatro_rs10joker_impl9WilyJokerNtNtB6_5joker5Joker12on_shop_openB6_
FNDA:0,_RNvYNtNtCs6ewEfsi5izM_10balatro_rs10joker_impl9WilyJokerNtNtB6_5joker5Joker13migrate_stateB6_
FNDA:0,_RNvYNtNtCs6ewEfsi5izM_10balatro_rs10joker_impl9WilyJokerNtNtB6_5joker5Joker14on_blind_startB6_
FNDA:4,_RNvYNtNtCs6ewEfsi5izM_10balatro_rs10joker_impl9WilyJokerNtNtB6_5joker5Joker14on_card_scoredB6_
FNDA:0,_RNvYNtNtCs6ewEfsi5izM_10balatro_rs10joker_impl9WilyJokerNtNtB6_5joker5Joker14on_deactivatedB6_
FNDA:0,_RNvYNtNtCs6ewEfsi5izM_10balatro_rs10joker_impl9WilyJokerNtNtB6_5joker5Joker14validate_stateB6_
FNDA:0,_RNvYNtNtCs6ewEfsi5izM_10balatro_rs10joker_impl9WilyJokerNtNtB6_5joker5Joker15modify_discardsB6_
FNDA:0,_RNvYNtNtCs6ewEfsi5izM_10balatro_rs10joker_impl9WilyJokerNtNtB6_5joker5Joker15serialize_stateB6_
FNDA:0,_RNvYNtNtCs6ewEfsi5izM_10balatro_rs10joker_impl9WilyJokerNtNtB6_5joker5Joker16initialize_stateB6_
FNDA:0,_RNvYNtNtCs6ewEfsi5izM_10balatro_rs10joker_impl9WilyJokerNtNtB6_5joker5Joker16modify_hand_sizeB6_
FNDA:0,_RNvYNtNtCs6ewEfsi5izM_10balatro_rs10joker_impl9WilyJokerNtNtB6_5joker5Joker17deserialize_stateB6_
FNDA:0,_RNvYNtNtCs6ewEfsi5izM_10balatro_rs10joker_impl9ZanyJokerNtNtB6_5joker5Joker10on_cleanupB6_
FNDA:0,_RNvYNtNtCs6ewEfsi5izM_10balatro_rs10joker_impl9ZanyJokerNtNtB6_5joker5Joker10on_createdB6_
FNDA:0,_RNvYNtNtCs6ewEfsi5izM_10balatro_rs10joker_impl9ZanyJokerNtNtB6_5joker5Joker10on_discardB6_
FNDA:0,_RNvYNtNtCs6ewEfsi5izM_10balatro_rs10joker_impl9ZanyJokerNtNtB6_5joker5Joker10sell_valueB6_
FNDA:0,_RNvYNtNtCs6ewEfsi5izM_10balatro_rs10joker_impl9ZanyJokerNtNtB6_5joker5Joker11modify_multB6_
FNDA:0,_RNvYNtNtCs6ewEfsi5izM_10balatro_rs10joker_impl9ZanyJokerNtNtB6_5joker5Joker12modify_chipsB6_
FNDA:0,_RNvYNtNtCs6ewEfsi5izM_10balatro_rs10joker_impl9ZanyJokerNtNtB6_5joker5Joker12on_activatedB6_
FNDA:0,_RNvYNtNtCs6ewEfsi5izM_10balatro_rs10joker_impl9ZanyJokerNtNtB6_5joker5Joker12on_round_endB6_
FNDA:0,_RNvYNtNtCs6ewEfsi5izM_10balatro_rs10joker_impl9ZanyJokerNtNtB6_5joker5Joker12on_shop_openB6_
FNDA:0,_RNvYNtNtCs6ewEfsi5izM_10balatro_rs10joker_impl9ZanyJokerNtNtB6_5joker5Joker13migrate_stateB6_
FNDA:0,_RNvYNtNtCs6ewEfsi5izM_10balatro_rs10joker_impl9ZanyJokerNtNtB6_5joker5Joker14on_blind_startB6_
FNDA:4,_RNvYNtNtCs6ewEfsi5izM_10balatro_rs10joker_impl9ZanyJokerNtNtB6_5joker5Joker14on_card_scoredB6_
FNDA:0,_RNvYNtNtCs6ewEfsi5izM_10balatro_rs10joker_impl9ZanyJokerNtNtB6_5joker5Joker14on_deactivatedB6_
FNDA:0,_RNvYNtNtCs6ewEfsi5izM_10balatro_rs10joker_impl9ZanyJokerNtNtB6_5joker5Joker14validate_stateB6_
FNDA:0,_RNvYNtNtCs6ewEfsi5izM_10balatro_rs10joker_impl9ZanyJokerNtNtB6_5joker5Joker15modify_discardsB6_
FNDA:0,_RNvYNtNtCs6ewEfsi5izM_10balatro_rs10joker_impl9ZanyJokerNtNtB6_5joker5Joker15serialize_stateB6_
FNDA:0,_RNvYNtNtCs6ewEfsi5izM_10balatro_rs10joker_impl9ZanyJokerNtNtB6_5joker5Joker16initialize_stateB6_
FNDA:0,_RNvYNtNtCs6ewEfsi5izM_10balatro_rs10joker_impl9ZanyJokerNtNtB6_5joker5Joker16modify_hand_sizeB6_
FNDA:0,_RNvYNtNtCs6ewEfsi5izM_10balatro_rs10joker_impl9ZanyJokerNtNtB6_5joker5Joker17deserialize_stateB6_
FNDA:0,_RNvMs0_NtCs6ewEfsi5izM_10balatro_rs5jokerNtB5_11GameContext19get_hand_type_count
FNDA:0,_RNvMsN_NtCs6ewEfsi5izM_10balatro_rs5jokerNtB5_11JokerEffect11discard_mod
FNDA:0,_RNvMsN_NtCs6ewEfsi5izM_10balatro_rs5jokerNtB5_11JokerEffect12destroy_self
FNDA:0,_RNvMsN_NtCs6ewEfsi5izM_10balatro_rs5jokerNtB5_11JokerEffect13hand_size_mod
FNDA:0,_RNvMsN_NtCs6ewEfsi5izM_10balatro_rs5jokerNtB5_11JokerEffect14destroy_others
FNDA:0,_RNvMsN_NtCs6ewEfsi5izM_10balatro_rs5jokerNtB5_11JokerEffect15mult_multiplier
FNDA:0,_RNvMsN_NtCs6ewEfsi5izM_10balatro_rs5jokerNtB5_11JokerEffect15transform_cards
FNDA:0,_RNvMsN_NtCs6ewEfsi5izM_10balatro_rs5jokerNtB5_11JokerEffect19sell_value_increase
FNDA:0,_RNvMsN_NtCs6ewEfsi5izM_10balatro_rs5jokerNtB5_11JokerEffect4mult
FNDA:0,_RNvMsN_NtCs6ewEfsi5izM_10balatro_rs5jokerNtB5_11JokerEffect5chips
FNDA:0,_RNvMsN_NtCs6ewEfsi5izM_10balatro_rs5jokerNtB5_11JokerEffect5money
FNDA:0,_RNvMsN_NtCs6ewEfsi5izM_10balatro_rs5jokerNtB5_11JokerEffect7message
FNDA:0,_RNvMsN_NtCs6ewEfsi5izM_10balatro_rs5jokerNtB5_11JokerEffect9retrigger
FNDA:0,_RNvMsP_NtCs6ewEfsi5izM_10balatro_rs5jokerNtB5_11JokerEffect21___pymethod_get_mult__
FNDA:0,_RNvMsP_NtCs6ewEfsi5izM_10balatro_rs5jokerNtB5_11JokerEffect22___pymethod_get_chips__
FNDA:0,_RNvMsP_NtCs6ewEfsi5izM_10balatro_rs5jokerNtB5_11JokerEffect22___pymethod_get_money__
FNDA:0,_RNvMsP_NtCs6ewEfsi5izM_10balatro_rs5jokerNtB5_11JokerEffect24___pymethod_get_message__
FNDA:0,_RNvMsP_NtCs6ewEfsi5izM_10balatro_rs5jokerNtB5_11JokerEffect26___pymethod_get_retrigger__
FNDA:0,_RNvMsP_NtCs6ewEfsi5izM_10balatro_rs5jokerNtB5_11JokerEffect28___pymethod_get_discard_mod__
FNDA:0,_RNvMsP_NtCs6ewEfsi5izM_10balatro_rs5jokerNtB5_11JokerEffect29___pymethod_get_destroy_self__
FNDA:0,_RNvMsP_NtCs6ewEfsi5izM_10balatro_rs5jokerNtB5_11JokerEffect30___pymethod_get_hand_size_mod__
FNDA:0,_RNvMsP_NtCs6ewEfsi5izM_10balatro_rs5jokerNtB5_11JokerEffect31___pymethod_get_destroy_others__
FNDA:0,_RNvMsP_NtCs6ewEfsi5izM_10balatro_rs5jokerNtB5_11JokerEffect32___pymethod_get_mult_multiplier__
FNDA:0,_RNvMsP_NtCs6ewEfsi5izM_10balatro_rs5jokerNtB5_11JokerEffect32___pymethod_get_transform_cards__
FNDA:0,_RNvMsP_NtCs6ewEfsi5izM_10balatro_rs5jokerNtB5_11JokerEffect36___pymethod_get_sell_value_increase__
FNDA:31,_RNvMs_NtCs6ewEfsi5izM_10balatro_rs5jokerNtB4_11JokerEffect10with_chips
FNDA:2,_RNvMs_NtCs6ewEfsi5izM_10balatro_rs5jokerNtB4_11JokerEffect10with_money
FNDA:0,_RNvMs_NtCs6ewEfsi5izM_10balatro_rs5jokerNtB4_11JokerEffect12with_message
FNDA:15,_RNvMs_NtCs6ewEfsi5izM_10balatro_rs5jokerNtB4_11JokerEffect20with_mult_multiplier
FNDA:0,_RNvMs_NtCs6ewEfsi5izM_10balatro_rs5jokerNtB4_11JokerEffect24with_sell_value_increase
FNDA:161,_RNvMs_NtCs6ewEfsi5izM_10balatro_rs5jokerNtB4_11JokerEffect3new
FNDA:42,_RNvMs_NtCs6ewEfsi5izM_10balatro_rs5jokerNtB4_11JokerEffect9with_mult
FNDA:0,_RNvMsf_NtCs6ewEfsi5izM_10balatro_rs5jokerNtB5_7JokerId38___pymethod___default___pyo3__int______
FNDA:0,_RNvMsf_NtCs6ewEfsi5izM_10balatro_rs5jokerNtB5_7JokerId39___pymethod___default___pyo3__repr______
FNDA:0,_RNvMsw_NtCs6ewEfsi5izM_10balatro_rs5jokerNtB5_11JokerRarity38___pymethod___default___pyo3__int______
FNDA:0,_RNvMsw_NtCs6ewEfsi5izM_10balatro_rs5jokerNtB5_11JokerRarity39___pymethod___default___pyo3__repr______
FNDA:1,_RINvNvNtNtCs6ewEfsi5izM_10balatro_rs5joker5testss_23test_joker_trait_bounds16assert_send_syncINtNtCsaFPxhswmqCN_5alloc5boxed3BoxDNtB6_5JokerEL_EEB8_
FNDA:0,_RNvMs0_NtCsfztrlbScSWy_10balatro_rs5jokerNtB5_11GameContext19get_hand_type_count
FNDA:0,_RNvMsN_NtCsfztrlbScSWy_10balatro_rs5jokerNtB5_11JokerEffect11discard_mod
FNDA:0,_RNvMsN_NtCsfztrlbScSWy_10balatro_rs5jokerNtB5_11JokerEffect12destroy_self
FNDA:0,_RNvMsN_NtCsfztrlbScSWy_10balatro_rs5jokerNtB5_11JokerEffect13hand_size_mod
FNDA:0,_RNvMsN_NtCsfztrlbScSWy_10balatro_rs5jokerNtB5_11JokerEffect14destroy_others
FNDA:0,_RNvMsN_NtCsfztrlbScSWy_10balatro_rs5jokerNtB5_11JokerEffect15mult_multiplier
FNDA:0,_RNvMsN_NtCsfztrlbScSWy_10balatro_rs5jokerNtB5_11JokerEffect15transform_cards
FNDA:0,_RNvMsN_NtCsfztrlbScSWy_10balatro_rs5jokerNtB5_11JokerEffect19sell_value_increase
FNDA:0,_RNvMsN_NtCsfztrlbScSWy_10balatro_rs5jokerNtB5_11JokerEffect4mult
FNDA:0,_RNvMsN_NtCsfztrlbScSWy_10balatro_rs5jokerNtB5_11JokerEffect5chips
FNDA:0,_RNvMsN_NtCsfztrlbScSWy_10balatro_rs5jokerNtB5_11JokerEffect5money
FNDA:0,_RNvMsN_NtCsfztrlbScSWy_10balatro_rs5jokerNtB5_11JokerEffect7message
FNDA:0,_RNvMsN_NtCsfztrlbScSWy_10balatro_rs5jokerNtB5_11JokerEffect9retrigger
FNDA:0,_RNvMsP_NtCsfztrlbScSWy_10balatro_rs5jokerNtB5_11JokerEffect21___pymethod_get_mult__
FNDA:0,_RNvMsP_NtCsfztrlbScSWy_10balatro_rs5jokerNtB5_11JokerEffect22___pymethod_get_chips__
FNDA:0,_RNvMsP_NtCsfztrlbScSWy_10balatro_rs5jokerNtB5_11JokerEffect22___pymethod_get_money__
FNDA:0,_RNvMsP_NtCsfztrlbScSWy_10balatro_rs5jokerNtB5_11JokerEffect24___pymethod_get_message__
FNDA:0,_RNvMsP_NtCsfztrlbScSWy_10balatro_rs5jokerNtB5_11JokerEffect26___pymethod_get_retrigger__
FNDA:0,_RNvMsP_NtCsfztrlbScSWy_10balatro_rs5jokerNtB5_11JokerEffect28___pymethod_get_discard_mod__
FNDA:0,_RNvMsP_NtCsfztrlbScSWy_10balatro_rs5jokerNtB5_11JokerEffect29___pymethod_get_destroy_self__
FNDA:0,_RNvMsP_NtCsfztrlbScSWy_10balatro_rs5jokerNtB5_11JokerEffect30___pymethod_get_hand_size_mod__
FNDA:0,_RNvMsP_NtCsfztrlbScSWy_10balatro_rs5jokerNtB5_11JokerEffect31___pymethod_get_destroy_others__
FNDA:0,_RNvMsP_NtCsfztrlbScSWy_10balatro_rs5jokerNtB5_11JokerEffect32___pymethod_get_mult_multiplier__
FNDA:0,_RNvMsP_NtCsfztrlbScSWy_10balatro_rs5jokerNtB5_11JokerEffect32___pymethod_get_transform_cards__
FNDA:0,_RNvMsP_NtCsfztrlbScSWy_10balatro_rs5jokerNtB5_11JokerEffect36___pymethod_get_sell_value_increase__
FNDA:15,_RNvMs_NtCsfztrlbScSWy_10balatro_rs5jokerNtB4_11JokerEffect10with_chips
FNDA:129,_RNvMs_NtCsfztrlbScSWy_10balatro_rs5jokerNtB4_11JokerEffect10with_money
FNDA:1,_RNvMs_NtCsfztrlbScSWy_10balatro_rs5jokerNtB4_11JokerEffect12with_message
FNDA:2,_RNvMs_NtCsfztrlbScSWy_10balatro_rs5jokerNtB4_11JokerEffect20with_mult_multiplier
FNDA:1,_RNvMs_NtCsfztrlbScSWy_10balatro_rs5jokerNtB4_11JokerEffect24with_sell_value_increase
FNDA:335,_RNvMs_NtCsfztrlbScSWy_10balatro_rs5jokerNtB4_11JokerEffect3new
FNDA:18,_RNvMs_NtCsfztrlbScSWy_10balatro_rs5jokerNtB4_11JokerEffect9with_mult
FNDA:0,_RNvMsf_NtCsfztrlbScSWy_10balatro_rs5jokerNtB5_7JokerId38___pymethod___default___pyo3__int______
FNDA:0,_RNvMsf_NtCsfztrlbScSWy_10balatro_rs5jokerNtB5_7JokerId39___pymethod___default___pyo3__repr______
FNDA:0,_RNvMsw_NtCsfztrlbScSWy_10balatro_rs5jokerNtB5_11JokerRarity38___pymethod___default___pyo3__int______
FNDA:0,_RNvMsw_NtCsfztrlbScSWy_10balatro_rs5jokerNtB5_11JokerRarity39___pymethod___default___pyo3__repr______
FNDA:0,_RNvXNtCsfztrlbScSWy_10balatro_rs5jokerNtB2_11JokerRarityNtNtCs1p5UDGgVI4d_4core3fmt7Display3fmt
FNDA:0,_RINvXs0_NvXNvNtCsfztrlbScSWy_10balatro_rs5jokers_1__NtBb_7JokerIdNtNtCsWuCv7H75Ac_5serde2de11Deserialize11deserializeNtB6_9___VisitorNtB13_7Visitor10visit_enumINtNtCs9DWYcYz1PvJ_10serde_json2de13VariantAccessNtNtB2C_4read7StrReadEEBd_
FNDA:0,_RINvXs0_NvXNvNtCsfztrlbScSWy_10balatro_rs5jokers_1__NtBb_7JokerIdNtNtCsWuCv7H75Ac_5serde2de11Deserialize11deserializeNtB6_9___VisitorNtB13_7Visitor10visit_enumINtNtCs9DWYcYz1PvJ_10serde_json2de17UnitVariantAccessNtNtB2C_4read7StrReadEEBd_
FNDA:0,_RNCNvYNtNtCsfztrlbScSWy_10balatro_rs10joker_impl10CrazyJokerNtNtB8_5joker5Joker13migrate_state0B8_
FNDA:0,_RNCNvYNtNtCsfztrlbScSWy_10balatro_rs10joker_impl10DrollJokerNtNtB8_5joker5Joker13migrate_state0B8_
FNDA:0,_RNCNvYNtNtCsfztrlbScSWy_10balatro_rs10joker_impl10JollyJokerNtNtB8_5joker5Joker13migrate_state0B8_
FNDA:0,_RNCNvYNtNtCsfztrlbScSWy_10balatro_rs10joker_impl10LustyJokerNtNtB8_5joker5Joker13migrate_state0B8_
FNDA:0,_RNCNvYNtNtCsfztrlbScSWy_10balatro_rs10joker_impl10SpaceJokerNtNtB8_5joker5Joker13migrate_state0B8_
FNDA:0,_RNCNvYNtNtCsfztrlbScSWy_10balatro_rs10joker_impl11CleverJokerNtNtB8_5joker5Joker13migrate_state0B8_
FNDA:0,_RNCNvYNtNtCsfztrlbScSWy_10balatro_rs10joker_impl11CraftyJokerNtNtB8_5joker5Joker13migrate_state0B8_
FNDA:0,_RNCNvYNtNtCsfztrlbScSWy_10balatro_rs10joker_impl11GreedyJokerNtNtB8_5joker5Joker13migrate_state0B8_
FNDA:0,_RNCNvYNtNtCsfztrlbScSWy_10balatro_rs10joker_impl11RunnerJokerNtNtB8_5joker5Joker13migrate_state0B8_
FNDA:0,_RNCNvYNtNtCsfztrlbScSWy_10balatro_rs10joker_impl12BusinessCardNtNtB8_5joker5Joker13migrate_state0B8_
FNDA:0,_RNCNvYNtNtCsfztrlbScSWy_10balatro_rs10joker_impl12DeviousJokerNtNtB8_5joker5Joker13migrate_state0B8_
FNDA:0,_RNCNvYNtNtCsfztrlbScSWy_10balatro_rs10joker_impl13IceCreamJokerNtNtB8_5joker5Joker13migrate_state0B8_
FNDA:0,_RNCNvYNtNtCsfztrlbScSWy_10balatro_rs10joker_impl13WrathfulJokerNtNtB8_5joker5Joker13migrate_state0B8_
FNDA:0,_RNCNvYNtNtCsfztrlbScSWy_10balatro_rs10joker_impl14SupernovaJokerNtNtB8_5joker5Joker13migrate_state0B8_
FNDA:0,_RNCNvYNtNtCsfztrlbScSWy_10balatro_rs10joker_impl15GluttonousJokerNtNtB8_5joker5Joker13migrate_state0B8_
FNDA:0,_RNCNvYNtNtCsfztrlbScSWy_10balatro_rs10joker_impl3EggNtNtB8_5joker5Joker13migrate_state0B8_
FNDA:0,_RNCNvYNtNtCsfztrlbScSWy_10balatro_rs10joker_impl7BurglarNtNtB8_5joker5Joker13migrate_state0B8_
FNDA:0,_RNCNvYNtNtCsfztrlbScSWy_10balatro_rs10joker_impl8MadJokerNtNtB8_5joker5Joker13migrate_state0B8_
FNDA:0,_RNCNvYNtNtCsfztrlbScSWy_10balatro_rs10joker_impl8SlyJokerNtNtB8_5joker5Joker13migrate_state0B8_
FNDA:0,_RNCNvYNtNtCsfztrlbScSWy_10balatro_rs10joker_impl8TheJokerNtNtB8_5joker5Joker13migrate_state0B8_
FNDA:0,_RNCNvYNtNtCsfztrlbScSWy_10balatro_rs10joker_impl9WilyJokerNtNtB8_5joker5Joker13migrate_state0B8_
FNDA:0,_RNCNvYNtNtCsfztrlbScSWy_10balatro_rs10joker_impl9ZanyJokerNtNtB8_5joker5Joker13migrate_state0B8_
FNDA:0,_RNCNvYNtNtCsfztrlbScSWy_10balatro_rs12static_joker11StaticJokerNtNtB8_5joker5Joker13migrate_state0B8_
FNDA:0,_RNCNvYNtNtNtCsfztrlbScSWy_10balatro_rs5joker23hand_composition_jokers8DnaJokerNtB8_5Joker13migrate_state0Ba_
FNDA:0,_RINvXs0_NvXNvNtCsfztrlbScSWy_10balatro_rs5jokers2_1__NtBb_11JokerRarityNtNtCsWuCv7H75Ac_5serde2de11Deserialize11deserializeNtB6_9___VisitorNtB19_7Visitor10visit_enumpEBd_
FNDA:0,_RINvXs0_NvXNvNtCsfztrlbScSWy_10balatro_rs5jokers5_1__NtBb_11JokerEffectNtNtCsWuCv7H75Ac_5serde2de11Deserialize11deserializeNtB6_9___VisitorNtB19_7Visitor9visit_mappEBd_
FNDA:0,_RINvXs0_NvXNvNtCsfztrlbScSWy_10balatro_rs5jokers5_1__NtBb_11JokerEffectNtNtCsWuCv7H75Ac_5serde2de11Deserialize11deserializeNtB6_9___VisitorNtB19_7Visitor9visit_seqpEBd_
FNDA:0,_RNvYpNtNtCsfztrlbScSWy_10balatro_rs5joker5Joker4costB7_
FNDA:0,_RNvYNtNtCsfztrlbScSWy_10balatro_rs12static_joker11StaticJokerNtNtB6_5joker5Joker10on_cleanupB6_
FNDA:0,_RNvYNtNtCsfztrlbScSWy_10balatro_rs12static_joker11StaticJokerNtNtB6_5joker5Joker10on_createdB6_
FNDA:0,_RNvYNtNtCsfztrlbScSWy_10balatro_rs12static_joker11StaticJokerNtNtB6_5joker5Joker10on_discardB6_
FNDA:0,_RNvYNtNtCsfztrlbScSWy_10balatro_rs12static_joker11StaticJokerNtNtB6_5joker5Joker10sell_valueB6_
FNDA:0,_RNvYNtNtCsfztrlbScSWy_10balatro_rs12static_joker11StaticJokerNtNtB6_5joker5Joker11modify_multB6_
FNDA:0,_RNvYNtNtCsfztrlbScSWy_10balatro_rs12static_joker11StaticJokerNtNtB6_5joker5Joker12modify_chipsB6_
FNDA:0,_RNvYNtNtCsfztrlbScSWy_10balatro_rs12static_joker11StaticJokerNtNtB6_5joker5Joker12on_activatedB6_
FNDA:0,_RNvYNtNtCsfztrlbScSWy_10balatro_rs12static_joker11StaticJokerNtNtB6_5joker5Joker12on_round_endB6_
FNDA:0,_RNvYNtNtCsfztrlbScSWy_10balatro_rs12static_joker11StaticJokerNtNtB6_5joker5Joker12on_shop_openB6_
FNDA:0,_RNvYNtNtCsfztrlbScSWy_10balatro_rs12static_joker11StaticJokerNtNtB6_5joker5Joker13migrate_stateB6_
FNDA:0,_RNvYNtNtCsfztrlbScSWy_10balatro_rs12static_joker11StaticJokerNtNtB6_5joker5Joker14on_blind_startB6_
FNDA:0,_RNvYNtNtCsfztrlbScSWy_10balatro_rs12static_joker11StaticJokerNtNtB6_5joker5Joker14on_deactivatedB6_
FNDA:0,_RNvYNtNtCsfztrlbScSWy_10balatro_rs12static_joker11StaticJokerNtNtB6_5joker5Joker14validate_stateB6_
FNDA:0,_RNvYNtNtCsfztrlbScSWy_10balatro_rs12static_joker11StaticJokerNtNtB6_5joker5Joker15modify_discardsB6_
FNDA:0,_RNvYNtNtCsfztrlbScSWy_10balatro_rs12static_joker11StaticJokerNtNtB6_5joker5Joker15serialize_stateB6_
FNDA:0,_RNvYNtNtCsfztrlbScSWy_10balatro_rs12static_joker11StaticJokerNtNtB6_5joker5Joker16initialize_stateB6_
FNDA:0,_RNvYNtNtCsfztrlbScSWy_10balatro_rs12static_joker11StaticJokerNtNtB6_5joker5Joker16modify_hand_sizeB6_
FNDA:0,_RNvYNtNtCsfztrlbScSWy_10balatro_rs12static_joker11StaticJokerNtNtB6_5joker5Joker17deserialize_stateB6_
FNDA:0,_RNvYNtNtCsfztrlbScSWy_10balatro_rs10joker_impl10CrazyJokerNtNtB6_5joker5Joker10on_cleanupB6_
FNDA:0,_RNvYNtNtCsfztrlbScSWy_10balatro_rs10joker_impl10CrazyJokerNtNtB6_5joker5Joker10on_createdB6_
FNDA:0,_RNvYNtNtCsfztrlbScSWy_10balatro_rs10joker_impl10CrazyJokerNtNtB6_5joker5Joker10on_discardB6_
FNDA:0,_RNvYNtNtCsfztrlbScSWy_10balatro_rs10joker_impl10CrazyJokerNtNtB6_5joker5Joker10sell_valueB6_
FNDA:0,_RNvYNtNtCsfztrlbScSWy_10balatro_rs10joker_impl10CrazyJokerNtNtB6_5joker5Joker11modify_multB6_
FNDA:0,_RNvYNtNtCsfztrlbScSWy_10balatro_rs10joker_impl10CrazyJokerNtNtB6_5joker5Joker12modify_chipsB6_
FNDA:0,_RNvYNtNtCsfztrlbScSWy_10balatro_rs10joker_impl10CrazyJokerNtNtB6_5joker5Joker12on_activatedB6_
FNDA:0,_RNvYNtNtCsfztrlbScSWy_10balatro_rs10joker_impl10CrazyJokerNtNtB6_5joker5Joker12on_round_endB6_
FNDA:0,_RNvYNtNtCsfztrlbScSWy_10balatro_rs10joker_impl10CrazyJokerNtNtB6_5joker5Joker12on_shop_openB6_
FNDA:0,_RNvYNtNtCsfztrlbScSWy_10balatro_rs10joker_impl10CrazyJokerNtNtB6_5joker5Joker13migrate_stateB6_
FNDA:0,_RNvYNtNtCsfztrlbScSWy_10balatro_rs10joker_impl10CrazyJokerNtNtB6_5joker5Joker14on_blind_startB6_
FNDA:0,_RNvYNtNtCsfztrlbScSWy_10balatro_rs10joker_impl10CrazyJokerNtNtB6_5joker5Joker14on_card_scoredB6_
FNDA:0,_RNvYNtNtCsfztrlbScSWy_10balatro_rs10joker_impl10CrazyJokerNtNtB6_5joker5Joker14on_deactivatedB6_
FNDA:0,_RNvYNtNtCsfztrlbScSWy_10balatro_rs10joker_impl10CrazyJokerNtNtB6_5joker5Joker14validate_stateB6_
FNDA:0,_RNvYNtNtCsfztrlbScSWy_10balatro_rs10joker_impl10CrazyJokerNtNtB6_5joker5Joker15modify_discardsB6_
FNDA:0,_RNvYNtNtCsfztrlbScSWy_10balatro_rs10joker_impl10CrazyJokerNtNtB6_5joker5Joker15serialize_stateB6_
FNDA:0,_RNvYNtNtCsfztrlbScSWy_10balatro_rs10joker_impl10CrazyJokerNtNtB6_5joker5Joker16initialize_stateB6_
FNDA:0,_RNvYNtNtCsfztrlbScSWy_10balatro_rs10joker_impl10CrazyJokerNtNtB6_5joker5Joker16modify_hand_sizeB6_
FNDA:0,_RNvYNtNtCsfztrlbScSWy_10balatro_rs10joker_impl10CrazyJokerNtNtB6_5joker5Joker17deserialize_stateB6_
FNDA:0,_RNvYNtNtCsfztrlbScSWy_10balatro_rs10joker_impl10DrollJokerNtNtB6_5joker5Joker10on_cleanupB6_
FNDA:0,_RNvYNtNtCsfztrlbScSWy_10balatro_rs10joker_impl10DrollJokerNtNtB6_5joker5Joker10on_createdB6_
FNDA:0,_RNvYNtNtCsfztrlbScSWy_10balatro_rs10joker_impl10DrollJokerNtNtB6_5joker5Joker10on_discardB6_
FNDA:0,_RNvYNtNtCsfztrlbScSWy_10balatro_rs10joker_impl10DrollJokerNtNtB6_5joker5Joker10sell_valueB6_
FNDA:0,_RNvYNtNtCsfztrlbScSWy_10balatro_rs10joker_impl10DrollJokerNtNtB6_5joker5Joker11modify_multB6_
FNDA:0,_RNvYNtNtCsfztrlbScSWy_10balatro_rs10joker_impl10DrollJokerNtNtB6_5joker5Joker12modify_chipsB6_
FNDA:0,_RNvYNtNtCsfztrlbScSWy_10balatro_rs10joker_impl10DrollJokerNtNtB6_5joker5Joker12on_activatedB6_
FNDA:0,_RNvYNtNtCsfztrlbScSWy_10balatro_rs10joker_impl10DrollJokerNtNtB6_5joker5Joker12on_round_endB6_
FNDA:0,_RNvYNtNtCsfztrlbScSWy_10balatro_rs10joker_impl10DrollJokerNtNtB6_5joker5Joker12on_shop_openB6_
FNDA:0,_RNvYNtNtCsfztrlbScSWy_10balatro_rs10joker_impl10DrollJokerNtNtB6_5joker5Joker13migrate_stateB6_
FNDA:0,_RNvYNtNtCsfztrlbScSWy_10balatro_rs10joker_impl10DrollJokerNtNtB6_5joker5Joker14on_blind_startB6_
FNDA:0,_RNvYNtNtCsfztrlbScSWy_10balatro_rs10joker_impl10DrollJokerNtNtB6_5joker5Joker14on_card_scoredB6_
FNDA:0,_RNvYNtNtCsfztrlbScSWy_10balatro_rs10joker_impl10DrollJokerNtNtB6_5joker5Joker14on_deactivatedB6_
FNDA:0,_RNvYNtNtCsfztrlbScSWy_10balatro_rs10joker_impl10DrollJokerNtNtB6_5joker5Joker14validate_stateB6_
FNDA:0,_RNvYNtNtCsfztrlbScSWy_10balatro_rs10joker_impl10DrollJokerNtNtB6_5joker5Joker15modify_discardsB6_
FNDA:0,_RNvYNtNtCsfztrlbScSWy_10balatro_rs10joker_impl10DrollJokerNtNtB6_5joker5Joker15serialize_stateB6_
FNDA:0,_RNvYNtNtCsfztrlbScSWy_10balatro_rs10joker_impl10DrollJokerNtNtB6_5joker5Joker16initialize_stateB6_
FNDA:0,_RNvYNtNtCsfztrlbScSWy_10balatro_rs10joker_impl10DrollJokerNtNtB6_5joker5Joker16modify_hand_sizeB6_
FNDA:0,_RNvYNtNtCsfztrlbScSWy_10balatro_rs10joker_impl10DrollJokerNtNtB6_5joker5Joker17deserialize_stateB6_
FNDA:0,_RNvYNtNtCsfztrlbScSWy_10balatro_rs10joker_impl10JollyJokerNtNtB6_5joker5Joker10on_cleanupB6_
FNDA:0,_RNvYNtNtCsfztrlbScSWy_10balatro_rs10joker_impl10JollyJokerNtNtB6_5joker5Joker10on_createdB6_
FNDA:0,_RNvYNtNtCsfztrlbScSWy_10balatro_rs10joker_impl10JollyJokerNtNtB6_5joker5Joker10on_discardB6_
FNDA:0,_RNvYNtNtCsfztrlbScSWy_10balatro_rs10joker_impl10JollyJokerNtNtB6_5joker5Joker10sell_valueB6_
FNDA:0,_RNvYNtNtCsfztrlbScSWy_10balatro_rs10joker_impl10JollyJokerNtNtB6_5joker5Joker11modify_multB6_
FNDA:0,_RNvYNtNtCsfztrlbScSWy_10balatro_rs10joker_impl10JollyJokerNtNtB6_5joker5Joker12modify_chipsB6_
FNDA:0,_RNvYNtNtCsfztrlbScSWy_10balatro_rs10joker_impl10JollyJokerNtNtB6_5joker5Joker12on_activatedB6_
FNDA:0,_RNvYNtNtCsfztrlbScSWy_10balatro_rs10joker_impl10JollyJokerNtNtB6_5joker5Joker12on_round_endB6_
FNDA:0,_RNvYNtNtCsfztrlbScSWy_10balatro_rs10joker_impl10JollyJokerNtNtB6_5joker5Joker12on_shop_openB6_
FNDA:0,_RNvYNtNtCsfztrlbScSWy_10balatro_rs10joker_impl10JollyJokerNtNtB6_5joker5Joker13migrate_stateB6_
FNDA:0,_RNvYNtNtCsfztrlbScSWy_10balatro_rs10joker_impl10JollyJokerNtNtB6_5joker5Joker14on_blind_startB6_
FNDA:0,_RNvYNtNtCsfztrlbScSWy_10balatro_rs10joker_impl10JollyJokerNtNtB6_5joker5Joker14on_card_scoredB6_
FNDA:0,_RNvYNtNtCsfztrlbScSWy_10balatro_rs10joker_impl10JollyJokerNtNtB6_5joker5Joker14on_deactivatedB6_
FNDA:0,_RNvYNtNtCsfztrlbScSWy_10balatro_rs10joker_impl10JollyJokerNtNtB6_5joker5Joker14validate_stateB6_
FNDA:0,_RNvYNtNtCsfztrlbScSWy_10balatro_rs10joker_impl10JollyJokerNtNtB6_5joker5Joker15modify_discardsB6_
FNDA:0,_RNvYNtNtCsfztrlbScSWy_10balatro_rs10joker_impl10JollyJokerNtNtB6_5joker5Joker15serialize_stateB6_
FNDA:0,_RNvYNtNtCsfztrlbScSWy_10balatro_rs10joker_impl10JollyJokerNtNtB6_5joker5Joker16initialize_stateB6_
FNDA:0,_RNvYNtNtCsfztrlbScSWy_10balatro_rs10joker_impl10JollyJokerNtNtB6_5joker5Joker16modify_hand_sizeB6_
FNDA:0,_RNvYNtNtCsfztrlbScSWy_10balatro_rs10joker_impl10JollyJokerNtNtB6_5joker5Joker17deserialize_stateB6_
FNDA:0,_RNvYNtNtCsfztrlbScSWy_10balatro_rs10joker_impl10LustyJokerNtNtB6_5joker5Joker10on_cleanupB6_
FNDA:0,_RNvYNtNtCsfztrlbScSWy_10balatro_rs10joker_impl10LustyJokerNtNtB6_5joker5Joker10on_createdB6_
FNDA:0,_RNvYNtNtCsfztrlbScSWy_10balatro_rs10joker_impl10LustyJokerNtNtB6_5joker5Joker10on_discardB6_
FNDA:0,_RNvYNtNtCsfztrlbScSWy_10balatro_rs10joker_impl10LustyJokerNtNtB6_5joker5Joker10sell_valueB6_
FNDA:0,_RNvYNtNtCsfztrlbScSWy_10balatro_rs10joker_impl10LustyJokerNtNtB6_5joker5Joker11modify_multB6_
FNDA:0,_RNvYNtNtCsfztrlbScSWy_10balatro_rs10joker_impl10LustyJokerNtNtB6_5joker5Joker12modify_chipsB6_
FNDA:0,_RNvYNtNtCsfztrlbScSWy_10balatro_rs10joker_impl10LustyJokerNtNtB6_5joker5Joker12on_activatedB6_
FNDA:0,_RNvYNtNtCsfztrlbScSWy_10balatro_rs10joker_impl10LustyJokerNtNtB6_5joker5Joker12on_round_endB6_
FNDA:0,_RNvYNtNtCsfztrlbScSWy_10balatro_rs10joker_impl10LustyJokerNtNtB6_5joker5Joker12on_shop_openB6_
FNDA:0,_RNvYNtNtCsfztrlbScSWy_10balatro_rs10joker_impl10LustyJokerNtNtB6_5joker5Joker13migrate_stateB6_
FNDA:0,_RNvYNtNtCsfztrlbScSWy_10balatro_rs10joker_impl10LustyJokerNtNtB6_5joker5Joker14on_blind_startB6_
FNDA:0,_RNvYNtNtCsfztrlbScSWy_10balatro_rs10joker_impl10LustyJokerNtNtB6_5joker5Joker14on_deactivatedB6_
FNDA:2,_RNvYNtNtCsfztrlbScSWy_10balatro_rs10joker_impl10LustyJokerNtNtB6_5joker5Joker14on_hand_playedB6_
FNDA:0,_RNvYNtNtCsfztrlbScSWy_10balatro_rs10joker_impl10LustyJokerNtNtB6_5joker5Joker14validate_stateB6_
